
SupplyModule103RB.elf:     file format elf32-littlearm

Sections:
Idx Name          Size      VMA       LMA       File off  Algn
  0 .isr_vector   0000010c  08000000  08000000  00010000  2**0
                  CONTENTS, ALLOC, LOAD, READONLY, DATA
  1 .text         000056e4  08000110  08000110  00010110  2**4
                  CONTENTS, ALLOC, LOAD, READONLY, CODE
  2 .rodata       00000274  080057f4  080057f4  000157f4  2**2
                  CONTENTS, ALLOC, LOAD, READONLY, DATA
  3 .ARM.extab    00000128  08005a68  08005a68  00015a68  2**2
                  CONTENTS, ALLOC, LOAD, READONLY, DATA
  4 .ARM          000001a8  08005b90  08005b90  00015b90  2**2
                  CONTENTS, ALLOC, LOAD, READONLY, DATA
  5 .init_array   0000000c  08005d38  08005d38  00015d38  2**2
                  CONTENTS, ALLOC, LOAD, DATA
  6 .fini_array   00000004  08005d44  08005d44  00015d44  2**2
                  CONTENTS, ALLOC, LOAD, DATA
  7 .data         00000080  20000000  08005d48  00020000  2**2
                  CONTENTS, ALLOC, LOAD, DATA
  8 .bss          000011a8  20000080  08005dc8  00020080  2**2
                  ALLOC
  9 ._user_heap_stack 00000600  20001228  08005dc8  00021228  2**0
                  ALLOC
 10 .ARM.attributes 00000029  00000000  00000000  00020080  2**0
                  CONTENTS, READONLY
 11 .debug_info   0001caf8  00000000  00000000  000200a9  2**0
                  CONTENTS, READONLY, DEBUGGING
 12 .debug_abbrev 00004ed5  00000000  00000000  0003cba1  2**0
                  CONTENTS, READONLY, DEBUGGING
 13 .debug_aranges 000012c8  00000000  00000000  00041a78  2**3
                  CONTENTS, READONLY, DEBUGGING
 14 .debug_ranges 000015c8  00000000  00000000  00042d40  2**3
                  CONTENTS, READONLY, DEBUGGING
 15 .debug_line   0000a7cf  00000000  00000000  00044308  2**0
                  CONTENTS, READONLY, DEBUGGING
 16 .debug_str    00006c08  00000000  00000000  0004ead7  2**0
                  CONTENTS, READONLY, DEBUGGING
 17 .comment      0000007c  00000000  00000000  000556df  2**0
                  CONTENTS, READONLY
 18 .debug_frame  000046ec  00000000  00000000  0005575c  2**2
                  CONTENTS, READONLY, DEBUGGING
 19 .debug_loc    0000a9ab  00000000  00000000  00059e48  2**0
                  CONTENTS, READONLY, DEBUGGING

Disassembly of section .text:

08000110 <__do_global_dtors_aux>:
 8000110:	b510      	push	{r4, lr}
 8000112:	4c05      	ldr	r4, [pc, #20]	; (8000128 <__do_global_dtors_aux+0x18>)
 8000114:	7823      	ldrb	r3, [r4, #0]
 8000116:	b933      	cbnz	r3, 8000126 <__do_global_dtors_aux+0x16>
 8000118:	4b04      	ldr	r3, [pc, #16]	; (800012c <__do_global_dtors_aux+0x1c>)
 800011a:	b113      	cbz	r3, 8000122 <__do_global_dtors_aux+0x12>
 800011c:	4804      	ldr	r0, [pc, #16]	; (8000130 <__do_global_dtors_aux+0x20>)
 800011e:	f3af 8000 	nop.w
 8000122:	2301      	movs	r3, #1
 8000124:	7023      	strb	r3, [r4, #0]
 8000126:	bd10      	pop	{r4, pc}
 8000128:	20000080 	.word	0x20000080
 800012c:	00000000 	.word	0x00000000
 8000130:	080057dc 	.word	0x080057dc

08000134 <frame_dummy>:
 8000134:	b508      	push	{r3, lr}
 8000136:	4b03      	ldr	r3, [pc, #12]	; (8000144 <frame_dummy+0x10>)
 8000138:	b11b      	cbz	r3, 8000142 <frame_dummy+0xe>
 800013a:	4903      	ldr	r1, [pc, #12]	; (8000148 <frame_dummy+0x14>)
 800013c:	4803      	ldr	r0, [pc, #12]	; (800014c <frame_dummy+0x18>)
 800013e:	f3af 8000 	nop.w
 8000142:	bd08      	pop	{r3, pc}
 8000144:	00000000 	.word	0x00000000
 8000148:	20000084 	.word	0x20000084
 800014c:	080057dc 	.word	0x080057dc

08000150 <strcmp>:
 8000150:	f810 2b01 	ldrb.w	r2, [r0], #1
 8000154:	f811 3b01 	ldrb.w	r3, [r1], #1
 8000158:	2a01      	cmp	r2, #1
 800015a:	bf28      	it	cs
 800015c:	429a      	cmpcs	r2, r3
 800015e:	d0f7      	beq.n	8000150 <strcmp>
 8000160:	1ad0      	subs	r0, r2, r3
 8000162:	4770      	bx	lr

08000164 <__aeabi_frsub>:
 8000164:	f080 4000 	eor.w	r0, r0, #2147483648	; 0x80000000
 8000168:	e002      	b.n	8000170 <__addsf3>
 800016a:	bf00      	nop

0800016c <__aeabi_fsub>:
 800016c:	f081 4100 	eor.w	r1, r1, #2147483648	; 0x80000000

08000170 <__addsf3>:
 8000170:	0042      	lsls	r2, r0, #1
 8000172:	bf1f      	itttt	ne
 8000174:	ea5f 0341 	movsne.w	r3, r1, lsl #1
 8000178:	ea92 0f03 	teqne	r2, r3
 800017c:	ea7f 6c22 	mvnsne.w	ip, r2, asr #24
 8000180:	ea7f 6c23 	mvnsne.w	ip, r3, asr #24
 8000184:	d06a      	beq.n	800025c <__addsf3+0xec>
 8000186:	ea4f 6212 	mov.w	r2, r2, lsr #24
 800018a:	ebd2 6313 	rsbs	r3, r2, r3, lsr #24
 800018e:	bfc1      	itttt	gt
 8000190:	18d2      	addgt	r2, r2, r3
 8000192:	4041      	eorgt	r1, r0
 8000194:	4048      	eorgt	r0, r1
 8000196:	4041      	eorgt	r1, r0
 8000198:	bfb8      	it	lt
 800019a:	425b      	neglt	r3, r3
 800019c:	2b19      	cmp	r3, #25
 800019e:	bf88      	it	hi
 80001a0:	4770      	bxhi	lr
 80001a2:	f010 4f00 	tst.w	r0, #2147483648	; 0x80000000
 80001a6:	f440 0000 	orr.w	r0, r0, #8388608	; 0x800000
 80001aa:	f020 407f 	bic.w	r0, r0, #4278190080	; 0xff000000
 80001ae:	bf18      	it	ne
 80001b0:	4240      	negne	r0, r0
 80001b2:	f011 4f00 	tst.w	r1, #2147483648	; 0x80000000
 80001b6:	f441 0100 	orr.w	r1, r1, #8388608	; 0x800000
 80001ba:	f021 417f 	bic.w	r1, r1, #4278190080	; 0xff000000
 80001be:	bf18      	it	ne
 80001c0:	4249      	negne	r1, r1
 80001c2:	ea92 0f03 	teq	r2, r3
 80001c6:	d03f      	beq.n	8000248 <__addsf3+0xd8>
 80001c8:	f1a2 0201 	sub.w	r2, r2, #1
 80001cc:	fa41 fc03 	asr.w	ip, r1, r3
 80001d0:	eb10 000c 	adds.w	r0, r0, ip
 80001d4:	f1c3 0320 	rsb	r3, r3, #32
 80001d8:	fa01 f103 	lsl.w	r1, r1, r3
 80001dc:	f000 4300 	and.w	r3, r0, #2147483648	; 0x80000000
 80001e0:	d502      	bpl.n	80001e8 <__addsf3+0x78>
 80001e2:	4249      	negs	r1, r1
 80001e4:	eb60 0040 	sbc.w	r0, r0, r0, lsl #1
 80001e8:	f5b0 0f00 	cmp.w	r0, #8388608	; 0x800000
 80001ec:	d313      	bcc.n	8000216 <__addsf3+0xa6>
 80001ee:	f1b0 7f80 	cmp.w	r0, #16777216	; 0x1000000
 80001f2:	d306      	bcc.n	8000202 <__addsf3+0x92>
 80001f4:	0840      	lsrs	r0, r0, #1
 80001f6:	ea4f 0131 	mov.w	r1, r1, rrx
 80001fa:	f102 0201 	add.w	r2, r2, #1
 80001fe:	2afe      	cmp	r2, #254	; 0xfe
 8000200:	d251      	bcs.n	80002a6 <__addsf3+0x136>
 8000202:	f1b1 4f00 	cmp.w	r1, #2147483648	; 0x80000000
 8000206:	eb40 50c2 	adc.w	r0, r0, r2, lsl #23
 800020a:	bf08      	it	eq
 800020c:	f020 0001 	biceq.w	r0, r0, #1
 8000210:	ea40 0003 	orr.w	r0, r0, r3
 8000214:	4770      	bx	lr
 8000216:	0049      	lsls	r1, r1, #1
 8000218:	eb40 0000 	adc.w	r0, r0, r0
 800021c:	f410 0f00 	tst.w	r0, #8388608	; 0x800000
 8000220:	f1a2 0201 	sub.w	r2, r2, #1
 8000224:	d1ed      	bne.n	8000202 <__addsf3+0x92>
 8000226:	fab0 fc80 	clz	ip, r0
 800022a:	f1ac 0c08 	sub.w	ip, ip, #8
 800022e:	ebb2 020c 	subs.w	r2, r2, ip
 8000232:	fa00 f00c 	lsl.w	r0, r0, ip
 8000236:	bfaa      	itet	ge
 8000238:	eb00 50c2 	addge.w	r0, r0, r2, lsl #23
 800023c:	4252      	neglt	r2, r2
 800023e:	4318      	orrge	r0, r3
 8000240:	bfbc      	itt	lt
 8000242:	40d0      	lsrlt	r0, r2
 8000244:	4318      	orrlt	r0, r3
 8000246:	4770      	bx	lr
 8000248:	f092 0f00 	teq	r2, #0
 800024c:	f481 0100 	eor.w	r1, r1, #8388608	; 0x800000
 8000250:	bf06      	itte	eq
 8000252:	f480 0000 	eoreq.w	r0, r0, #8388608	; 0x800000
 8000256:	3201      	addeq	r2, #1
 8000258:	3b01      	subne	r3, #1
 800025a:	e7b5      	b.n	80001c8 <__addsf3+0x58>
 800025c:	ea4f 0341 	mov.w	r3, r1, lsl #1
 8000260:	ea7f 6c22 	mvns.w	ip, r2, asr #24
 8000264:	bf18      	it	ne
 8000266:	ea7f 6c23 	mvnsne.w	ip, r3, asr #24
 800026a:	d021      	beq.n	80002b0 <__addsf3+0x140>
 800026c:	ea92 0f03 	teq	r2, r3
 8000270:	d004      	beq.n	800027c <__addsf3+0x10c>
 8000272:	f092 0f00 	teq	r2, #0
 8000276:	bf08      	it	eq
 8000278:	4608      	moveq	r0, r1
 800027a:	4770      	bx	lr
 800027c:	ea90 0f01 	teq	r0, r1
 8000280:	bf1c      	itt	ne
 8000282:	2000      	movne	r0, #0
 8000284:	4770      	bxne	lr
 8000286:	f012 4f7f 	tst.w	r2, #4278190080	; 0xff000000
 800028a:	d104      	bne.n	8000296 <__addsf3+0x126>
 800028c:	0040      	lsls	r0, r0, #1
 800028e:	bf28      	it	cs
 8000290:	f040 4000 	orrcs.w	r0, r0, #2147483648	; 0x80000000
 8000294:	4770      	bx	lr
 8000296:	f112 7200 	adds.w	r2, r2, #33554432	; 0x2000000
 800029a:	bf3c      	itt	cc
 800029c:	f500 0000 	addcc.w	r0, r0, #8388608	; 0x800000
 80002a0:	4770      	bxcc	lr
 80002a2:	f000 4300 	and.w	r3, r0, #2147483648	; 0x80000000
 80002a6:	f043 40fe 	orr.w	r0, r3, #2130706432	; 0x7f000000
 80002aa:	f440 0000 	orr.w	r0, r0, #8388608	; 0x800000
 80002ae:	4770      	bx	lr
 80002b0:	ea7f 6222 	mvns.w	r2, r2, asr #24
 80002b4:	bf16      	itet	ne
 80002b6:	4608      	movne	r0, r1
 80002b8:	ea7f 6323 	mvnseq.w	r3, r3, asr #24
 80002bc:	4601      	movne	r1, r0
 80002be:	0242      	lsls	r2, r0, #9
 80002c0:	bf06      	itte	eq
 80002c2:	ea5f 2341 	movseq.w	r3, r1, lsl #9
 80002c6:	ea90 0f01 	teqeq	r0, r1
 80002ca:	f440 0080 	orrne.w	r0, r0, #4194304	; 0x400000
 80002ce:	4770      	bx	lr

080002d0 <__aeabi_ui2f>:
 80002d0:	f04f 0300 	mov.w	r3, #0
 80002d4:	e004      	b.n	80002e0 <__aeabi_i2f+0x8>
 80002d6:	bf00      	nop

080002d8 <__aeabi_i2f>:
 80002d8:	f010 4300 	ands.w	r3, r0, #2147483648	; 0x80000000
 80002dc:	bf48      	it	mi
 80002de:	4240      	negmi	r0, r0
 80002e0:	ea5f 0c00 	movs.w	ip, r0
 80002e4:	bf08      	it	eq
 80002e6:	4770      	bxeq	lr
 80002e8:	f043 4396 	orr.w	r3, r3, #1258291200	; 0x4b000000
 80002ec:	4601      	mov	r1, r0
 80002ee:	f04f 0000 	mov.w	r0, #0
 80002f2:	e01c      	b.n	800032e <__aeabi_l2f+0x2a>

080002f4 <__aeabi_ul2f>:
 80002f4:	ea50 0201 	orrs.w	r2, r0, r1
 80002f8:	bf08      	it	eq
 80002fa:	4770      	bxeq	lr
 80002fc:	f04f 0300 	mov.w	r3, #0
 8000300:	e00a      	b.n	8000318 <__aeabi_l2f+0x14>
 8000302:	bf00      	nop

08000304 <__aeabi_l2f>:
 8000304:	ea50 0201 	orrs.w	r2, r0, r1
 8000308:	bf08      	it	eq
 800030a:	4770      	bxeq	lr
 800030c:	f011 4300 	ands.w	r3, r1, #2147483648	; 0x80000000
 8000310:	d502      	bpl.n	8000318 <__aeabi_l2f+0x14>
 8000312:	4240      	negs	r0, r0
 8000314:	eb61 0141 	sbc.w	r1, r1, r1, lsl #1
 8000318:	ea5f 0c01 	movs.w	ip, r1
 800031c:	bf02      	ittt	eq
 800031e:	4684      	moveq	ip, r0
 8000320:	4601      	moveq	r1, r0
 8000322:	2000      	moveq	r0, #0
 8000324:	f043 43b6 	orr.w	r3, r3, #1526726656	; 0x5b000000
 8000328:	bf08      	it	eq
 800032a:	f1a3 5380 	subeq.w	r3, r3, #268435456	; 0x10000000
 800032e:	f5a3 0300 	sub.w	r3, r3, #8388608	; 0x800000
 8000332:	fabc f28c 	clz	r2, ip
 8000336:	3a08      	subs	r2, #8
 8000338:	eba3 53c2 	sub.w	r3, r3, r2, lsl #23
 800033c:	db10      	blt.n	8000360 <__aeabi_l2f+0x5c>
 800033e:	fa01 fc02 	lsl.w	ip, r1, r2
 8000342:	4463      	add	r3, ip
 8000344:	fa00 fc02 	lsl.w	ip, r0, r2
 8000348:	f1c2 0220 	rsb	r2, r2, #32
 800034c:	f1bc 4f00 	cmp.w	ip, #2147483648	; 0x80000000
 8000350:	fa20 f202 	lsr.w	r2, r0, r2
 8000354:	eb43 0002 	adc.w	r0, r3, r2
 8000358:	bf08      	it	eq
 800035a:	f020 0001 	biceq.w	r0, r0, #1
 800035e:	4770      	bx	lr
 8000360:	f102 0220 	add.w	r2, r2, #32
 8000364:	fa01 fc02 	lsl.w	ip, r1, r2
 8000368:	f1c2 0220 	rsb	r2, r2, #32
 800036c:	ea50 004c 	orrs.w	r0, r0, ip, lsl #1
 8000370:	fa21 f202 	lsr.w	r2, r1, r2
 8000374:	eb43 0002 	adc.w	r0, r3, r2
 8000378:	bf08      	it	eq
 800037a:	ea20 70dc 	biceq.w	r0, r0, ip, lsr #31
 800037e:	4770      	bx	lr

08000380 <__aeabi_fmul>:
 8000380:	f04f 0cff 	mov.w	ip, #255	; 0xff
 8000384:	ea1c 52d0 	ands.w	r2, ip, r0, lsr #23
 8000388:	bf1e      	ittt	ne
 800038a:	ea1c 53d1 	andsne.w	r3, ip, r1, lsr #23
 800038e:	ea92 0f0c 	teqne	r2, ip
 8000392:	ea93 0f0c 	teqne	r3, ip
 8000396:	d06f      	beq.n	8000478 <__aeabi_fmul+0xf8>
 8000398:	441a      	add	r2, r3
 800039a:	ea80 0c01 	eor.w	ip, r0, r1
 800039e:	0240      	lsls	r0, r0, #9
 80003a0:	bf18      	it	ne
 80003a2:	ea5f 2141 	movsne.w	r1, r1, lsl #9
 80003a6:	d01e      	beq.n	80003e6 <__aeabi_fmul+0x66>
 80003a8:	f04f 6300 	mov.w	r3, #134217728	; 0x8000000
 80003ac:	ea43 1050 	orr.w	r0, r3, r0, lsr #5
 80003b0:	ea43 1151 	orr.w	r1, r3, r1, lsr #5
 80003b4:	fba0 3101 	umull	r3, r1, r0, r1
 80003b8:	f00c 4000 	and.w	r0, ip, #2147483648	; 0x80000000
 80003bc:	f5b1 0f00 	cmp.w	r1, #8388608	; 0x800000
 80003c0:	bf3e      	ittt	cc
 80003c2:	0049      	lslcc	r1, r1, #1
 80003c4:	ea41 71d3 	orrcc.w	r1, r1, r3, lsr #31
 80003c8:	005b      	lslcc	r3, r3, #1
 80003ca:	ea40 0001 	orr.w	r0, r0, r1
 80003ce:	f162 027f 	sbc.w	r2, r2, #127	; 0x7f
 80003d2:	2afd      	cmp	r2, #253	; 0xfd
 80003d4:	d81d      	bhi.n	8000412 <__aeabi_fmul+0x92>
 80003d6:	f1b3 4f00 	cmp.w	r3, #2147483648	; 0x80000000
 80003da:	eb40 50c2 	adc.w	r0, r0, r2, lsl #23
 80003de:	bf08      	it	eq
 80003e0:	f020 0001 	biceq.w	r0, r0, #1
 80003e4:	4770      	bx	lr
 80003e6:	f090 0f00 	teq	r0, #0
 80003ea:	f00c 4c00 	and.w	ip, ip, #2147483648	; 0x80000000
 80003ee:	bf08      	it	eq
 80003f0:	0249      	lsleq	r1, r1, #9
 80003f2:	ea4c 2050 	orr.w	r0, ip, r0, lsr #9
 80003f6:	ea40 2051 	orr.w	r0, r0, r1, lsr #9
 80003fa:	3a7f      	subs	r2, #127	; 0x7f
 80003fc:	bfc2      	ittt	gt
 80003fe:	f1d2 03ff 	rsbsgt	r3, r2, #255	; 0xff
 8000402:	ea40 50c2 	orrgt.w	r0, r0, r2, lsl #23
 8000406:	4770      	bxgt	lr
 8000408:	f440 0000 	orr.w	r0, r0, #8388608	; 0x800000
 800040c:	f04f 0300 	mov.w	r3, #0
 8000410:	3a01      	subs	r2, #1
 8000412:	dc5d      	bgt.n	80004d0 <__aeabi_fmul+0x150>
 8000414:	f112 0f19 	cmn.w	r2, #25
 8000418:	bfdc      	itt	le
 800041a:	f000 4000 	andle.w	r0, r0, #2147483648	; 0x80000000
 800041e:	4770      	bxle	lr
 8000420:	f1c2 0200 	rsb	r2, r2, #0
 8000424:	0041      	lsls	r1, r0, #1
 8000426:	fa21 f102 	lsr.w	r1, r1, r2
 800042a:	f1c2 0220 	rsb	r2, r2, #32
 800042e:	fa00 fc02 	lsl.w	ip, r0, r2
 8000432:	ea5f 0031 	movs.w	r0, r1, rrx
 8000436:	f140 0000 	adc.w	r0, r0, #0
 800043a:	ea53 034c 	orrs.w	r3, r3, ip, lsl #1
 800043e:	bf08      	it	eq
 8000440:	ea20 70dc 	biceq.w	r0, r0, ip, lsr #31
 8000444:	4770      	bx	lr
 8000446:	f092 0f00 	teq	r2, #0
 800044a:	f000 4c00 	and.w	ip, r0, #2147483648	; 0x80000000
 800044e:	bf02      	ittt	eq
 8000450:	0040      	lsleq	r0, r0, #1
 8000452:	f410 0f00 	tsteq.w	r0, #8388608	; 0x800000
 8000456:	3a01      	subeq	r2, #1
 8000458:	d0f9      	beq.n	800044e <__aeabi_fmul+0xce>
 800045a:	ea40 000c 	orr.w	r0, r0, ip
 800045e:	f093 0f00 	teq	r3, #0
 8000462:	f001 4c00 	and.w	ip, r1, #2147483648	; 0x80000000
 8000466:	bf02      	ittt	eq
 8000468:	0049      	lsleq	r1, r1, #1
 800046a:	f411 0f00 	tsteq.w	r1, #8388608	; 0x800000
 800046e:	3b01      	subeq	r3, #1
 8000470:	d0f9      	beq.n	8000466 <__aeabi_fmul+0xe6>
 8000472:	ea41 010c 	orr.w	r1, r1, ip
 8000476:	e78f      	b.n	8000398 <__aeabi_fmul+0x18>
 8000478:	ea0c 53d1 	and.w	r3, ip, r1, lsr #23
 800047c:	ea92 0f0c 	teq	r2, ip
 8000480:	bf18      	it	ne
 8000482:	ea93 0f0c 	teqne	r3, ip
 8000486:	d00a      	beq.n	800049e <__aeabi_fmul+0x11e>
 8000488:	f030 4c00 	bics.w	ip, r0, #2147483648	; 0x80000000
 800048c:	bf18      	it	ne
 800048e:	f031 4c00 	bicsne.w	ip, r1, #2147483648	; 0x80000000
 8000492:	d1d8      	bne.n	8000446 <__aeabi_fmul+0xc6>
 8000494:	ea80 0001 	eor.w	r0, r0, r1
 8000498:	f000 4000 	and.w	r0, r0, #2147483648	; 0x80000000
 800049c:	4770      	bx	lr
 800049e:	f090 0f00 	teq	r0, #0
 80004a2:	bf17      	itett	ne
 80004a4:	f090 4f00 	teqne	r0, #2147483648	; 0x80000000
 80004a8:	4608      	moveq	r0, r1
 80004aa:	f091 0f00 	teqne	r1, #0
 80004ae:	f091 4f00 	teqne	r1, #2147483648	; 0x80000000
 80004b2:	d014      	beq.n	80004de <__aeabi_fmul+0x15e>
 80004b4:	ea92 0f0c 	teq	r2, ip
 80004b8:	d101      	bne.n	80004be <__aeabi_fmul+0x13e>
 80004ba:	0242      	lsls	r2, r0, #9
 80004bc:	d10f      	bne.n	80004de <__aeabi_fmul+0x15e>
 80004be:	ea93 0f0c 	teq	r3, ip
 80004c2:	d103      	bne.n	80004cc <__aeabi_fmul+0x14c>
 80004c4:	024b      	lsls	r3, r1, #9
 80004c6:	bf18      	it	ne
 80004c8:	4608      	movne	r0, r1
 80004ca:	d108      	bne.n	80004de <__aeabi_fmul+0x15e>
 80004cc:	ea80 0001 	eor.w	r0, r0, r1
 80004d0:	f000 4000 	and.w	r0, r0, #2147483648	; 0x80000000
 80004d4:	f040 40fe 	orr.w	r0, r0, #2130706432	; 0x7f000000
 80004d8:	f440 0000 	orr.w	r0, r0, #8388608	; 0x800000
 80004dc:	4770      	bx	lr
 80004de:	f040 40fe 	orr.w	r0, r0, #2130706432	; 0x7f000000
 80004e2:	f440 0040 	orr.w	r0, r0, #12582912	; 0xc00000
 80004e6:	4770      	bx	lr

080004e8 <__aeabi_fdiv>:
 80004e8:	f04f 0cff 	mov.w	ip, #255	; 0xff
 80004ec:	ea1c 52d0 	ands.w	r2, ip, r0, lsr #23
 80004f0:	bf1e      	ittt	ne
 80004f2:	ea1c 53d1 	andsne.w	r3, ip, r1, lsr #23
 80004f6:	ea92 0f0c 	teqne	r2, ip
 80004fa:	ea93 0f0c 	teqne	r3, ip
 80004fe:	d069      	beq.n	80005d4 <__aeabi_fdiv+0xec>
 8000500:	eba2 0203 	sub.w	r2, r2, r3
 8000504:	ea80 0c01 	eor.w	ip, r0, r1
 8000508:	0249      	lsls	r1, r1, #9
 800050a:	ea4f 2040 	mov.w	r0, r0, lsl #9
 800050e:	d037      	beq.n	8000580 <__aeabi_fdiv+0x98>
 8000510:	f04f 5380 	mov.w	r3, #268435456	; 0x10000000
 8000514:	ea43 1111 	orr.w	r1, r3, r1, lsr #4
 8000518:	ea43 1310 	orr.w	r3, r3, r0, lsr #4
 800051c:	f00c 4000 	and.w	r0, ip, #2147483648	; 0x80000000
 8000520:	428b      	cmp	r3, r1
 8000522:	bf38      	it	cc
 8000524:	005b      	lslcc	r3, r3, #1
 8000526:	f142 027d 	adc.w	r2, r2, #125	; 0x7d
 800052a:	f44f 0c00 	mov.w	ip, #8388608	; 0x800000
 800052e:	428b      	cmp	r3, r1
 8000530:	bf24      	itt	cs
 8000532:	1a5b      	subcs	r3, r3, r1
 8000534:	ea40 000c 	orrcs.w	r0, r0, ip
 8000538:	ebb3 0f51 	cmp.w	r3, r1, lsr #1
 800053c:	bf24      	itt	cs
 800053e:	eba3 0351 	subcs.w	r3, r3, r1, lsr #1
 8000542:	ea40 005c 	orrcs.w	r0, r0, ip, lsr #1
 8000546:	ebb3 0f91 	cmp.w	r3, r1, lsr #2
 800054a:	bf24      	itt	cs
 800054c:	eba3 0391 	subcs.w	r3, r3, r1, lsr #2
 8000550:	ea40 009c 	orrcs.w	r0, r0, ip, lsr #2
 8000554:	ebb3 0fd1 	cmp.w	r3, r1, lsr #3
 8000558:	bf24      	itt	cs
 800055a:	eba3 03d1 	subcs.w	r3, r3, r1, lsr #3
 800055e:	ea40 00dc 	orrcs.w	r0, r0, ip, lsr #3
 8000562:	011b      	lsls	r3, r3, #4
 8000564:	bf18      	it	ne
 8000566:	ea5f 1c1c 	movsne.w	ip, ip, lsr #4
 800056a:	d1e0      	bne.n	800052e <__aeabi_fdiv+0x46>
 800056c:	2afd      	cmp	r2, #253	; 0xfd
 800056e:	f63f af50 	bhi.w	8000412 <__aeabi_fmul+0x92>
 8000572:	428b      	cmp	r3, r1
 8000574:	eb40 50c2 	adc.w	r0, r0, r2, lsl #23
 8000578:	bf08      	it	eq
 800057a:	f020 0001 	biceq.w	r0, r0, #1
 800057e:	4770      	bx	lr
 8000580:	f00c 4c00 	and.w	ip, ip, #2147483648	; 0x80000000
 8000584:	ea4c 2050 	orr.w	r0, ip, r0, lsr #9
 8000588:	327f      	adds	r2, #127	; 0x7f
 800058a:	bfc2      	ittt	gt
 800058c:	f1d2 03ff 	rsbsgt	r3, r2, #255	; 0xff
 8000590:	ea40 50c2 	orrgt.w	r0, r0, r2, lsl #23
 8000594:	4770      	bxgt	lr
 8000596:	f440 0000 	orr.w	r0, r0, #8388608	; 0x800000
 800059a:	f04f 0300 	mov.w	r3, #0
 800059e:	3a01      	subs	r2, #1
 80005a0:	e737      	b.n	8000412 <__aeabi_fmul+0x92>
 80005a2:	f092 0f00 	teq	r2, #0
 80005a6:	f000 4c00 	and.w	ip, r0, #2147483648	; 0x80000000
 80005aa:	bf02      	ittt	eq
 80005ac:	0040      	lsleq	r0, r0, #1
 80005ae:	f410 0f00 	tsteq.w	r0, #8388608	; 0x800000
 80005b2:	3a01      	subeq	r2, #1
 80005b4:	d0f9      	beq.n	80005aa <__aeabi_fdiv+0xc2>
 80005b6:	ea40 000c 	orr.w	r0, r0, ip
 80005ba:	f093 0f00 	teq	r3, #0
 80005be:	f001 4c00 	and.w	ip, r1, #2147483648	; 0x80000000
 80005c2:	bf02      	ittt	eq
 80005c4:	0049      	lsleq	r1, r1, #1
 80005c6:	f411 0f00 	tsteq.w	r1, #8388608	; 0x800000
 80005ca:	3b01      	subeq	r3, #1
 80005cc:	d0f9      	beq.n	80005c2 <__aeabi_fdiv+0xda>
 80005ce:	ea41 010c 	orr.w	r1, r1, ip
 80005d2:	e795      	b.n	8000500 <__aeabi_fdiv+0x18>
 80005d4:	ea0c 53d1 	and.w	r3, ip, r1, lsr #23
 80005d8:	ea92 0f0c 	teq	r2, ip
 80005dc:	d108      	bne.n	80005f0 <__aeabi_fdiv+0x108>
 80005de:	0242      	lsls	r2, r0, #9
 80005e0:	f47f af7d 	bne.w	80004de <__aeabi_fmul+0x15e>
 80005e4:	ea93 0f0c 	teq	r3, ip
 80005e8:	f47f af70 	bne.w	80004cc <__aeabi_fmul+0x14c>
 80005ec:	4608      	mov	r0, r1
 80005ee:	e776      	b.n	80004de <__aeabi_fmul+0x15e>
 80005f0:	ea93 0f0c 	teq	r3, ip
 80005f4:	d104      	bne.n	8000600 <__aeabi_fdiv+0x118>
 80005f6:	024b      	lsls	r3, r1, #9
 80005f8:	f43f af4c 	beq.w	8000494 <__aeabi_fmul+0x114>
 80005fc:	4608      	mov	r0, r1
 80005fe:	e76e      	b.n	80004de <__aeabi_fmul+0x15e>
 8000600:	f030 4c00 	bics.w	ip, r0, #2147483648	; 0x80000000
 8000604:	bf18      	it	ne
 8000606:	f031 4c00 	bicsne.w	ip, r1, #2147483648	; 0x80000000
 800060a:	d1ca      	bne.n	80005a2 <__aeabi_fdiv+0xba>
 800060c:	f030 4200 	bics.w	r2, r0, #2147483648	; 0x80000000
 8000610:	f47f af5c 	bne.w	80004cc <__aeabi_fmul+0x14c>
 8000614:	f031 4300 	bics.w	r3, r1, #2147483648	; 0x80000000
 8000618:	f47f af3c 	bne.w	8000494 <__aeabi_fmul+0x114>
 800061c:	e75f      	b.n	80004de <__aeabi_fmul+0x15e>
 800061e:	bf00      	nop

08000620 <__gesf2>:
 8000620:	f04f 3cff 	mov.w	ip, #4294967295
 8000624:	e006      	b.n	8000634 <__cmpsf2+0x4>
 8000626:	bf00      	nop

08000628 <__lesf2>:
 8000628:	f04f 0c01 	mov.w	ip, #1
 800062c:	e002      	b.n	8000634 <__cmpsf2+0x4>
 800062e:	bf00      	nop

08000630 <__cmpsf2>:
 8000630:	f04f 0c01 	mov.w	ip, #1
 8000634:	f84d cd04 	str.w	ip, [sp, #-4]!
 8000638:	ea4f 0240 	mov.w	r2, r0, lsl #1
 800063c:	ea4f 0341 	mov.w	r3, r1, lsl #1
 8000640:	ea7f 6c22 	mvns.w	ip, r2, asr #24
 8000644:	bf18      	it	ne
 8000646:	ea7f 6c23 	mvnsne.w	ip, r3, asr #24
 800064a:	d011      	beq.n	8000670 <__cmpsf2+0x40>
 800064c:	b001      	add	sp, #4
 800064e:	ea52 0c53 	orrs.w	ip, r2, r3, lsr #1
 8000652:	bf18      	it	ne
 8000654:	ea90 0f01 	teqne	r0, r1
 8000658:	bf58      	it	pl
 800065a:	ebb2 0003 	subspl.w	r0, r2, r3
 800065e:	bf88      	it	hi
 8000660:	17c8      	asrhi	r0, r1, #31
 8000662:	bf38      	it	cc
 8000664:	ea6f 70e1 	mvncc.w	r0, r1, asr #31
 8000668:	bf18      	it	ne
 800066a:	f040 0001 	orrne.w	r0, r0, #1
 800066e:	4770      	bx	lr
 8000670:	ea7f 6c22 	mvns.w	ip, r2, asr #24
 8000674:	d102      	bne.n	800067c <__cmpsf2+0x4c>
 8000676:	ea5f 2c40 	movs.w	ip, r0, lsl #9
 800067a:	d105      	bne.n	8000688 <__cmpsf2+0x58>
 800067c:	ea7f 6c23 	mvns.w	ip, r3, asr #24
 8000680:	d1e4      	bne.n	800064c <__cmpsf2+0x1c>
 8000682:	ea5f 2c41 	movs.w	ip, r1, lsl #9
 8000686:	d0e1      	beq.n	800064c <__cmpsf2+0x1c>
 8000688:	f85d 0b04 	ldr.w	r0, [sp], #4
 800068c:	4770      	bx	lr
 800068e:	bf00      	nop

08000690 <__aeabi_cfrcmple>:
 8000690:	4684      	mov	ip, r0
 8000692:	4608      	mov	r0, r1
 8000694:	4661      	mov	r1, ip
 8000696:	e7ff      	b.n	8000698 <__aeabi_cfcmpeq>

08000698 <__aeabi_cfcmpeq>:
 8000698:	b50f      	push	{r0, r1, r2, r3, lr}
 800069a:	f7ff ffc9 	bl	8000630 <__cmpsf2>
 800069e:	2800      	cmp	r0, #0
 80006a0:	bf48      	it	mi
 80006a2:	f110 0f00 	cmnmi.w	r0, #0
 80006a6:	bd0f      	pop	{r0, r1, r2, r3, pc}

080006a8 <__aeabi_fcmpeq>:
 80006a8:	f84d ed08 	str.w	lr, [sp, #-8]!
 80006ac:	f7ff fff4 	bl	8000698 <__aeabi_cfcmpeq>
 80006b0:	bf0c      	ite	eq
 80006b2:	2001      	moveq	r0, #1
 80006b4:	2000      	movne	r0, #0
 80006b6:	f85d fb08 	ldr.w	pc, [sp], #8
 80006ba:	bf00      	nop

080006bc <__aeabi_fcmplt>:
 80006bc:	f84d ed08 	str.w	lr, [sp, #-8]!
 80006c0:	f7ff ffea 	bl	8000698 <__aeabi_cfcmpeq>
 80006c4:	bf34      	ite	cc
 80006c6:	2001      	movcc	r0, #1
 80006c8:	2000      	movcs	r0, #0
 80006ca:	f85d fb08 	ldr.w	pc, [sp], #8
 80006ce:	bf00      	nop

080006d0 <__aeabi_fcmple>:
 80006d0:	f84d ed08 	str.w	lr, [sp, #-8]!
 80006d4:	f7ff ffe0 	bl	8000698 <__aeabi_cfcmpeq>
 80006d8:	bf94      	ite	ls
 80006da:	2001      	movls	r0, #1
 80006dc:	2000      	movhi	r0, #0
 80006de:	f85d fb08 	ldr.w	pc, [sp], #8
 80006e2:	bf00      	nop

080006e4 <__aeabi_fcmpge>:
 80006e4:	f84d ed08 	str.w	lr, [sp, #-8]!
 80006e8:	f7ff ffd2 	bl	8000690 <__aeabi_cfrcmple>
 80006ec:	bf94      	ite	ls
 80006ee:	2001      	movls	r0, #1
 80006f0:	2000      	movhi	r0, #0
 80006f2:	f85d fb08 	ldr.w	pc, [sp], #8
 80006f6:	bf00      	nop

080006f8 <__aeabi_fcmpgt>:
 80006f8:	f84d ed08 	str.w	lr, [sp, #-8]!
 80006fc:	f7ff ffc8 	bl	8000690 <__aeabi_cfrcmple>
 8000700:	bf34      	ite	cc
 8000702:	2001      	movcc	r0, #1
 8000704:	2000      	movcs	r0, #0
 8000706:	f85d fb08 	ldr.w	pc, [sp], #8
 800070a:	bf00      	nop

0800070c <selfrel_offset31>:
 800070c:	6803      	ldr	r3, [r0, #0]
 800070e:	005a      	lsls	r2, r3, #1
 8000710:	bf4c      	ite	mi
 8000712:	f043 4300 	orrmi.w	r3, r3, #2147483648	; 0x80000000
 8000716:	f023 4300 	bicpl.w	r3, r3, #2147483648	; 0x80000000
 800071a:	4418      	add	r0, r3
 800071c:	4770      	bx	lr
 800071e:	bf00      	nop

08000720 <search_EIT_table>:
 8000720:	b361      	cbz	r1, 800077c <search_EIT_table+0x5c>
 8000722:	e92d 4ff8 	stmdb	sp!, {r3, r4, r5, r6, r7, r8, r9, sl, fp, lr}
 8000726:	f101 3aff 	add.w	sl, r1, #4294967295
 800072a:	4690      	mov	r8, r2
 800072c:	4606      	mov	r6, r0
 800072e:	46d1      	mov	r9, sl
 8000730:	2700      	movs	r7, #0
 8000732:	eb07 0409 	add.w	r4, r7, r9
 8000736:	eb04 74d4 	add.w	r4, r4, r4, lsr #31
 800073a:	1064      	asrs	r4, r4, #1
 800073c:	00e5      	lsls	r5, r4, #3
 800073e:	1971      	adds	r1, r6, r5
 8000740:	4608      	mov	r0, r1
 8000742:	f7ff ffe3 	bl	800070c <selfrel_offset31>
 8000746:	45a2      	cmp	sl, r4
 8000748:	4683      	mov	fp, r0
 800074a:	f105 0008 	add.w	r0, r5, #8
 800074e:	4430      	add	r0, r6
 8000750:	d009      	beq.n	8000766 <search_EIT_table+0x46>
 8000752:	f7ff ffdb 	bl	800070c <selfrel_offset31>
 8000756:	45c3      	cmp	fp, r8
 8000758:	f100 30ff 	add.w	r0, r0, #4294967295
 800075c:	d805      	bhi.n	800076a <search_EIT_table+0x4a>
 800075e:	4540      	cmp	r0, r8
 8000760:	d209      	bcs.n	8000776 <search_EIT_table+0x56>
 8000762:	1c67      	adds	r7, r4, #1
 8000764:	e7e5      	b.n	8000732 <search_EIT_table+0x12>
 8000766:	45c3      	cmp	fp, r8
 8000768:	d905      	bls.n	8000776 <search_EIT_table+0x56>
 800076a:	42a7      	cmp	r7, r4
 800076c:	d002      	beq.n	8000774 <search_EIT_table+0x54>
 800076e:	f104 39ff 	add.w	r9, r4, #4294967295
 8000772:	e7de      	b.n	8000732 <search_EIT_table+0x12>
 8000774:	2100      	movs	r1, #0
 8000776:	4608      	mov	r0, r1
 8000778:	e8bd 8ff8 	ldmia.w	sp!, {r3, r4, r5, r6, r7, r8, r9, sl, fp, pc}
 800077c:	4608      	mov	r0, r1
 800077e:	4770      	bx	lr

08000780 <__gnu_unwind_get_pr_addr>:
 8000780:	2801      	cmp	r0, #1
 8000782:	d007      	beq.n	8000794 <__gnu_unwind_get_pr_addr+0x14>
 8000784:	2802      	cmp	r0, #2
 8000786:	d007      	beq.n	8000798 <__gnu_unwind_get_pr_addr+0x18>
 8000788:	4b04      	ldr	r3, [pc, #16]	; (800079c <__gnu_unwind_get_pr_addr+0x1c>)
 800078a:	2800      	cmp	r0, #0
 800078c:	bf0c      	ite	eq
 800078e:	4618      	moveq	r0, r3
 8000790:	2000      	movne	r0, #0
 8000792:	4770      	bx	lr
 8000794:	4802      	ldr	r0, [pc, #8]	; (80007a0 <__gnu_unwind_get_pr_addr+0x20>)
 8000796:	4770      	bx	lr
 8000798:	4802      	ldr	r0, [pc, #8]	; (80007a4 <__gnu_unwind_get_pr_addr+0x24>)
 800079a:	4770      	bx	lr
 800079c:	08000e91 	.word	0x08000e91
 80007a0:	08000e95 	.word	0x08000e95
 80007a4:	08000e99 	.word	0x08000e99

080007a8 <get_eit_entry>:
 80007a8:	b530      	push	{r4, r5, lr}
 80007aa:	4b25      	ldr	r3, [pc, #148]	; (8000840 <get_eit_entry+0x98>)
 80007ac:	b083      	sub	sp, #12
 80007ae:	4604      	mov	r4, r0
 80007b0:	1e8d      	subs	r5, r1, #2
 80007b2:	b373      	cbz	r3, 8000812 <get_eit_entry+0x6a>
 80007b4:	a901      	add	r1, sp, #4
 80007b6:	4628      	mov	r0, r5
 80007b8:	f3af 8000 	nop.w
 80007bc:	b318      	cbz	r0, 8000806 <get_eit_entry+0x5e>
 80007be:	9901      	ldr	r1, [sp, #4]
 80007c0:	462a      	mov	r2, r5
 80007c2:	f7ff ffad 	bl	8000720 <search_EIT_table>
 80007c6:	4601      	mov	r1, r0
 80007c8:	b1e8      	cbz	r0, 8000806 <get_eit_entry+0x5e>
 80007ca:	f7ff ff9f 	bl	800070c <selfrel_offset31>
 80007ce:	684b      	ldr	r3, [r1, #4]
 80007d0:	64a0      	str	r0, [r4, #72]	; 0x48
 80007d2:	2b01      	cmp	r3, #1
 80007d4:	d011      	beq.n	80007fa <get_eit_entry+0x52>
 80007d6:	2b00      	cmp	r3, #0
 80007d8:	db22      	blt.n	8000820 <get_eit_entry+0x78>
 80007da:	1d08      	adds	r0, r1, #4
 80007dc:	f7ff ff96 	bl	800070c <selfrel_offset31>
 80007e0:	2300      	movs	r3, #0
 80007e2:	64e0      	str	r0, [r4, #76]	; 0x4c
 80007e4:	6523      	str	r3, [r4, #80]	; 0x50
 80007e6:	6803      	ldr	r3, [r0, #0]
 80007e8:	2b00      	cmp	r3, #0
 80007ea:	db1e      	blt.n	800082a <get_eit_entry+0x82>
 80007ec:	f7ff ff8e 	bl	800070c <selfrel_offset31>
 80007f0:	2300      	movs	r3, #0
 80007f2:	6120      	str	r0, [r4, #16]
 80007f4:	4618      	mov	r0, r3
 80007f6:	b003      	add	sp, #12
 80007f8:	bd30      	pop	{r4, r5, pc}
 80007fa:	2305      	movs	r3, #5
 80007fc:	2200      	movs	r2, #0
 80007fe:	4618      	mov	r0, r3
 8000800:	6122      	str	r2, [r4, #16]
 8000802:	b003      	add	sp, #12
 8000804:	bd30      	pop	{r4, r5, pc}
 8000806:	2309      	movs	r3, #9
 8000808:	2200      	movs	r2, #0
 800080a:	4618      	mov	r0, r3
 800080c:	6122      	str	r2, [r4, #16]
 800080e:	b003      	add	sp, #12
 8000810:	bd30      	pop	{r4, r5, pc}
 8000812:	4b0c      	ldr	r3, [pc, #48]	; (8000844 <get_eit_entry+0x9c>)
 8000814:	490c      	ldr	r1, [pc, #48]	; (8000848 <get_eit_entry+0xa0>)
 8000816:	4618      	mov	r0, r3
 8000818:	1ac9      	subs	r1, r1, r3
 800081a:	10c9      	asrs	r1, r1, #3
 800081c:	9101      	str	r1, [sp, #4]
 800081e:	e7cf      	b.n	80007c0 <get_eit_entry+0x18>
 8000820:	2301      	movs	r3, #1
 8000822:	1d08      	adds	r0, r1, #4
 8000824:	64e0      	str	r0, [r4, #76]	; 0x4c
 8000826:	6523      	str	r3, [r4, #80]	; 0x50
 8000828:	e7dd      	b.n	80007e6 <get_eit_entry+0x3e>
 800082a:	f3c3 6003 	ubfx	r0, r3, #24, #4
 800082e:	f7ff ffa7 	bl	8000780 <__gnu_unwind_get_pr_addr>
 8000832:	2800      	cmp	r0, #0
 8000834:	6120      	str	r0, [r4, #16]
 8000836:	bf14      	ite	ne
 8000838:	2300      	movne	r3, #0
 800083a:	2309      	moveq	r3, #9
 800083c:	e7da      	b.n	80007f4 <get_eit_entry+0x4c>
 800083e:	bf00      	nop
 8000840:	00000000 	.word	0x00000000
 8000844:	08005b90 	.word	0x08005b90
 8000848:	08005d38 	.word	0x08005d38

0800084c <restore_non_core_regs>:
 800084c:	6803      	ldr	r3, [r0, #0]
 800084e:	b510      	push	{r4, lr}
 8000850:	07da      	lsls	r2, r3, #31
 8000852:	4604      	mov	r4, r0
 8000854:	d406      	bmi.n	8000864 <restore_non_core_regs+0x18>
 8000856:	079b      	lsls	r3, r3, #30
 8000858:	f100 0048 	add.w	r0, r0, #72	; 0x48
 800085c:	d509      	bpl.n	8000872 <restore_non_core_regs+0x26>
 800085e:	f000 fc57 	bl	8001110 <__gnu_Unwind_Restore_VFP_D>
 8000862:	6823      	ldr	r3, [r4, #0]
 8000864:	0759      	lsls	r1, r3, #29
 8000866:	d509      	bpl.n	800087c <restore_non_core_regs+0x30>
 8000868:	071a      	lsls	r2, r3, #28
 800086a:	d50e      	bpl.n	800088a <restore_non_core_regs+0x3e>
 800086c:	06db      	lsls	r3, r3, #27
 800086e:	d513      	bpl.n	8000898 <restore_non_core_regs+0x4c>
 8000870:	bd10      	pop	{r4, pc}
 8000872:	f000 fc45 	bl	8001100 <__gnu_Unwind_Restore_VFP>
 8000876:	6823      	ldr	r3, [r4, #0]
 8000878:	0759      	lsls	r1, r3, #29
 800087a:	d4f5      	bmi.n	8000868 <restore_non_core_regs+0x1c>
 800087c:	f104 00d0 	add.w	r0, r4, #208	; 0xd0
 8000880:	f000 fc4e 	bl	8001120 <__gnu_Unwind_Restore_VFP_D_16_to_31>
 8000884:	6823      	ldr	r3, [r4, #0]
 8000886:	071a      	lsls	r2, r3, #28
 8000888:	d4f0      	bmi.n	800086c <restore_non_core_regs+0x20>
 800088a:	f504 70a8 	add.w	r0, r4, #336	; 0x150
 800088e:	f000 fc4f 	bl	8001130 <__gnu_Unwind_Restore_WMMXD>
 8000892:	6823      	ldr	r3, [r4, #0]
 8000894:	06db      	lsls	r3, r3, #27
 8000896:	d4eb      	bmi.n	8000870 <restore_non_core_regs+0x24>
 8000898:	f504 70e8 	add.w	r0, r4, #464	; 0x1d0
 800089c:	e8bd 4010 	ldmia.w	sp!, {r4, lr}
 80008a0:	f000 bc8a 	b.w	80011b8 <__gnu_Unwind_Restore_WMMXC>

080008a4 <_Unwind_decode_typeinfo_ptr.isra.0>:
 80008a4:	6803      	ldr	r3, [r0, #0]
 80008a6:	b103      	cbz	r3, 80008aa <_Unwind_decode_typeinfo_ptr.isra.0+0x6>
 80008a8:	4403      	add	r3, r0
 80008aa:	4618      	mov	r0, r3
 80008ac:	4770      	bx	lr
 80008ae:	bf00      	nop

080008b0 <__gnu_unwind_24bit.isra.1>:
 80008b0:	2009      	movs	r0, #9
 80008b2:	4770      	bx	lr

080008b4 <_Unwind_DebugHook>:
 80008b4:	4770      	bx	lr
 80008b6:	bf00      	nop

080008b8 <unwind_phase2>:
 80008b8:	b570      	push	{r4, r5, r6, lr}
 80008ba:	4604      	mov	r4, r0
 80008bc:	460d      	mov	r5, r1
 80008be:	e008      	b.n	80008d2 <unwind_phase2+0x1a>
 80008c0:	6c2a      	ldr	r2, [r5, #64]	; 0x40
 80008c2:	6923      	ldr	r3, [r4, #16]
 80008c4:	6162      	str	r2, [r4, #20]
 80008c6:	4621      	mov	r1, r4
 80008c8:	462a      	mov	r2, r5
 80008ca:	2001      	movs	r0, #1
 80008cc:	4798      	blx	r3
 80008ce:	2808      	cmp	r0, #8
 80008d0:	d108      	bne.n	80008e4 <unwind_phase2+0x2c>
 80008d2:	6c29      	ldr	r1, [r5, #64]	; 0x40
 80008d4:	4620      	mov	r0, r4
 80008d6:	f7ff ff67 	bl	80007a8 <get_eit_entry>
 80008da:	4606      	mov	r6, r0
 80008dc:	2800      	cmp	r0, #0
 80008de:	d0ef      	beq.n	80008c0 <unwind_phase2+0x8>
 80008e0:	f004 fe8e 	bl	8005600 <abort>
 80008e4:	2807      	cmp	r0, #7
 80008e6:	d1fb      	bne.n	80008e0 <unwind_phase2+0x28>
 80008e8:	4630      	mov	r0, r6
 80008ea:	6c29      	ldr	r1, [r5, #64]	; 0x40
 80008ec:	f7ff ffe2 	bl	80008b4 <_Unwind_DebugHook>
 80008f0:	1d28      	adds	r0, r5, #4
 80008f2:	f000 fbf9 	bl	80010e8 <__restore_core_regs>
 80008f6:	bf00      	nop

080008f8 <unwind_phase2_forced>:
 80008f8:	e92d 47f0 	stmdb	sp!, {r4, r5, r6, r7, r8, r9, sl, lr}
 80008fc:	4605      	mov	r5, r0
 80008fe:	2700      	movs	r7, #0
 8000900:	f5ad 7d72 	sub.w	sp, sp, #968	; 0x3c8
 8000904:	ac03      	add	r4, sp, #12
 8000906:	1d0e      	adds	r6, r1, #4
 8000908:	4692      	mov	sl, r2
 800090a:	ce0f      	ldmia	r6!, {r0, r1, r2, r3}
 800090c:	c40f      	stmia	r4!, {r0, r1, r2, r3}
 800090e:	ce0f      	ldmia	r6!, {r0, r1, r2, r3}
 8000910:	c40f      	stmia	r4!, {r0, r1, r2, r3}
 8000912:	ce0f      	ldmia	r6!, {r0, r1, r2, r3}
 8000914:	c40f      	stmia	r4!, {r0, r1, r2, r3}
 8000916:	e896 000f 	ldmia.w	r6, {r0, r1, r2, r3}
 800091a:	f8d5 800c 	ldr.w	r8, [r5, #12]
 800091e:	f8d5 9018 	ldr.w	r9, [r5, #24]
 8000922:	e884 000f 	stmia.w	r4, {r0, r1, r2, r3}
 8000926:	ac02      	add	r4, sp, #8
 8000928:	4628      	mov	r0, r5
 800092a:	6c21      	ldr	r1, [r4, #64]	; 0x40
 800092c:	6027      	str	r7, [r4, #0]
 800092e:	f7ff ff3b 	bl	80007a8 <get_eit_entry>
 8000932:	f1ba 0f00 	cmp.w	sl, #0
 8000936:	4607      	mov	r7, r0
 8000938:	bf14      	ite	ne
 800093a:	260a      	movne	r6, #10
 800093c:	2609      	moveq	r6, #9
 800093e:	b17f      	cbz	r7, 8000960 <unwind_phase2_forced+0x68>
 8000940:	6ba3      	ldr	r3, [r4, #56]	; 0x38
 8000942:	f046 0110 	orr.w	r1, r6, #16
 8000946:	e88d 0210 	stmia.w	sp, {r4, r9}
 800094a:	462a      	mov	r2, r5
 800094c:	6463      	str	r3, [r4, #68]	; 0x44
 800094e:	2001      	movs	r0, #1
 8000950:	462b      	mov	r3, r5
 8000952:	47c0      	blx	r8
 8000954:	bb78      	cbnz	r0, 80009b6 <unwind_phase2_forced+0xbe>
 8000956:	4638      	mov	r0, r7
 8000958:	f50d 7d72 	add.w	sp, sp, #968	; 0x3c8
 800095c:	e8bd 87f0 	ldmia.w	sp!, {r4, r5, r6, r7, r8, r9, sl, pc}
 8000960:	6c23      	ldr	r3, [r4, #64]	; 0x40
 8000962:	f44f 72f0 	mov.w	r2, #480	; 0x1e0
 8000966:	616b      	str	r3, [r5, #20]
 8000968:	4621      	mov	r1, r4
 800096a:	a87a      	add	r0, sp, #488	; 0x1e8
 800096c:	f004 fe90 	bl	8005690 <memcpy>
 8000970:	692b      	ldr	r3, [r5, #16]
 8000972:	aa7a      	add	r2, sp, #488	; 0x1e8
 8000974:	4629      	mov	r1, r5
 8000976:	4630      	mov	r0, r6
 8000978:	4798      	blx	r3
 800097a:	9b88      	ldr	r3, [sp, #544]	; 0x220
 800097c:	4682      	mov	sl, r0
 800097e:	e88d 0210 	stmia.w	sp, {r4, r9}
 8000982:	4631      	mov	r1, r6
 8000984:	6463      	str	r3, [r4, #68]	; 0x44
 8000986:	462a      	mov	r2, r5
 8000988:	462b      	mov	r3, r5
 800098a:	2001      	movs	r0, #1
 800098c:	47c0      	blx	r8
 800098e:	b990      	cbnz	r0, 80009b6 <unwind_phase2_forced+0xbe>
 8000990:	f44f 72f0 	mov.w	r2, #480	; 0x1e0
 8000994:	a97a      	add	r1, sp, #488	; 0x1e8
 8000996:	4620      	mov	r0, r4
 8000998:	f004 fe7a 	bl	8005690 <memcpy>
 800099c:	f1ba 0f08 	cmp.w	sl, #8
 80009a0:	d106      	bne.n	80009b0 <unwind_phase2_forced+0xb8>
 80009a2:	6c21      	ldr	r1, [r4, #64]	; 0x40
 80009a4:	4628      	mov	r0, r5
 80009a6:	f7ff feff 	bl	80007a8 <get_eit_entry>
 80009aa:	2609      	movs	r6, #9
 80009ac:	4607      	mov	r7, r0
 80009ae:	e7c6      	b.n	800093e <unwind_phase2_forced+0x46>
 80009b0:	f1ba 0f07 	cmp.w	sl, #7
 80009b4:	d005      	beq.n	80009c2 <unwind_phase2_forced+0xca>
 80009b6:	2709      	movs	r7, #9
 80009b8:	4638      	mov	r0, r7
 80009ba:	f50d 7d72 	add.w	sp, sp, #968	; 0x3c8
 80009be:	e8bd 87f0 	ldmia.w	sp!, {r4, r5, r6, r7, r8, r9, sl, pc}
 80009c2:	4638      	mov	r0, r7
 80009c4:	6c21      	ldr	r1, [r4, #64]	; 0x40
 80009c6:	f7ff ff75 	bl	80008b4 <_Unwind_DebugHook>
 80009ca:	a803      	add	r0, sp, #12
 80009cc:	f000 fb8c 	bl	80010e8 <__restore_core_regs>

080009d0 <_Unwind_GetCFA>:
 80009d0:	6c40      	ldr	r0, [r0, #68]	; 0x44
 80009d2:	4770      	bx	lr

080009d4 <__gnu_Unwind_RaiseException>:
 80009d4:	b5f0      	push	{r4, r5, r6, r7, lr}
 80009d6:	f04f 3eff 	mov.w	lr, #4294967295
 80009da:	6bcb      	ldr	r3, [r1, #60]	; 0x3c
 80009dc:	b0f9      	sub	sp, #484	; 0x1e4
 80009de:	640b      	str	r3, [r1, #64]	; 0x40
 80009e0:	1d0e      	adds	r6, r1, #4
 80009e2:	ad01      	add	r5, sp, #4
 80009e4:	460f      	mov	r7, r1
 80009e6:	4604      	mov	r4, r0
 80009e8:	ce0f      	ldmia	r6!, {r0, r1, r2, r3}
 80009ea:	c50f      	stmia	r5!, {r0, r1, r2, r3}
 80009ec:	ce0f      	ldmia	r6!, {r0, r1, r2, r3}
 80009ee:	c50f      	stmia	r5!, {r0, r1, r2, r3}
 80009f0:	ce0f      	ldmia	r6!, {r0, r1, r2, r3}
 80009f2:	c50f      	stmia	r5!, {r0, r1, r2, r3}
 80009f4:	e896 000f 	ldmia.w	r6, {r0, r1, r2, r3}
 80009f8:	e885 000f 	stmia.w	r5, {r0, r1, r2, r3}
 80009fc:	f8cd e000 	str.w	lr, [sp]
 8000a00:	e006      	b.n	8000a10 <__gnu_Unwind_RaiseException+0x3c>
 8000a02:	6923      	ldr	r3, [r4, #16]
 8000a04:	466a      	mov	r2, sp
 8000a06:	4621      	mov	r1, r4
 8000a08:	4798      	blx	r3
 8000a0a:	2808      	cmp	r0, #8
 8000a0c:	4605      	mov	r5, r0
 8000a0e:	d108      	bne.n	8000a22 <__gnu_Unwind_RaiseException+0x4e>
 8000a10:	9910      	ldr	r1, [sp, #64]	; 0x40
 8000a12:	4620      	mov	r0, r4
 8000a14:	f7ff fec8 	bl	80007a8 <get_eit_entry>
 8000a18:	2800      	cmp	r0, #0
 8000a1a:	d0f2      	beq.n	8000a02 <__gnu_Unwind_RaiseException+0x2e>
 8000a1c:	2009      	movs	r0, #9
 8000a1e:	b079      	add	sp, #484	; 0x1e4
 8000a20:	bdf0      	pop	{r4, r5, r6, r7, pc}
 8000a22:	4668      	mov	r0, sp
 8000a24:	f7ff ff12 	bl	800084c <restore_non_core_regs>
 8000a28:	2d06      	cmp	r5, #6
 8000a2a:	d1f7      	bne.n	8000a1c <__gnu_Unwind_RaiseException+0x48>
 8000a2c:	4639      	mov	r1, r7
 8000a2e:	4620      	mov	r0, r4
 8000a30:	f7ff ff42 	bl	80008b8 <unwind_phase2>

08000a34 <__gnu_Unwind_ForcedUnwind>:
 8000a34:	b430      	push	{r4, r5}
 8000a36:	6bdd      	ldr	r5, [r3, #60]	; 0x3c
 8000a38:	60c1      	str	r1, [r0, #12]
 8000a3a:	6182      	str	r2, [r0, #24]
 8000a3c:	4619      	mov	r1, r3
 8000a3e:	641d      	str	r5, [r3, #64]	; 0x40
 8000a40:	2200      	movs	r2, #0
 8000a42:	bc30      	pop	{r4, r5}
 8000a44:	e758      	b.n	80008f8 <unwind_phase2_forced>
 8000a46:	bf00      	nop

08000a48 <__gnu_Unwind_Resume>:
 8000a48:	b570      	push	{r4, r5, r6, lr}
 8000a4a:	6943      	ldr	r3, [r0, #20]
 8000a4c:	68c6      	ldr	r6, [r0, #12]
 8000a4e:	640b      	str	r3, [r1, #64]	; 0x40
 8000a50:	b126      	cbz	r6, 8000a5c <__gnu_Unwind_Resume+0x14>
 8000a52:	2201      	movs	r2, #1
 8000a54:	f7ff ff50 	bl	80008f8 <unwind_phase2_forced>
 8000a58:	f004 fdd2 	bl	8005600 <abort>
 8000a5c:	6903      	ldr	r3, [r0, #16]
 8000a5e:	460a      	mov	r2, r1
 8000a60:	4604      	mov	r4, r0
 8000a62:	460d      	mov	r5, r1
 8000a64:	4601      	mov	r1, r0
 8000a66:	2002      	movs	r0, #2
 8000a68:	4798      	blx	r3
 8000a6a:	2807      	cmp	r0, #7
 8000a6c:	d007      	beq.n	8000a7e <__gnu_Unwind_Resume+0x36>
 8000a6e:	2808      	cmp	r0, #8
 8000a70:	d103      	bne.n	8000a7a <__gnu_Unwind_Resume+0x32>
 8000a72:	4629      	mov	r1, r5
 8000a74:	4620      	mov	r0, r4
 8000a76:	f7ff ff1f 	bl	80008b8 <unwind_phase2>
 8000a7a:	f004 fdc1 	bl	8005600 <abort>
 8000a7e:	4630      	mov	r0, r6
 8000a80:	6c29      	ldr	r1, [r5, #64]	; 0x40
 8000a82:	f7ff ff17 	bl	80008b4 <_Unwind_DebugHook>
 8000a86:	1d28      	adds	r0, r5, #4
 8000a88:	f000 fb2e 	bl	80010e8 <__restore_core_regs>

08000a8c <__gnu_Unwind_Resume_or_Rethrow>:
 8000a8c:	68c2      	ldr	r2, [r0, #12]
 8000a8e:	b12a      	cbz	r2, 8000a9c <__gnu_Unwind_Resume_or_Rethrow+0x10>
 8000a90:	b410      	push	{r4}
 8000a92:	6bcc      	ldr	r4, [r1, #60]	; 0x3c
 8000a94:	2200      	movs	r2, #0
 8000a96:	640c      	str	r4, [r1, #64]	; 0x40
 8000a98:	bc10      	pop	{r4}
 8000a9a:	e72d      	b.n	80008f8 <unwind_phase2_forced>
 8000a9c:	e79a      	b.n	80009d4 <__gnu_Unwind_RaiseException>
 8000a9e:	bf00      	nop

08000aa0 <_Unwind_Complete>:
 8000aa0:	4770      	bx	lr
 8000aa2:	bf00      	nop

08000aa4 <_Unwind_DeleteException>:
 8000aa4:	6883      	ldr	r3, [r0, #8]
 8000aa6:	b113      	cbz	r3, 8000aae <_Unwind_DeleteException+0xa>
 8000aa8:	4601      	mov	r1, r0
 8000aaa:	2001      	movs	r0, #1
 8000aac:	4718      	bx	r3
 8000aae:	4770      	bx	lr

08000ab0 <_Unwind_VRS_Get>:
 8000ab0:	b500      	push	{lr}
 8000ab2:	2904      	cmp	r1, #4
 8000ab4:	d807      	bhi.n	8000ac6 <_Unwind_VRS_Get+0x16>
 8000ab6:	e8df f001 	tbb	[pc, r1]
 8000aba:	0903      	.short	0x0903
 8000abc:	0906      	.short	0x0906
 8000abe:	09          	.byte	0x09
 8000abf:	00          	.byte	0x00
 8000ac0:	b90b      	cbnz	r3, 8000ac6 <_Unwind_VRS_Get+0x16>
 8000ac2:	2a0f      	cmp	r2, #15
 8000ac4:	d905      	bls.n	8000ad2 <_Unwind_VRS_Get+0x22>
 8000ac6:	2002      	movs	r0, #2
 8000ac8:	f85d fb04 	ldr.w	pc, [sp], #4
 8000acc:	2001      	movs	r0, #1
 8000ace:	f85d fb04 	ldr.w	pc, [sp], #4
 8000ad2:	eb00 0282 	add.w	r2, r0, r2, lsl #2
 8000ad6:	6852      	ldr	r2, [r2, #4]
 8000ad8:	4618      	mov	r0, r3
 8000ada:	9b01      	ldr	r3, [sp, #4]
 8000adc:	601a      	str	r2, [r3, #0]
 8000ade:	f85d fb04 	ldr.w	pc, [sp], #4
 8000ae2:	bf00      	nop

08000ae4 <_Unwind_GetGR>:
 8000ae4:	2300      	movs	r3, #0
 8000ae6:	b510      	push	{r4, lr}
 8000ae8:	b084      	sub	sp, #16
 8000aea:	ac03      	add	r4, sp, #12
 8000aec:	460a      	mov	r2, r1
 8000aee:	9400      	str	r4, [sp, #0]
 8000af0:	4619      	mov	r1, r3
 8000af2:	f7ff ffdd 	bl	8000ab0 <_Unwind_VRS_Get>
 8000af6:	9803      	ldr	r0, [sp, #12]
 8000af8:	b004      	add	sp, #16
 8000afa:	bd10      	pop	{r4, pc}

08000afc <_Unwind_VRS_Set>:
 8000afc:	b500      	push	{lr}
 8000afe:	2904      	cmp	r1, #4
 8000b00:	d807      	bhi.n	8000b12 <_Unwind_VRS_Set+0x16>
 8000b02:	e8df f001 	tbb	[pc, r1]
 8000b06:	0903      	.short	0x0903
 8000b08:	0906      	.short	0x0906
 8000b0a:	09          	.byte	0x09
 8000b0b:	00          	.byte	0x00
 8000b0c:	b90b      	cbnz	r3, 8000b12 <_Unwind_VRS_Set+0x16>
 8000b0e:	2a0f      	cmp	r2, #15
 8000b10:	d905      	bls.n	8000b1e <_Unwind_VRS_Set+0x22>
 8000b12:	2002      	movs	r0, #2
 8000b14:	f85d fb04 	ldr.w	pc, [sp], #4
 8000b18:	2001      	movs	r0, #1
 8000b1a:	f85d fb04 	ldr.w	pc, [sp], #4
 8000b1e:	9901      	ldr	r1, [sp, #4]
 8000b20:	eb00 0282 	add.w	r2, r0, r2, lsl #2
 8000b24:	6809      	ldr	r1, [r1, #0]
 8000b26:	4618      	mov	r0, r3
 8000b28:	6051      	str	r1, [r2, #4]
 8000b2a:	f85d fb04 	ldr.w	pc, [sp], #4
 8000b2e:	bf00      	nop

08000b30 <_Unwind_SetGR>:
 8000b30:	2300      	movs	r3, #0
 8000b32:	b510      	push	{r4, lr}
 8000b34:	b084      	sub	sp, #16
 8000b36:	ac04      	add	r4, sp, #16
 8000b38:	f844 2d04 	str.w	r2, [r4, #-4]!
 8000b3c:	9400      	str	r4, [sp, #0]
 8000b3e:	460a      	mov	r2, r1
 8000b40:	4619      	mov	r1, r3
 8000b42:	f7ff ffdb 	bl	8000afc <_Unwind_VRS_Set>
 8000b46:	b004      	add	sp, #16
 8000b48:	bd10      	pop	{r4, pc}
 8000b4a:	bf00      	nop

08000b4c <__gnu_Unwind_Backtrace>:
 8000b4c:	b5f0      	push	{r4, r5, r6, r7, lr}
 8000b4e:	f04f 3eff 	mov.w	lr, #4294967295
 8000b52:	6bd3      	ldr	r3, [r2, #60]	; 0x3c
 8000b54:	f5ad 7d0f 	sub.w	sp, sp, #572	; 0x23c
 8000b58:	6413      	str	r3, [r2, #64]	; 0x40
 8000b5a:	1d15      	adds	r5, r2, #4
 8000b5c:	ac17      	add	r4, sp, #92	; 0x5c
 8000b5e:	4607      	mov	r7, r0
 8000b60:	460e      	mov	r6, r1
 8000b62:	cd0f      	ldmia	r5!, {r0, r1, r2, r3}
 8000b64:	c40f      	stmia	r4!, {r0, r1, r2, r3}
 8000b66:	cd0f      	ldmia	r5!, {r0, r1, r2, r3}
 8000b68:	c40f      	stmia	r4!, {r0, r1, r2, r3}
 8000b6a:	cd0f      	ldmia	r5!, {r0, r1, r2, r3}
 8000b6c:	c40f      	stmia	r4!, {r0, r1, r2, r3}
 8000b6e:	e895 000f 	ldmia.w	r5, {r0, r1, r2, r3}
 8000b72:	e884 000f 	stmia.w	r4, {r0, r1, r2, r3}
 8000b76:	f8cd e058 	str.w	lr, [sp, #88]	; 0x58
 8000b7a:	e012      	b.n	8000ba2 <__gnu_Unwind_Backtrace+0x56>
 8000b7c:	210c      	movs	r1, #12
 8000b7e:	a816      	add	r0, sp, #88	; 0x58
 8000b80:	466a      	mov	r2, sp
 8000b82:	f7ff ffd5 	bl	8000b30 <_Unwind_SetGR>
 8000b86:	4631      	mov	r1, r6
 8000b88:	a816      	add	r0, sp, #88	; 0x58
 8000b8a:	47b8      	blx	r7
 8000b8c:	b978      	cbnz	r0, 8000bae <__gnu_Unwind_Backtrace+0x62>
 8000b8e:	9b04      	ldr	r3, [sp, #16]
 8000b90:	aa16      	add	r2, sp, #88	; 0x58
 8000b92:	4669      	mov	r1, sp
 8000b94:	2008      	movs	r0, #8
 8000b96:	4798      	blx	r3
 8000b98:	2805      	cmp	r0, #5
 8000b9a:	4604      	mov	r4, r0
 8000b9c:	d008      	beq.n	8000bb0 <__gnu_Unwind_Backtrace+0x64>
 8000b9e:	2809      	cmp	r0, #9
 8000ba0:	d005      	beq.n	8000bae <__gnu_Unwind_Backtrace+0x62>
 8000ba2:	9926      	ldr	r1, [sp, #152]	; 0x98
 8000ba4:	4668      	mov	r0, sp
 8000ba6:	f7ff fdff 	bl	80007a8 <get_eit_entry>
 8000baa:	2800      	cmp	r0, #0
 8000bac:	d0e6      	beq.n	8000b7c <__gnu_Unwind_Backtrace+0x30>
 8000bae:	2409      	movs	r4, #9
 8000bb0:	a816      	add	r0, sp, #88	; 0x58
 8000bb2:	f7ff fe4b 	bl	800084c <restore_non_core_regs>
 8000bb6:	4620      	mov	r0, r4
 8000bb8:	f50d 7d0f 	add.w	sp, sp, #572	; 0x23c
 8000bbc:	bdf0      	pop	{r4, r5, r6, r7, pc}
 8000bbe:	bf00      	nop

08000bc0 <__gnu_unwind_pr_common>:
 8000bc0:	e92d 4ff0 	stmdb	sp!, {r4, r5, r6, r7, r8, r9, sl, fp, lr}
 8000bc4:	6ccc      	ldr	r4, [r1, #76]	; 0x4c
 8000bc6:	4691      	mov	r9, r2
 8000bc8:	6822      	ldr	r2, [r4, #0]
 8000bca:	b08b      	sub	sp, #44	; 0x2c
 8000bcc:	3404      	adds	r4, #4
 8000bce:	460d      	mov	r5, r1
 8000bd0:	9207      	str	r2, [sp, #28]
 8000bd2:	9408      	str	r4, [sp, #32]
 8000bd4:	f000 0b03 	and.w	fp, r0, #3
 8000bd8:	461e      	mov	r6, r3
 8000bda:	2b00      	cmp	r3, #0
 8000bdc:	d160      	bne.n	8000ca0 <__gnu_unwind_pr_common+0xe0>
 8000bde:	2303      	movs	r3, #3
 8000be0:	0212      	lsls	r2, r2, #8
 8000be2:	9207      	str	r2, [sp, #28]
 8000be4:	f88d 6025 	strb.w	r6, [sp, #37]	; 0x25
 8000be8:	f88d 3024 	strb.w	r3, [sp, #36]	; 0x24
 8000bec:	6d2b      	ldr	r3, [r5, #80]	; 0x50
 8000bee:	f1bb 0f02 	cmp.w	fp, #2
 8000bf2:	bf08      	it	eq
 8000bf4:	6bac      	ldreq	r4, [r5, #56]	; 0x38
 8000bf6:	f013 0301 	ands.w	r3, r3, #1
 8000bfa:	d140      	bne.n	8000c7e <__gnu_unwind_pr_common+0xbe>
 8000bfc:	9301      	str	r3, [sp, #4]
 8000bfe:	f000 0308 	and.w	r3, r0, #8
 8000c02:	9303      	str	r3, [sp, #12]
 8000c04:	f8d4 8000 	ldr.w	r8, [r4]
 8000c08:	f1b8 0f00 	cmp.w	r8, #0
 8000c0c:	d039      	beq.n	8000c82 <__gnu_unwind_pr_common+0xc2>
 8000c0e:	2e02      	cmp	r6, #2
 8000c10:	d043      	beq.n	8000c9a <__gnu_unwind_pr_common+0xda>
 8000c12:	f8b4 8000 	ldrh.w	r8, [r4]
 8000c16:	8867      	ldrh	r7, [r4, #2]
 8000c18:	3404      	adds	r4, #4
 8000c1a:	6cab      	ldr	r3, [r5, #72]	; 0x48
 8000c1c:	f027 0a01 	bic.w	sl, r7, #1
 8000c20:	210f      	movs	r1, #15
 8000c22:	4648      	mov	r0, r9
 8000c24:	449a      	add	sl, r3
 8000c26:	f7ff ff5d 	bl	8000ae4 <_Unwind_GetGR>
 8000c2a:	4582      	cmp	sl, r0
 8000c2c:	d833      	bhi.n	8000c96 <__gnu_unwind_pr_common+0xd6>
 8000c2e:	f028 0301 	bic.w	r3, r8, #1
 8000c32:	449a      	add	sl, r3
 8000c34:	4550      	cmp	r0, sl
 8000c36:	bf2c      	ite	cs
 8000c38:	2000      	movcs	r0, #0
 8000c3a:	2001      	movcc	r0, #1
 8000c3c:	007f      	lsls	r7, r7, #1
 8000c3e:	f007 0702 	and.w	r7, r7, #2
 8000c42:	f008 0801 	and.w	r8, r8, #1
 8000c46:	ea47 0708 	orr.w	r7, r7, r8
 8000c4a:	2f01      	cmp	r7, #1
 8000c4c:	d03e      	beq.n	8000ccc <__gnu_unwind_pr_common+0x10c>
 8000c4e:	d335      	bcc.n	8000cbc <__gnu_unwind_pr_common+0xfc>
 8000c50:	2f02      	cmp	r7, #2
 8000c52:	d11c      	bne.n	8000c8e <__gnu_unwind_pr_common+0xce>
 8000c54:	6823      	ldr	r3, [r4, #0]
 8000c56:	f023 4200 	bic.w	r2, r3, #2147483648	; 0x80000000
 8000c5a:	9202      	str	r2, [sp, #8]
 8000c5c:	f1bb 0f00 	cmp.w	fp, #0
 8000c60:	d176      	bne.n	8000d50 <__gnu_unwind_pr_common+0x190>
 8000c62:	b128      	cbz	r0, 8000c70 <__gnu_unwind_pr_common+0xb0>
 8000c64:	9903      	ldr	r1, [sp, #12]
 8000c66:	2900      	cmp	r1, #0
 8000c68:	d07e      	beq.n	8000d68 <__gnu_unwind_pr_common+0x1a8>
 8000c6a:	2a00      	cmp	r2, #0
 8000c6c:	f000 80a6 	beq.w	8000dbc <__gnu_unwind_pr_common+0x1fc>
 8000c70:	2b00      	cmp	r3, #0
 8000c72:	db77      	blt.n	8000d64 <__gnu_unwind_pr_common+0x1a4>
 8000c74:	9b02      	ldr	r3, [sp, #8]
 8000c76:	3301      	adds	r3, #1
 8000c78:	eb04 0483 	add.w	r4, r4, r3, lsl #2
 8000c7c:	e7c2      	b.n	8000c04 <__gnu_unwind_pr_common+0x44>
 8000c7e:	2300      	movs	r3, #0
 8000c80:	9301      	str	r3, [sp, #4]
 8000c82:	2e02      	cmp	r6, #2
 8000c84:	dd3e      	ble.n	8000d04 <__gnu_unwind_pr_common+0x144>
 8000c86:	f7ff fe13 	bl	80008b0 <__gnu_unwind_24bit.isra.1>
 8000c8a:	2800      	cmp	r0, #0
 8000c8c:	d040      	beq.n	8000d10 <__gnu_unwind_pr_common+0x150>
 8000c8e:	2009      	movs	r0, #9
 8000c90:	b00b      	add	sp, #44	; 0x2c
 8000c92:	e8bd 8ff0 	ldmia.w	sp!, {r4, r5, r6, r7, r8, r9, sl, fp, pc}
 8000c96:	2000      	movs	r0, #0
 8000c98:	e7d0      	b.n	8000c3c <__gnu_unwind_pr_common+0x7c>
 8000c9a:	6867      	ldr	r7, [r4, #4]
 8000c9c:	3408      	adds	r4, #8
 8000c9e:	e7bc      	b.n	8000c1a <__gnu_unwind_pr_common+0x5a>
 8000ca0:	2b02      	cmp	r3, #2
 8000ca2:	dca3      	bgt.n	8000bec <__gnu_unwind_pr_common+0x2c>
 8000ca4:	2102      	movs	r1, #2
 8000ca6:	0c13      	lsrs	r3, r2, #16
 8000ca8:	f88d 3025 	strb.w	r3, [sp, #37]	; 0x25
 8000cac:	0412      	lsls	r2, r2, #16
 8000cae:	b2db      	uxtb	r3, r3
 8000cb0:	eb04 0483 	add.w	r4, r4, r3, lsl #2
 8000cb4:	9207      	str	r2, [sp, #28]
 8000cb6:	f88d 1024 	strb.w	r1, [sp, #36]	; 0x24
 8000cba:	e797      	b.n	8000bec <__gnu_unwind_pr_common+0x2c>
 8000cbc:	f1bb 0f00 	cmp.w	fp, #0
 8000cc0:	d002      	beq.n	8000cc8 <__gnu_unwind_pr_common+0x108>
 8000cc2:	2800      	cmp	r0, #0
 8000cc4:	f040 80bd 	bne.w	8000e42 <__gnu_unwind_pr_common+0x282>
 8000cc8:	3404      	adds	r4, #4
 8000cca:	e79b      	b.n	8000c04 <__gnu_unwind_pr_common+0x44>
 8000ccc:	f1bb 0f00 	cmp.w	fp, #0
 8000cd0:	d125      	bne.n	8000d1e <__gnu_unwind_pr_common+0x15e>
 8000cd2:	b1a8      	cbz	r0, 8000d00 <__gnu_unwind_pr_common+0x140>
 8000cd4:	e894 000c 	ldmia.w	r4, {r2, r3}
 8000cd8:	1c99      	adds	r1, r3, #2
 8000cda:	ea4f 72d2 	mov.w	r2, r2, lsr #31
 8000cde:	d0d6      	beq.n	8000c8e <__gnu_unwind_pr_common+0xce>
 8000ce0:	f105 0158 	add.w	r1, r5, #88	; 0x58
 8000ce4:	3301      	adds	r3, #1
 8000ce6:	9106      	str	r1, [sp, #24]
 8000ce8:	f000 80a3 	beq.w	8000e32 <__gnu_unwind_pr_common+0x272>
 8000cec:	1d20      	adds	r0, r4, #4
 8000cee:	f7ff fdd9 	bl	80008a4 <_Unwind_decode_typeinfo_ptr.isra.0>
 8000cf2:	ab06      	add	r3, sp, #24
 8000cf4:	4601      	mov	r1, r0
 8000cf6:	4628      	mov	r0, r5
 8000cf8:	f004 f820 	bl	8004d3c <__cxa_type_match>
 8000cfc:	2800      	cmp	r0, #0
 8000cfe:	d177      	bne.n	8000df0 <__gnu_unwind_pr_common+0x230>
 8000d00:	3408      	adds	r4, #8
 8000d02:	e77f      	b.n	8000c04 <__gnu_unwind_pr_common+0x44>
 8000d04:	a907      	add	r1, sp, #28
 8000d06:	4648      	mov	r0, r9
 8000d08:	f000 faf0 	bl	80012ec <__gnu_unwind_execute>
 8000d0c:	2800      	cmp	r0, #0
 8000d0e:	d1be      	bne.n	8000c8e <__gnu_unwind_pr_common+0xce>
 8000d10:	9b01      	ldr	r3, [sp, #4]
 8000d12:	2b00      	cmp	r3, #0
 8000d14:	d15c      	bne.n	8000dd0 <__gnu_unwind_pr_common+0x210>
 8000d16:	2008      	movs	r0, #8
 8000d18:	b00b      	add	sp, #44	; 0x2c
 8000d1a:	e8bd 8ff0 	ldmia.w	sp!, {r4, r5, r6, r7, r8, r9, sl, fp, pc}
 8000d1e:	210d      	movs	r1, #13
 8000d20:	4648      	mov	r0, r9
 8000d22:	6a2f      	ldr	r7, [r5, #32]
 8000d24:	f7ff fede 	bl	8000ae4 <_Unwind_GetGR>
 8000d28:	4287      	cmp	r7, r0
 8000d2a:	d1e9      	bne.n	8000d00 <__gnu_unwind_pr_common+0x140>
 8000d2c:	6aab      	ldr	r3, [r5, #40]	; 0x28
 8000d2e:	429c      	cmp	r4, r3
 8000d30:	d1e6      	bne.n	8000d00 <__gnu_unwind_pr_common+0x140>
 8000d32:	4620      	mov	r0, r4
 8000d34:	f7ff fcea 	bl	800070c <selfrel_offset31>
 8000d38:	210f      	movs	r1, #15
 8000d3a:	4602      	mov	r2, r0
 8000d3c:	4648      	mov	r0, r9
 8000d3e:	f7ff fef7 	bl	8000b30 <_Unwind_SetGR>
 8000d42:	4648      	mov	r0, r9
 8000d44:	462a      	mov	r2, r5
 8000d46:	2100      	movs	r1, #0
 8000d48:	f7ff fef2 	bl	8000b30 <_Unwind_SetGR>
 8000d4c:	2007      	movs	r0, #7
 8000d4e:	e79f      	b.n	8000c90 <__gnu_unwind_pr_common+0xd0>
 8000d50:	210d      	movs	r1, #13
 8000d52:	4648      	mov	r0, r9
 8000d54:	6a2f      	ldr	r7, [r5, #32]
 8000d56:	f7ff fec5 	bl	8000ae4 <_Unwind_GetGR>
 8000d5a:	4287      	cmp	r7, r0
 8000d5c:	d058      	beq.n	8000e10 <__gnu_unwind_pr_common+0x250>
 8000d5e:	6823      	ldr	r3, [r4, #0]
 8000d60:	2b00      	cmp	r3, #0
 8000d62:	da87      	bge.n	8000c74 <__gnu_unwind_pr_common+0xb4>
 8000d64:	3404      	adds	r4, #4
 8000d66:	e785      	b.n	8000c74 <__gnu_unwind_pr_common+0xb4>
 8000d68:	9b02      	ldr	r3, [sp, #8]
 8000d6a:	b33b      	cbz	r3, 8000dbc <__gnu_unwind_pr_common+0x1fc>
 8000d6c:	f105 0358 	add.w	r3, r5, #88	; 0x58
 8000d70:	1d27      	adds	r7, r4, #4
 8000d72:	f8cd b010 	str.w	fp, [sp, #16]
 8000d76:	f8dd 800c 	ldr.w	r8, [sp, #12]
 8000d7a:	46a3      	mov	fp, r4
 8000d7c:	f8dd a008 	ldr.w	sl, [sp, #8]
 8000d80:	461c      	mov	r4, r3
 8000d82:	9605      	str	r6, [sp, #20]
 8000d84:	e002      	b.n	8000d8c <__gnu_unwind_pr_common+0x1cc>
 8000d86:	45b2      	cmp	sl, r6
 8000d88:	46b0      	mov	r8, r6
 8000d8a:	d016      	beq.n	8000dba <__gnu_unwind_pr_common+0x1fa>
 8000d8c:	4638      	mov	r0, r7
 8000d8e:	9406      	str	r4, [sp, #24]
 8000d90:	f7ff fd88 	bl	80008a4 <_Unwind_decode_typeinfo_ptr.isra.0>
 8000d94:	ab06      	add	r3, sp, #24
 8000d96:	4601      	mov	r1, r0
 8000d98:	2200      	movs	r2, #0
 8000d9a:	4628      	mov	r0, r5
 8000d9c:	f003 ffce 	bl	8004d3c <__cxa_type_match>
 8000da0:	f108 0601 	add.w	r6, r8, #1
 8000da4:	3704      	adds	r7, #4
 8000da6:	2800      	cmp	r0, #0
 8000da8:	d0ed      	beq.n	8000d86 <__gnu_unwind_pr_common+0x1c6>
 8000daa:	9b02      	ldr	r3, [sp, #8]
 8000dac:	465c      	mov	r4, fp
 8000dae:	4543      	cmp	r3, r8
 8000db0:	f8dd b010 	ldr.w	fp, [sp, #16]
 8000db4:	9e05      	ldr	r6, [sp, #20]
 8000db6:	d1d2      	bne.n	8000d5e <__gnu_unwind_pr_common+0x19e>
 8000db8:	e000      	b.n	8000dbc <__gnu_unwind_pr_common+0x1fc>
 8000dba:	465c      	mov	r4, fp
 8000dbc:	4648      	mov	r0, r9
 8000dbe:	210d      	movs	r1, #13
 8000dc0:	f7ff fe90 	bl	8000ae4 <_Unwind_GetGR>
 8000dc4:	9b06      	ldr	r3, [sp, #24]
 8000dc6:	6228      	str	r0, [r5, #32]
 8000dc8:	62ac      	str	r4, [r5, #40]	; 0x28
 8000dca:	626b      	str	r3, [r5, #36]	; 0x24
 8000dcc:	2006      	movs	r0, #6
 8000dce:	e75f      	b.n	8000c90 <__gnu_unwind_pr_common+0xd0>
 8000dd0:	210f      	movs	r1, #15
 8000dd2:	4648      	mov	r0, r9
 8000dd4:	f7ff fe86 	bl	8000ae4 <_Unwind_GetGR>
 8000dd8:	210e      	movs	r1, #14
 8000dda:	4602      	mov	r2, r0
 8000ddc:	4648      	mov	r0, r9
 8000dde:	f7ff fea7 	bl	8000b30 <_Unwind_SetGR>
 8000de2:	4648      	mov	r0, r9
 8000de4:	4a29      	ldr	r2, [pc, #164]	; (8000e8c <__gnu_unwind_pr_common+0x2cc>)
 8000de6:	210f      	movs	r1, #15
 8000de8:	f7ff fea2 	bl	8000b30 <_Unwind_SetGR>
 8000dec:	2007      	movs	r0, #7
 8000dee:	e74f      	b.n	8000c90 <__gnu_unwind_pr_common+0xd0>
 8000df0:	4607      	mov	r7, r0
 8000df2:	210d      	movs	r1, #13
 8000df4:	4648      	mov	r0, r9
 8000df6:	f7ff fe75 	bl	8000ae4 <_Unwind_GetGR>
 8000dfa:	2f02      	cmp	r7, #2
 8000dfc:	6228      	str	r0, [r5, #32]
 8000dfe:	d11d      	bne.n	8000e3c <__gnu_unwind_pr_common+0x27c>
 8000e00:	462b      	mov	r3, r5
 8000e02:	9a06      	ldr	r2, [sp, #24]
 8000e04:	f843 2f2c 	str.w	r2, [r3, #44]!
 8000e08:	626b      	str	r3, [r5, #36]	; 0x24
 8000e0a:	62ac      	str	r4, [r5, #40]	; 0x28
 8000e0c:	2006      	movs	r0, #6
 8000e0e:	e73f      	b.n	8000c90 <__gnu_unwind_pr_common+0xd0>
 8000e10:	6aab      	ldr	r3, [r5, #40]	; 0x28
 8000e12:	429c      	cmp	r4, r3
 8000e14:	d1a3      	bne.n	8000d5e <__gnu_unwind_pr_common+0x19e>
 8000e16:	2204      	movs	r2, #4
 8000e18:	2700      	movs	r7, #0
 8000e1a:	9902      	ldr	r1, [sp, #8]
 8000e1c:	18a3      	adds	r3, r4, r2
 8000e1e:	62a9      	str	r1, [r5, #40]	; 0x28
 8000e20:	62ef      	str	r7, [r5, #44]	; 0x2c
 8000e22:	632a      	str	r2, [r5, #48]	; 0x30
 8000e24:	636b      	str	r3, [r5, #52]	; 0x34
 8000e26:	6823      	ldr	r3, [r4, #0]
 8000e28:	42bb      	cmp	r3, r7
 8000e2a:	db1d      	blt.n	8000e68 <__gnu_unwind_pr_common+0x2a8>
 8000e2c:	2301      	movs	r3, #1
 8000e2e:	9301      	str	r3, [sp, #4]
 8000e30:	e720      	b.n	8000c74 <__gnu_unwind_pr_common+0xb4>
 8000e32:	4648      	mov	r0, r9
 8000e34:	210d      	movs	r1, #13
 8000e36:	f7ff fe55 	bl	8000ae4 <_Unwind_GetGR>
 8000e3a:	6228      	str	r0, [r5, #32]
 8000e3c:	9b06      	ldr	r3, [sp, #24]
 8000e3e:	626b      	str	r3, [r5, #36]	; 0x24
 8000e40:	e7e3      	b.n	8000e0a <__gnu_unwind_pr_common+0x24a>
 8000e42:	4620      	mov	r0, r4
 8000e44:	f7ff fc62 	bl	800070c <selfrel_offset31>
 8000e48:	3404      	adds	r4, #4
 8000e4a:	4606      	mov	r6, r0
 8000e4c:	63ac      	str	r4, [r5, #56]	; 0x38
 8000e4e:	4628      	mov	r0, r5
 8000e50:	f003 ffd2 	bl	8004df8 <__cxa_begin_cleanup>
 8000e54:	2800      	cmp	r0, #0
 8000e56:	f43f af1a 	beq.w	8000c8e <__gnu_unwind_pr_common+0xce>
 8000e5a:	4648      	mov	r0, r9
 8000e5c:	4632      	mov	r2, r6
 8000e5e:	210f      	movs	r1, #15
 8000e60:	f7ff fe66 	bl	8000b30 <_Unwind_SetGR>
 8000e64:	2007      	movs	r0, #7
 8000e66:	e713      	b.n	8000c90 <__gnu_unwind_pr_common+0xd0>
 8000e68:	4608      	mov	r0, r1
 8000e6a:	3001      	adds	r0, #1
 8000e6c:	eb04 0080 	add.w	r0, r4, r0, lsl #2
 8000e70:	f7ff fc4c 	bl	800070c <selfrel_offset31>
 8000e74:	210f      	movs	r1, #15
 8000e76:	4602      	mov	r2, r0
 8000e78:	4648      	mov	r0, r9
 8000e7a:	f7ff fe59 	bl	8000b30 <_Unwind_SetGR>
 8000e7e:	4648      	mov	r0, r9
 8000e80:	462a      	mov	r2, r5
 8000e82:	4639      	mov	r1, r7
 8000e84:	f7ff fe54 	bl	8000b30 <_Unwind_SetGR>
 8000e88:	2007      	movs	r0, #7
 8000e8a:	e701      	b.n	8000c90 <__gnu_unwind_pr_common+0xd0>
 8000e8c:	080054f9 	.word	0x080054f9

08000e90 <__aeabi_unwind_cpp_pr0>:
 8000e90:	2300      	movs	r3, #0
 8000e92:	e695      	b.n	8000bc0 <__gnu_unwind_pr_common>

08000e94 <__aeabi_unwind_cpp_pr1>:
 8000e94:	2301      	movs	r3, #1
 8000e96:	e693      	b.n	8000bc0 <__gnu_unwind_pr_common>

08000e98 <__aeabi_unwind_cpp_pr2>:
 8000e98:	2302      	movs	r3, #2
 8000e9a:	e691      	b.n	8000bc0 <__gnu_unwind_pr_common>

08000e9c <_Unwind_VRS_Pop>:
 8000e9c:	b5f0      	push	{r4, r5, r6, r7, lr}
 8000e9e:	4604      	mov	r4, r0
 8000ea0:	b0c5      	sub	sp, #276	; 0x114
 8000ea2:	2904      	cmp	r1, #4
 8000ea4:	d80d      	bhi.n	8000ec2 <_Unwind_VRS_Pop+0x26>
 8000ea6:	e8df f001 	tbb	[pc, r1]
 8000eaa:	0355      	.short	0x0355
 8000eac:	310c      	.short	0x310c
 8000eae:	0f          	.byte	0x0f
 8000eaf:	00          	.byte	0x00
 8000eb0:	2b01      	cmp	r3, #1
 8000eb2:	ea4f 4612 	mov.w	r6, r2, lsr #16
 8000eb6:	b295      	uxth	r5, r2
 8000eb8:	d164      	bne.n	8000f84 <_Unwind_VRS_Pop+0xe8>
 8000eba:	1972      	adds	r2, r6, r5
 8000ebc:	2a10      	cmp	r2, #16
 8000ebe:	f240 809d 	bls.w	8000ffc <_Unwind_VRS_Pop+0x160>
 8000ec2:	2002      	movs	r0, #2
 8000ec4:	b045      	add	sp, #276	; 0x114
 8000ec6:	bdf0      	pop	{r4, r5, r6, r7, pc}
 8000ec8:	2b00      	cmp	r3, #0
 8000eca:	d1fa      	bne.n	8000ec2 <_Unwind_VRS_Pop+0x26>
 8000ecc:	2a10      	cmp	r2, #16
 8000ece:	d8f8      	bhi.n	8000ec2 <_Unwind_VRS_Pop+0x26>
 8000ed0:	6823      	ldr	r3, [r4, #0]
 8000ed2:	06d8      	lsls	r0, r3, #27
 8000ed4:	f100 80c8 	bmi.w	8001068 <_Unwind_VRS_Pop+0x1cc>
 8000ed8:	ae22      	add	r6, sp, #136	; 0x88
 8000eda:	4630      	mov	r0, r6
 8000edc:	9201      	str	r2, [sp, #4]
 8000ede:	2501      	movs	r5, #1
 8000ee0:	f000 f974 	bl	80011cc <__gnu_Unwind_Save_WMMXC>
 8000ee4:	2300      	movs	r3, #0
 8000ee6:	6ba0      	ldr	r0, [r4, #56]	; 0x38
 8000ee8:	9a01      	ldr	r2, [sp, #4]
 8000eea:	fa05 f103 	lsl.w	r1, r5, r3
 8000eee:	4211      	tst	r1, r2
 8000ef0:	d003      	beq.n	8000efa <_Unwind_VRS_Pop+0x5e>
 8000ef2:	6801      	ldr	r1, [r0, #0]
 8000ef4:	3004      	adds	r0, #4
 8000ef6:	f846 1023 	str.w	r1, [r6, r3, lsl #2]
 8000efa:	3301      	adds	r3, #1
 8000efc:	2b04      	cmp	r3, #4
 8000efe:	d1f4      	bne.n	8000eea <_Unwind_VRS_Pop+0x4e>
 8000f00:	63a0      	str	r0, [r4, #56]	; 0x38
 8000f02:	4630      	mov	r0, r6
 8000f04:	f000 f958 	bl	80011b8 <__gnu_Unwind_Restore_WMMXC>
 8000f08:	2000      	movs	r0, #0
 8000f0a:	e7db      	b.n	8000ec4 <_Unwind_VRS_Pop+0x28>
 8000f0c:	2b03      	cmp	r3, #3
 8000f0e:	d1d8      	bne.n	8000ec2 <_Unwind_VRS_Pop+0x26>
 8000f10:	0c15      	lsrs	r5, r2, #16
 8000f12:	b297      	uxth	r7, r2
 8000f14:	19eb      	adds	r3, r5, r7
 8000f16:	2b10      	cmp	r3, #16
 8000f18:	d8d3      	bhi.n	8000ec2 <_Unwind_VRS_Pop+0x26>
 8000f1a:	6823      	ldr	r3, [r4, #0]
 8000f1c:	071e      	lsls	r6, r3, #28
 8000f1e:	f100 80b7 	bmi.w	8001090 <_Unwind_VRS_Pop+0x1f4>
 8000f22:	ae22      	add	r6, sp, #136	; 0x88
 8000f24:	4630      	mov	r0, r6
 8000f26:	f000 f925 	bl	8001174 <__gnu_Unwind_Save_WMMXD>
 8000f2a:	00ed      	lsls	r5, r5, #3
 8000f2c:	6ba0      	ldr	r0, [r4, #56]	; 0x38
 8000f2e:	b15f      	cbz	r7, 8000f48 <_Unwind_VRS_Pop+0xac>
 8000f30:	3d04      	subs	r5, #4
 8000f32:	4603      	mov	r3, r0
 8000f34:	1971      	adds	r1, r6, r5
 8000f36:	eb00 00c7 	add.w	r0, r0, r7, lsl #3
 8000f3a:	f853 2b04 	ldr.w	r2, [r3], #4
 8000f3e:	4283      	cmp	r3, r0
 8000f40:	f841 2f04 	str.w	r2, [r1, #4]!
 8000f44:	d1f9      	bne.n	8000f3a <_Unwind_VRS_Pop+0x9e>
 8000f46:	4618      	mov	r0, r3
 8000f48:	63a0      	str	r0, [r4, #56]	; 0x38
 8000f4a:	4630      	mov	r0, r6
 8000f4c:	f000 f8f0 	bl	8001130 <__gnu_Unwind_Restore_WMMXD>
 8000f50:	2000      	movs	r0, #0
 8000f52:	e7b7      	b.n	8000ec4 <_Unwind_VRS_Pop+0x28>
 8000f54:	2b00      	cmp	r3, #0
 8000f56:	d1b4      	bne.n	8000ec2 <_Unwind_VRS_Pop+0x26>
 8000f58:	2701      	movs	r7, #1
 8000f5a:	6ba5      	ldr	r5, [r4, #56]	; 0x38
 8000f5c:	b296      	uxth	r6, r2
 8000f5e:	1d20      	adds	r0, r4, #4
 8000f60:	fa07 f103 	lsl.w	r1, r7, r3
 8000f64:	4231      	tst	r1, r6
 8000f66:	f103 0301 	add.w	r3, r3, #1
 8000f6a:	d002      	beq.n	8000f72 <_Unwind_VRS_Pop+0xd6>
 8000f6c:	6829      	ldr	r1, [r5, #0]
 8000f6e:	3504      	adds	r5, #4
 8000f70:	6001      	str	r1, [r0, #0]
 8000f72:	2b10      	cmp	r3, #16
 8000f74:	f100 0004 	add.w	r0, r0, #4
 8000f78:	d1f2      	bne.n	8000f60 <_Unwind_VRS_Pop+0xc4>
 8000f7a:	f412 5000 	ands.w	r0, r2, #8192	; 0x2000
 8000f7e:	d13b      	bne.n	8000ff8 <_Unwind_VRS_Pop+0x15c>
 8000f80:	63a5      	str	r5, [r4, #56]	; 0x38
 8000f82:	e79f      	b.n	8000ec4 <_Unwind_VRS_Pop+0x28>
 8000f84:	2b05      	cmp	r3, #5
 8000f86:	d19c      	bne.n	8000ec2 <_Unwind_VRS_Pop+0x26>
 8000f88:	1977      	adds	r7, r6, r5
 8000f8a:	2f20      	cmp	r7, #32
 8000f8c:	d899      	bhi.n	8000ec2 <_Unwind_VRS_Pop+0x26>
 8000f8e:	2e0f      	cmp	r6, #15
 8000f90:	d966      	bls.n	8001060 <_Unwind_VRS_Pop+0x1c4>
 8000f92:	462f      	mov	r7, r5
 8000f94:	2d00      	cmp	r5, #0
 8000f96:	d13a      	bne.n	800100e <_Unwind_VRS_Pop+0x172>
 8000f98:	462a      	mov	r2, r5
 8000f9a:	2700      	movs	r7, #0
 8000f9c:	2a00      	cmp	r2, #0
 8000f9e:	6ba0      	ldr	r0, [r4, #56]	; 0x38
 8000fa0:	dd72      	ble.n	8001088 <_Unwind_VRS_Pop+0x1ec>
 8000fa2:	eb00 02c2 	add.w	r2, r0, r2, lsl #3
 8000fa6:	4601      	mov	r1, r0
 8000fa8:	a844      	add	r0, sp, #272	; 0x110
 8000faa:	eb00 00c6 	add.w	r0, r0, r6, lsl #3
 8000fae:	388c      	subs	r0, #140	; 0x8c
 8000fb0:	f851 5b04 	ldr.w	r5, [r1], #4
 8000fb4:	4291      	cmp	r1, r2
 8000fb6:	f840 5f04 	str.w	r5, [r0, #4]!
 8000fba:	d1f9      	bne.n	8000fb0 <_Unwind_VRS_Pop+0x114>
 8000fbc:	4608      	mov	r0, r1
 8000fbe:	b197      	cbz	r7, 8000fe6 <_Unwind_VRS_Pop+0x14a>
 8000fc0:	2e10      	cmp	r6, #16
 8000fc2:	4632      	mov	r2, r6
 8000fc4:	bf38      	it	cc
 8000fc6:	2210      	movcc	r2, #16
 8000fc8:	a944      	add	r1, sp, #272	; 0x110
 8000fca:	eb01 02c2 	add.w	r2, r1, r2, lsl #3
 8000fce:	f5a2 72c4 	sub.w	r2, r2, #392	; 0x188
 8000fd2:	0079      	lsls	r1, r7, #1
 8000fd4:	3a04      	subs	r2, #4
 8000fd6:	eb00 0181 	add.w	r1, r0, r1, lsl #2
 8000fda:	f850 5b04 	ldr.w	r5, [r0], #4
 8000fde:	4288      	cmp	r0, r1
 8000fe0:	f842 5f04 	str.w	r5, [r2, #4]!
 8000fe4:	d1f9      	bne.n	8000fda <_Unwind_VRS_Pop+0x13e>
 8000fe6:	2b01      	cmp	r3, #1
 8000fe8:	d048      	beq.n	800107c <_Unwind_VRS_Pop+0x1e0>
 8000fea:	2e0f      	cmp	r6, #15
 8000fec:	63a1      	str	r1, [r4, #56]	; 0x38
 8000fee:	d933      	bls.n	8001058 <_Unwind_VRS_Pop+0x1bc>
 8000ff0:	b117      	cbz	r7, 8000ff8 <_Unwind_VRS_Pop+0x15c>
 8000ff2:	a802      	add	r0, sp, #8
 8000ff4:	f000 f894 	bl	8001120 <__gnu_Unwind_Restore_VFP_D_16_to_31>
 8000ff8:	2000      	movs	r0, #0
 8000ffa:	e763      	b.n	8000ec4 <_Unwind_VRS_Pop+0x28>
 8000ffc:	2e0f      	cmp	r6, #15
 8000ffe:	f63f af60 	bhi.w	8000ec2 <_Unwind_VRS_Pop+0x26>
 8001002:	2700      	movs	r7, #0
 8001004:	6822      	ldr	r2, [r4, #0]
 8001006:	07d1      	lsls	r1, r2, #31
 8001008:	d417      	bmi.n	800103a <_Unwind_VRS_Pop+0x19e>
 800100a:	2f00      	cmp	r7, #0
 800100c:	d060      	beq.n	80010d0 <_Unwind_VRS_Pop+0x234>
 800100e:	6822      	ldr	r2, [r4, #0]
 8001010:	0751      	lsls	r1, r2, #29
 8001012:	d445      	bmi.n	80010a0 <_Unwind_VRS_Pop+0x204>
 8001014:	2b01      	cmp	r3, #1
 8001016:	d04d      	beq.n	80010b4 <_Unwind_VRS_Pop+0x218>
 8001018:	2e0f      	cmp	r6, #15
 800101a:	d806      	bhi.n	800102a <_Unwind_VRS_Pop+0x18e>
 800101c:	a822      	add	r0, sp, #136	; 0x88
 800101e:	9301      	str	r3, [sp, #4]
 8001020:	f000 f87a 	bl	8001118 <__gnu_Unwind_Save_VFP_D>
 8001024:	9b01      	ldr	r3, [sp, #4]
 8001026:	2f00      	cmp	r7, #0
 8001028:	d0b6      	beq.n	8000f98 <_Unwind_VRS_Pop+0xfc>
 800102a:	a802      	add	r0, sp, #8
 800102c:	9301      	str	r3, [sp, #4]
 800102e:	f000 f87b 	bl	8001128 <__gnu_Unwind_Save_VFP_D_16_to_31>
 8001032:	9b01      	ldr	r3, [sp, #4]
 8001034:	f1c6 0210 	rsb	r2, r6, #16
 8001038:	e7b0      	b.n	8000f9c <_Unwind_VRS_Pop+0x100>
 800103a:	f022 0101 	bic.w	r1, r2, #1
 800103e:	2b05      	cmp	r3, #5
 8001040:	6021      	str	r1, [r4, #0]
 8001042:	9301      	str	r3, [sp, #4]
 8001044:	4620      	mov	r0, r4
 8001046:	d03b      	beq.n	80010c0 <_Unwind_VRS_Pop+0x224>
 8001048:	f022 0203 	bic.w	r2, r2, #3
 800104c:	f840 2b48 	str.w	r2, [r0], #72
 8001050:	f000 f85a 	bl	8001108 <__gnu_Unwind_Save_VFP>
 8001054:	9b01      	ldr	r3, [sp, #4]
 8001056:	e7d8      	b.n	800100a <_Unwind_VRS_Pop+0x16e>
 8001058:	a822      	add	r0, sp, #136	; 0x88
 800105a:	f000 f859 	bl	8001110 <__gnu_Unwind_Restore_VFP_D>
 800105e:	e7c7      	b.n	8000ff0 <_Unwind_VRS_Pop+0x154>
 8001060:	2f10      	cmp	r7, #16
 8001062:	d9ce      	bls.n	8001002 <_Unwind_VRS_Pop+0x166>
 8001064:	3f10      	subs	r7, #16
 8001066:	e7cd      	b.n	8001004 <_Unwind_VRS_Pop+0x168>
 8001068:	f023 0310 	bic.w	r3, r3, #16
 800106c:	6023      	str	r3, [r4, #0]
 800106e:	f504 70e8 	add.w	r0, r4, #464	; 0x1d0
 8001072:	9201      	str	r2, [sp, #4]
 8001074:	f000 f8aa 	bl	80011cc <__gnu_Unwind_Save_WMMXC>
 8001078:	9a01      	ldr	r2, [sp, #4]
 800107a:	e72d      	b.n	8000ed8 <_Unwind_VRS_Pop+0x3c>
 800107c:	3104      	adds	r1, #4
 800107e:	63a1      	str	r1, [r4, #56]	; 0x38
 8001080:	a822      	add	r0, sp, #136	; 0x88
 8001082:	f000 f83d 	bl	8001100 <__gnu_Unwind_Restore_VFP>
 8001086:	e7b7      	b.n	8000ff8 <_Unwind_VRS_Pop+0x15c>
 8001088:	2f00      	cmp	r7, #0
 800108a:	d199      	bne.n	8000fc0 <_Unwind_VRS_Pop+0x124>
 800108c:	4601      	mov	r1, r0
 800108e:	e7aa      	b.n	8000fe6 <_Unwind_VRS_Pop+0x14a>
 8001090:	f023 0308 	bic.w	r3, r3, #8
 8001094:	6023      	str	r3, [r4, #0]
 8001096:	f504 70a8 	add.w	r0, r4, #336	; 0x150
 800109a:	f000 f86b 	bl	8001174 <__gnu_Unwind_Save_WMMXD>
 800109e:	e740      	b.n	8000f22 <_Unwind_VRS_Pop+0x86>
 80010a0:	4620      	mov	r0, r4
 80010a2:	f022 0204 	bic.w	r2, r2, #4
 80010a6:	f840 2bd0 	str.w	r2, [r0], #208
 80010aa:	9301      	str	r3, [sp, #4]
 80010ac:	f000 f83c 	bl	8001128 <__gnu_Unwind_Save_VFP_D_16_to_31>
 80010b0:	9b01      	ldr	r3, [sp, #4]
 80010b2:	e7af      	b.n	8001014 <_Unwind_VRS_Pop+0x178>
 80010b4:	a822      	add	r0, sp, #136	; 0x88
 80010b6:	9301      	str	r3, [sp, #4]
 80010b8:	f000 f826 	bl	8001108 <__gnu_Unwind_Save_VFP>
 80010bc:	9b01      	ldr	r3, [sp, #4]
 80010be:	e7b9      	b.n	8001034 <_Unwind_VRS_Pop+0x198>
 80010c0:	f041 0102 	orr.w	r1, r1, #2
 80010c4:	f840 1b48 	str.w	r1, [r0], #72
 80010c8:	f000 f826 	bl	8001118 <__gnu_Unwind_Save_VFP_D>
 80010cc:	9b01      	ldr	r3, [sp, #4]
 80010ce:	e79c      	b.n	800100a <_Unwind_VRS_Pop+0x16e>
 80010d0:	2b01      	cmp	r3, #1
 80010d2:	d003      	beq.n	80010dc <_Unwind_VRS_Pop+0x240>
 80010d4:	2e0f      	cmp	r6, #15
 80010d6:	f63f af5f 	bhi.w	8000f98 <_Unwind_VRS_Pop+0xfc>
 80010da:	e79f      	b.n	800101c <_Unwind_VRS_Pop+0x180>
 80010dc:	a822      	add	r0, sp, #136	; 0x88
 80010de:	9301      	str	r3, [sp, #4]
 80010e0:	f000 f812 	bl	8001108 <__gnu_Unwind_Save_VFP>
 80010e4:	9b01      	ldr	r3, [sp, #4]
 80010e6:	e757      	b.n	8000f98 <_Unwind_VRS_Pop+0xfc>

080010e8 <__restore_core_regs>:
 80010e8:	f100 0134 	add.w	r1, r0, #52	; 0x34
 80010ec:	e891 0038 	ldmia.w	r1, {r3, r4, r5}
 80010f0:	469c      	mov	ip, r3
 80010f2:	46a6      	mov	lr, r4
 80010f4:	f84c 5d04 	str.w	r5, [ip, #-4]!
 80010f8:	e890 0fff 	ldmia.w	r0, {r0, r1, r2, r3, r4, r5, r6, r7, r8, r9, sl, fp}
 80010fc:	46e5      	mov	sp, ip
 80010fe:	bd00      	pop	{pc}

08001100 <__gnu_Unwind_Restore_VFP>:
 8001100:	ec90 0b21 	fldmiax	r0, {d0-d15}	;@ Deprecated
 8001104:	4770      	bx	lr
 8001106:	bf00      	nop

08001108 <__gnu_Unwind_Save_VFP>:
 8001108:	ec80 0b21 	fstmiax	r0, {d0-d15}	;@ Deprecated
 800110c:	4770      	bx	lr
 800110e:	bf00      	nop

08001110 <__gnu_Unwind_Restore_VFP_D>:
 8001110:	ec90 0b20 	vldmia	r0, {d0-d15}
 8001114:	4770      	bx	lr
 8001116:	bf00      	nop

08001118 <__gnu_Unwind_Save_VFP_D>:
 8001118:	ec80 0b20 	vstmia	r0, {d0-d15}
 800111c:	4770      	bx	lr
 800111e:	bf00      	nop

08001120 <__gnu_Unwind_Restore_VFP_D_16_to_31>:
 8001120:	ecd0 0b20 	vldmia	r0, {d16-d31}
 8001124:	4770      	bx	lr
 8001126:	bf00      	nop

08001128 <__gnu_Unwind_Save_VFP_D_16_to_31>:
 8001128:	ecc0 0b20 	vstmia	r0, {d16-d31}
 800112c:	4770      	bx	lr
 800112e:	bf00      	nop

08001130 <__gnu_Unwind_Restore_WMMXD>:
 8001130:	ecf0 0102 	ldfe	f0, [r0], #8
 8001134:	ecf0 1102 	ldfe	f1, [r0], #8
 8001138:	ecf0 2102 	ldfe	f2, [r0], #8
 800113c:	ecf0 3102 	ldfe	f3, [r0], #8
 8001140:	ecf0 4102 	ldfe	f4, [r0], #8
 8001144:	ecf0 5102 	ldfe	f5, [r0], #8
 8001148:	ecf0 6102 	ldfe	f6, [r0], #8
 800114c:	ecf0 7102 	ldfe	f7, [r0], #8
 8001150:	ecf0 8102 	ldfp	f0, [r0], #8
 8001154:	ecf0 9102 	ldfp	f1, [r0], #8
 8001158:	ecf0 a102 	ldfp	f2, [r0], #8
 800115c:	ecf0 b102 	ldfp	f3, [r0], #8
 8001160:	ecf0 c102 	ldfp	f4, [r0], #8
 8001164:	ecf0 d102 	ldfp	f5, [r0], #8
 8001168:	ecf0 e102 	ldfp	f6, [r0], #8
 800116c:	ecf0 f102 	ldfp	f7, [r0], #8
 8001170:	4770      	bx	lr
 8001172:	bf00      	nop

08001174 <__gnu_Unwind_Save_WMMXD>:
 8001174:	ece0 0102 	stfe	f0, [r0], #8
 8001178:	ece0 1102 	stfe	f1, [r0], #8
 800117c:	ece0 2102 	stfe	f2, [r0], #8
 8001180:	ece0 3102 	stfe	f3, [r0], #8
 8001184:	ece0 4102 	stfe	f4, [r0], #8
 8001188:	ece0 5102 	stfe	f5, [r0], #8
 800118c:	ece0 6102 	stfe	f6, [r0], #8
 8001190:	ece0 7102 	stfe	f7, [r0], #8
 8001194:	ece0 8102 	stfp	f0, [r0], #8
 8001198:	ece0 9102 	stfp	f1, [r0], #8
 800119c:	ece0 a102 	stfp	f2, [r0], #8
 80011a0:	ece0 b102 	stfp	f3, [r0], #8
 80011a4:	ece0 c102 	stfp	f4, [r0], #8
 80011a8:	ece0 d102 	stfp	f5, [r0], #8
 80011ac:	ece0 e102 	stfp	f6, [r0], #8
 80011b0:	ece0 f102 	stfp	f7, [r0], #8
 80011b4:	4770      	bx	lr
 80011b6:	bf00      	nop

080011b8 <__gnu_Unwind_Restore_WMMXC>:
 80011b8:	fcb0 8101 	ldc2	1, cr8, [r0], #4
 80011bc:	fcb0 9101 	ldc2	1, cr9, [r0], #4
 80011c0:	fcb0 a101 	ldc2	1, cr10, [r0], #4
 80011c4:	fcb0 b101 	ldc2	1, cr11, [r0], #4
 80011c8:	4770      	bx	lr
 80011ca:	bf00      	nop

080011cc <__gnu_Unwind_Save_WMMXC>:
 80011cc:	fca0 8101 	stc2	1, cr8, [r0], #4
 80011d0:	fca0 9101 	stc2	1, cr9, [r0], #4
 80011d4:	fca0 a101 	stc2	1, cr10, [r0], #4
 80011d8:	fca0 b101 	stc2	1, cr11, [r0], #4
 80011dc:	4770      	bx	lr
 80011de:	bf00      	nop

080011e0 <_Unwind_RaiseException>:
 80011e0:	46ec      	mov	ip, sp
 80011e2:	b500      	push	{lr}
 80011e4:	e92d 5000 	stmdb	sp!, {ip, lr}
 80011e8:	e92d 1fff 	stmdb	sp!, {r0, r1, r2, r3, r4, r5, r6, r7, r8, r9, sl, fp, ip}
 80011ec:	f04f 0300 	mov.w	r3, #0
 80011f0:	e92d 000c 	stmdb	sp!, {r2, r3}
 80011f4:	a901      	add	r1, sp, #4
 80011f6:	f7ff fbed 	bl	80009d4 <__gnu_Unwind_RaiseException>
 80011fa:	f8dd e040 	ldr.w	lr, [sp, #64]	; 0x40
 80011fe:	b012      	add	sp, #72	; 0x48
 8001200:	4770      	bx	lr
 8001202:	bf00      	nop

08001204 <_Unwind_Resume>:
 8001204:	46ec      	mov	ip, sp
 8001206:	b500      	push	{lr}
 8001208:	e92d 5000 	stmdb	sp!, {ip, lr}
 800120c:	e92d 1fff 	stmdb	sp!, {r0, r1, r2, r3, r4, r5, r6, r7, r8, r9, sl, fp, ip}
 8001210:	f04f 0300 	mov.w	r3, #0
 8001214:	e92d 000c 	stmdb	sp!, {r2, r3}
 8001218:	a901      	add	r1, sp, #4
 800121a:	f7ff fc15 	bl	8000a48 <__gnu_Unwind_Resume>
 800121e:	f8dd e040 	ldr.w	lr, [sp, #64]	; 0x40
 8001222:	b012      	add	sp, #72	; 0x48
 8001224:	4770      	bx	lr
 8001226:	bf00      	nop

08001228 <_Unwind_Resume_or_Rethrow>:
 8001228:	46ec      	mov	ip, sp
 800122a:	b500      	push	{lr}
 800122c:	e92d 5000 	stmdb	sp!, {ip, lr}
 8001230:	e92d 1fff 	stmdb	sp!, {r0, r1, r2, r3, r4, r5, r6, r7, r8, r9, sl, fp, ip}
 8001234:	f04f 0300 	mov.w	r3, #0
 8001238:	e92d 000c 	stmdb	sp!, {r2, r3}
 800123c:	a901      	add	r1, sp, #4
 800123e:	f7ff fc25 	bl	8000a8c <__gnu_Unwind_Resume_or_Rethrow>
 8001242:	f8dd e040 	ldr.w	lr, [sp, #64]	; 0x40
 8001246:	b012      	add	sp, #72	; 0x48
 8001248:	4770      	bx	lr
 800124a:	bf00      	nop

0800124c <_Unwind_ForcedUnwind>:
 800124c:	46ec      	mov	ip, sp
 800124e:	b500      	push	{lr}
 8001250:	e92d 5000 	stmdb	sp!, {ip, lr}
 8001254:	e92d 1fff 	stmdb	sp!, {r0, r1, r2, r3, r4, r5, r6, r7, r8, r9, sl, fp, ip}
 8001258:	f04f 0300 	mov.w	r3, #0
 800125c:	e92d 000c 	stmdb	sp!, {r2, r3}
 8001260:	ab01      	add	r3, sp, #4
 8001262:	f7ff fbe7 	bl	8000a34 <__gnu_Unwind_ForcedUnwind>
 8001266:	f8dd e040 	ldr.w	lr, [sp, #64]	; 0x40
 800126a:	b012      	add	sp, #72	; 0x48
 800126c:	4770      	bx	lr
 800126e:	bf00      	nop

08001270 <_Unwind_Backtrace>:
 8001270:	46ec      	mov	ip, sp
 8001272:	b500      	push	{lr}
 8001274:	e92d 5000 	stmdb	sp!, {ip, lr}
 8001278:	e92d 1fff 	stmdb	sp!, {r0, r1, r2, r3, r4, r5, r6, r7, r8, r9, sl, fp, ip}
 800127c:	f04f 0300 	mov.w	r3, #0
 8001280:	e92d 000c 	stmdb	sp!, {r2, r3}
 8001284:	aa01      	add	r2, sp, #4
 8001286:	f7ff fc61 	bl	8000b4c <__gnu_Unwind_Backtrace>
 800128a:	f8dd e040 	ldr.w	lr, [sp, #64]	; 0x40
 800128e:	b012      	add	sp, #72	; 0x48
 8001290:	4770      	bx	lr
 8001292:	bf00      	nop

08001294 <next_unwind_byte>:
 8001294:	7a02      	ldrb	r2, [r0, #8]
 8001296:	b91a      	cbnz	r2, 80012a0 <next_unwind_byte+0xc>
 8001298:	7a43      	ldrb	r3, [r0, #9]
 800129a:	b943      	cbnz	r3, 80012ae <next_unwind_byte+0x1a>
 800129c:	20b0      	movs	r0, #176	; 0xb0
 800129e:	4770      	bx	lr
 80012a0:	6803      	ldr	r3, [r0, #0]
 80012a2:	3a01      	subs	r2, #1
 80012a4:	7202      	strb	r2, [r0, #8]
 80012a6:	021a      	lsls	r2, r3, #8
 80012a8:	6002      	str	r2, [r0, #0]
 80012aa:	0e18      	lsrs	r0, r3, #24
 80012ac:	4770      	bx	lr
 80012ae:	2103      	movs	r1, #3
 80012b0:	6842      	ldr	r2, [r0, #4]
 80012b2:	3b01      	subs	r3, #1
 80012b4:	b410      	push	{r4}
 80012b6:	7243      	strb	r3, [r0, #9]
 80012b8:	6813      	ldr	r3, [r2, #0]
 80012ba:	1d14      	adds	r4, r2, #4
 80012bc:	7201      	strb	r1, [r0, #8]
 80012be:	021a      	lsls	r2, r3, #8
 80012c0:	6044      	str	r4, [r0, #4]
 80012c2:	6002      	str	r2, [r0, #0]
 80012c4:	bc10      	pop	{r4}
 80012c6:	0e18      	lsrs	r0, r3, #24
 80012c8:	4770      	bx	lr
 80012ca:	bf00      	nop

080012cc <_Unwind_GetGR.constprop.0>:
 80012cc:	2300      	movs	r3, #0
 80012ce:	b500      	push	{lr}
 80012d0:	b085      	sub	sp, #20
 80012d2:	aa03      	add	r2, sp, #12
 80012d4:	9200      	str	r2, [sp, #0]
 80012d6:	4619      	mov	r1, r3
 80012d8:	220c      	movs	r2, #12
 80012da:	f7ff fbe9 	bl	8000ab0 <_Unwind_VRS_Get>
 80012de:	9803      	ldr	r0, [sp, #12]
 80012e0:	b005      	add	sp, #20
 80012e2:	f85d fb04 	ldr.w	pc, [sp], #4
 80012e6:	bf00      	nop

080012e8 <unwind_UCB_from_context>:
 80012e8:	e7f0      	b.n	80012cc <_Unwind_GetGR.constprop.0>
 80012ea:	bf00      	nop

080012ec <__gnu_unwind_execute>:
 80012ec:	e92d 43f0 	stmdb	sp!, {r4, r5, r6, r7, r8, r9, lr}
 80012f0:	4606      	mov	r6, r0
 80012f2:	460f      	mov	r7, r1
 80012f4:	f04f 0800 	mov.w	r8, #0
 80012f8:	b085      	sub	sp, #20
 80012fa:	4638      	mov	r0, r7
 80012fc:	f7ff ffca 	bl	8001294 <next_unwind_byte>
 8001300:	28b0      	cmp	r0, #176	; 0xb0
 8001302:	4604      	mov	r4, r0
 8001304:	d023      	beq.n	800134e <__gnu_unwind_execute+0x62>
 8001306:	0605      	lsls	r5, r0, #24
 8001308:	d427      	bmi.n	800135a <__gnu_unwind_execute+0x6e>
 800130a:	2300      	movs	r3, #0
 800130c:	f10d 090c 	add.w	r9, sp, #12
 8001310:	4619      	mov	r1, r3
 8001312:	0085      	lsls	r5, r0, #2
 8001314:	220d      	movs	r2, #13
 8001316:	f8cd 9000 	str.w	r9, [sp]
 800131a:	4630      	mov	r0, r6
 800131c:	f7ff fbc8 	bl	8000ab0 <_Unwind_VRS_Get>
 8001320:	b2ed      	uxtb	r5, r5
 8001322:	9b03      	ldr	r3, [sp, #12]
 8001324:	0660      	lsls	r0, r4, #25
 8001326:	f105 0504 	add.w	r5, r5, #4
 800132a:	bf4c      	ite	mi
 800132c:	1b5d      	submi	r5, r3, r5
 800132e:	18ed      	addpl	r5, r5, r3
 8001330:	2300      	movs	r3, #0
 8001332:	220d      	movs	r2, #13
 8001334:	4619      	mov	r1, r3
 8001336:	f8cd 9000 	str.w	r9, [sp]
 800133a:	4630      	mov	r0, r6
 800133c:	9503      	str	r5, [sp, #12]
 800133e:	f7ff fbdd 	bl	8000afc <_Unwind_VRS_Set>
 8001342:	4638      	mov	r0, r7
 8001344:	f7ff ffa6 	bl	8001294 <next_unwind_byte>
 8001348:	28b0      	cmp	r0, #176	; 0xb0
 800134a:	4604      	mov	r4, r0
 800134c:	d1db      	bne.n	8001306 <__gnu_unwind_execute+0x1a>
 800134e:	f1b8 0f00 	cmp.w	r8, #0
 8001352:	f000 8094 	beq.w	800147e <__gnu_unwind_execute+0x192>
 8001356:	2000      	movs	r0, #0
 8001358:	e01c      	b.n	8001394 <__gnu_unwind_execute+0xa8>
 800135a:	f000 03f0 	and.w	r3, r0, #240	; 0xf0
 800135e:	2b80      	cmp	r3, #128	; 0x80
 8001360:	d05c      	beq.n	800141c <__gnu_unwind_execute+0x130>
 8001362:	2b90      	cmp	r3, #144	; 0x90
 8001364:	d019      	beq.n	800139a <__gnu_unwind_execute+0xae>
 8001366:	2ba0      	cmp	r3, #160	; 0xa0
 8001368:	d02c      	beq.n	80013c4 <__gnu_unwind_execute+0xd8>
 800136a:	2bb0      	cmp	r3, #176	; 0xb0
 800136c:	d03e      	beq.n	80013ec <__gnu_unwind_execute+0x100>
 800136e:	2bc0      	cmp	r3, #192	; 0xc0
 8001370:	d06b      	beq.n	800144a <__gnu_unwind_execute+0x15e>
 8001372:	f000 03f8 	and.w	r3, r0, #248	; 0xf8
 8001376:	2bd0      	cmp	r3, #208	; 0xd0
 8001378:	d10b      	bne.n	8001392 <__gnu_unwind_execute+0xa6>
 800137a:	f000 0207 	and.w	r2, r0, #7
 800137e:	3201      	adds	r2, #1
 8001380:	f442 2200 	orr.w	r2, r2, #524288	; 0x80000
 8001384:	2305      	movs	r3, #5
 8001386:	2101      	movs	r1, #1
 8001388:	4630      	mov	r0, r6
 800138a:	f7ff fd87 	bl	8000e9c <_Unwind_VRS_Pop>
 800138e:	2800      	cmp	r0, #0
 8001390:	d0b3      	beq.n	80012fa <__gnu_unwind_execute+0xe>
 8001392:	2009      	movs	r0, #9
 8001394:	b005      	add	sp, #20
 8001396:	e8bd 83f0 	ldmia.w	sp!, {r4, r5, r6, r7, r8, r9, pc}
 800139a:	f000 030d 	and.w	r3, r0, #13
 800139e:	2b0d      	cmp	r3, #13
 80013a0:	d0f7      	beq.n	8001392 <__gnu_unwind_execute+0xa6>
 80013a2:	2300      	movs	r3, #0
 80013a4:	ad03      	add	r5, sp, #12
 80013a6:	f000 020f 	and.w	r2, r0, #15
 80013aa:	4619      	mov	r1, r3
 80013ac:	9500      	str	r5, [sp, #0]
 80013ae:	4630      	mov	r0, r6
 80013b0:	f7ff fb7e 	bl	8000ab0 <_Unwind_VRS_Get>
 80013b4:	2300      	movs	r3, #0
 80013b6:	9500      	str	r5, [sp, #0]
 80013b8:	4619      	mov	r1, r3
 80013ba:	220d      	movs	r2, #13
 80013bc:	4630      	mov	r0, r6
 80013be:	f7ff fb9d 	bl	8000afc <_Unwind_VRS_Set>
 80013c2:	e79a      	b.n	80012fa <__gnu_unwind_execute+0xe>
 80013c4:	43c3      	mvns	r3, r0
 80013c6:	f44f 627f 	mov.w	r2, #4080	; 0xff0
 80013ca:	f003 0307 	and.w	r3, r3, #7
 80013ce:	411a      	asrs	r2, r3
 80013d0:	2300      	movs	r3, #0
 80013d2:	0701      	lsls	r1, r0, #28
 80013d4:	f402 627f 	and.w	r2, r2, #4080	; 0xff0
 80013d8:	bf48      	it	mi
 80013da:	f442 4280 	orrmi.w	r2, r2, #16384	; 0x4000
 80013de:	4619      	mov	r1, r3
 80013e0:	4630      	mov	r0, r6
 80013e2:	f7ff fd5b 	bl	8000e9c <_Unwind_VRS_Pop>
 80013e6:	2800      	cmp	r0, #0
 80013e8:	d1d3      	bne.n	8001392 <__gnu_unwind_execute+0xa6>
 80013ea:	e786      	b.n	80012fa <__gnu_unwind_execute+0xe>
 80013ec:	28b1      	cmp	r0, #177	; 0xb1
 80013ee:	d057      	beq.n	80014a0 <__gnu_unwind_execute+0x1b4>
 80013f0:	28b2      	cmp	r0, #178	; 0xb2
 80013f2:	d068      	beq.n	80014c6 <__gnu_unwind_execute+0x1da>
 80013f4:	28b3      	cmp	r0, #179	; 0xb3
 80013f6:	f000 8095 	beq.w	8001524 <__gnu_unwind_execute+0x238>
 80013fa:	f000 03fc 	and.w	r3, r0, #252	; 0xfc
 80013fe:	2bb4      	cmp	r3, #180	; 0xb4
 8001400:	d0c7      	beq.n	8001392 <__gnu_unwind_execute+0xa6>
 8001402:	2301      	movs	r3, #1
 8001404:	f000 0207 	and.w	r2, r0, #7
 8001408:	441a      	add	r2, r3
 800140a:	f442 2200 	orr.w	r2, r2, #524288	; 0x80000
 800140e:	4619      	mov	r1, r3
 8001410:	4630      	mov	r0, r6
 8001412:	f7ff fd43 	bl	8000e9c <_Unwind_VRS_Pop>
 8001416:	2800      	cmp	r0, #0
 8001418:	d1bb      	bne.n	8001392 <__gnu_unwind_execute+0xa6>
 800141a:	e76e      	b.n	80012fa <__gnu_unwind_execute+0xe>
 800141c:	4638      	mov	r0, r7
 800141e:	f7ff ff39 	bl	8001294 <next_unwind_byte>
 8001422:	0224      	lsls	r4, r4, #8
 8001424:	4304      	orrs	r4, r0
 8001426:	f5b4 4f00 	cmp.w	r4, #32768	; 0x8000
 800142a:	d0b2      	beq.n	8001392 <__gnu_unwind_execute+0xa6>
 800142c:	2300      	movs	r3, #0
 800142e:	0124      	lsls	r4, r4, #4
 8001430:	b2a2      	uxth	r2, r4
 8001432:	4619      	mov	r1, r3
 8001434:	4630      	mov	r0, r6
 8001436:	f7ff fd31 	bl	8000e9c <_Unwind_VRS_Pop>
 800143a:	2800      	cmp	r0, #0
 800143c:	d1a9      	bne.n	8001392 <__gnu_unwind_execute+0xa6>
 800143e:	f414 4f00 	tst.w	r4, #32768	; 0x8000
 8001442:	bf18      	it	ne
 8001444:	f04f 0801 	movne.w	r8, #1
 8001448:	e757      	b.n	80012fa <__gnu_unwind_execute+0xe>
 800144a:	28c6      	cmp	r0, #198	; 0xc6
 800144c:	d07d      	beq.n	800154a <__gnu_unwind_execute+0x25e>
 800144e:	28c7      	cmp	r0, #199	; 0xc7
 8001450:	f000 8086 	beq.w	8001560 <__gnu_unwind_execute+0x274>
 8001454:	f000 03f8 	and.w	r3, r0, #248	; 0xf8
 8001458:	2bc0      	cmp	r3, #192	; 0xc0
 800145a:	f000 8094 	beq.w	8001586 <__gnu_unwind_execute+0x29a>
 800145e:	28c8      	cmp	r0, #200	; 0xc8
 8001460:	f000 809f 	beq.w	80015a2 <__gnu_unwind_execute+0x2b6>
 8001464:	28c9      	cmp	r0, #201	; 0xc9
 8001466:	d194      	bne.n	8001392 <__gnu_unwind_execute+0xa6>
 8001468:	4638      	mov	r0, r7
 800146a:	f7ff ff13 	bl	8001294 <next_unwind_byte>
 800146e:	0302      	lsls	r2, r0, #12
 8001470:	f000 000f 	and.w	r0, r0, #15
 8001474:	f402 2270 	and.w	r2, r2, #983040	; 0xf0000
 8001478:	3001      	adds	r0, #1
 800147a:	4302      	orrs	r2, r0
 800147c:	e782      	b.n	8001384 <__gnu_unwind_execute+0x98>
 800147e:	ac03      	add	r4, sp, #12
 8001480:	4643      	mov	r3, r8
 8001482:	220e      	movs	r2, #14
 8001484:	4641      	mov	r1, r8
 8001486:	9400      	str	r4, [sp, #0]
 8001488:	4630      	mov	r0, r6
 800148a:	f7ff fb11 	bl	8000ab0 <_Unwind_VRS_Get>
 800148e:	9400      	str	r4, [sp, #0]
 8001490:	4630      	mov	r0, r6
 8001492:	4643      	mov	r3, r8
 8001494:	220f      	movs	r2, #15
 8001496:	4641      	mov	r1, r8
 8001498:	f7ff fb30 	bl	8000afc <_Unwind_VRS_Set>
 800149c:	4640      	mov	r0, r8
 800149e:	e779      	b.n	8001394 <__gnu_unwind_execute+0xa8>
 80014a0:	4638      	mov	r0, r7
 80014a2:	f7ff fef7 	bl	8001294 <next_unwind_byte>
 80014a6:	2800      	cmp	r0, #0
 80014a8:	f43f af73 	beq.w	8001392 <__gnu_unwind_execute+0xa6>
 80014ac:	f010 03f0 	ands.w	r3, r0, #240	; 0xf0
 80014b0:	f47f af6f 	bne.w	8001392 <__gnu_unwind_execute+0xa6>
 80014b4:	4602      	mov	r2, r0
 80014b6:	4619      	mov	r1, r3
 80014b8:	4630      	mov	r0, r6
 80014ba:	f7ff fcef 	bl	8000e9c <_Unwind_VRS_Pop>
 80014be:	2800      	cmp	r0, #0
 80014c0:	f47f af67 	bne.w	8001392 <__gnu_unwind_execute+0xa6>
 80014c4:	e719      	b.n	80012fa <__gnu_unwind_execute+0xe>
 80014c6:	2300      	movs	r3, #0
 80014c8:	f10d 090c 	add.w	r9, sp, #12
 80014cc:	220d      	movs	r2, #13
 80014ce:	4619      	mov	r1, r3
 80014d0:	f8cd 9000 	str.w	r9, [sp]
 80014d4:	4630      	mov	r0, r6
 80014d6:	f7ff faeb 	bl	8000ab0 <_Unwind_VRS_Get>
 80014da:	4638      	mov	r0, r7
 80014dc:	f7ff feda 	bl	8001294 <next_unwind_byte>
 80014e0:	0602      	lsls	r2, r0, #24
 80014e2:	f04f 0402 	mov.w	r4, #2
 80014e6:	d50c      	bpl.n	8001502 <__gnu_unwind_execute+0x216>
 80014e8:	9b03      	ldr	r3, [sp, #12]
 80014ea:	f000 007f 	and.w	r0, r0, #127	; 0x7f
 80014ee:	40a0      	lsls	r0, r4
 80014f0:	4403      	add	r3, r0
 80014f2:	4638      	mov	r0, r7
 80014f4:	9303      	str	r3, [sp, #12]
 80014f6:	f7ff fecd 	bl	8001294 <next_unwind_byte>
 80014fa:	0603      	lsls	r3, r0, #24
 80014fc:	f104 0407 	add.w	r4, r4, #7
 8001500:	d4f2      	bmi.n	80014e8 <__gnu_unwind_execute+0x1fc>
 8001502:	2300      	movs	r3, #0
 8001504:	9903      	ldr	r1, [sp, #12]
 8001506:	f000 027f 	and.w	r2, r0, #127	; 0x7f
 800150a:	40a2      	lsls	r2, r4
 800150c:	f501 7101 	add.w	r1, r1, #516	; 0x204
 8001510:	188c      	adds	r4, r1, r2
 8001512:	f8cd 9000 	str.w	r9, [sp]
 8001516:	4619      	mov	r1, r3
 8001518:	220d      	movs	r2, #13
 800151a:	4630      	mov	r0, r6
 800151c:	9403      	str	r4, [sp, #12]
 800151e:	f7ff faed 	bl	8000afc <_Unwind_VRS_Set>
 8001522:	e6ea      	b.n	80012fa <__gnu_unwind_execute+0xe>
 8001524:	4638      	mov	r0, r7
 8001526:	f7ff feb5 	bl	8001294 <next_unwind_byte>
 800152a:	2301      	movs	r3, #1
 800152c:	0301      	lsls	r1, r0, #12
 800152e:	f000 000f 	and.w	r0, r0, #15
 8001532:	f401 2170 	and.w	r1, r1, #983040	; 0xf0000
 8001536:	18c2      	adds	r2, r0, r3
 8001538:	430a      	orrs	r2, r1
 800153a:	4630      	mov	r0, r6
 800153c:	4619      	mov	r1, r3
 800153e:	f7ff fcad 	bl	8000e9c <_Unwind_VRS_Pop>
 8001542:	2800      	cmp	r0, #0
 8001544:	f47f af25 	bne.w	8001392 <__gnu_unwind_execute+0xa6>
 8001548:	e6d7      	b.n	80012fa <__gnu_unwind_execute+0xe>
 800154a:	4638      	mov	r0, r7
 800154c:	f7ff fea2 	bl	8001294 <next_unwind_byte>
 8001550:	0301      	lsls	r1, r0, #12
 8001552:	f000 000f 	and.w	r0, r0, #15
 8001556:	2303      	movs	r3, #3
 8001558:	f401 2170 	and.w	r1, r1, #983040	; 0xf0000
 800155c:	1c42      	adds	r2, r0, #1
 800155e:	e7eb      	b.n	8001538 <__gnu_unwind_execute+0x24c>
 8001560:	4638      	mov	r0, r7
 8001562:	f7ff fe97 	bl	8001294 <next_unwind_byte>
 8001566:	2800      	cmp	r0, #0
 8001568:	f43f af13 	beq.w	8001392 <__gnu_unwind_execute+0xa6>
 800156c:	f010 03f0 	ands.w	r3, r0, #240	; 0xf0
 8001570:	f47f af0f 	bne.w	8001392 <__gnu_unwind_execute+0xa6>
 8001574:	4602      	mov	r2, r0
 8001576:	2104      	movs	r1, #4
 8001578:	4630      	mov	r0, r6
 800157a:	f7ff fc8f 	bl	8000e9c <_Unwind_VRS_Pop>
 800157e:	2800      	cmp	r0, #0
 8001580:	f47f af07 	bne.w	8001392 <__gnu_unwind_execute+0xa6>
 8001584:	e6b9      	b.n	80012fa <__gnu_unwind_execute+0xe>
 8001586:	2303      	movs	r3, #3
 8001588:	f000 020f 	and.w	r2, r0, #15
 800158c:	3201      	adds	r2, #1
 800158e:	f442 2220 	orr.w	r2, r2, #655360	; 0xa0000
 8001592:	4619      	mov	r1, r3
 8001594:	4630      	mov	r0, r6
 8001596:	f7ff fc81 	bl	8000e9c <_Unwind_VRS_Pop>
 800159a:	2800      	cmp	r0, #0
 800159c:	f47f aef9 	bne.w	8001392 <__gnu_unwind_execute+0xa6>
 80015a0:	e6ab      	b.n	80012fa <__gnu_unwind_execute+0xe>
 80015a2:	4638      	mov	r0, r7
 80015a4:	f7ff fe76 	bl	8001294 <next_unwind_byte>
 80015a8:	f000 02f0 	and.w	r2, r0, #240	; 0xf0
 80015ac:	f000 030f 	and.w	r3, r0, #15
 80015b0:	3210      	adds	r2, #16
 80015b2:	3301      	adds	r3, #1
 80015b4:	ea43 3202 	orr.w	r2, r3, r2, lsl #12
 80015b8:	e6e4      	b.n	8001384 <__gnu_unwind_execute+0x98>
 80015ba:	bf00      	nop

080015bc <__gnu_unwind_frame>:
 80015bc:	b530      	push	{r4, r5, lr}
 80015be:	2403      	movs	r4, #3
 80015c0:	460d      	mov	r5, r1
 80015c2:	6cc3      	ldr	r3, [r0, #76]	; 0x4c
 80015c4:	b085      	sub	sp, #20
 80015c6:	685a      	ldr	r2, [r3, #4]
 80015c8:	f88d 400c 	strb.w	r4, [sp, #12]
 80015cc:	79dc      	ldrb	r4, [r3, #7]
 80015ce:	0212      	lsls	r2, r2, #8
 80015d0:	3308      	adds	r3, #8
 80015d2:	a901      	add	r1, sp, #4
 80015d4:	4628      	mov	r0, r5
 80015d6:	9201      	str	r2, [sp, #4]
 80015d8:	f88d 400d 	strb.w	r4, [sp, #13]
 80015dc:	9302      	str	r3, [sp, #8]
 80015de:	f7ff fe85 	bl	80012ec <__gnu_unwind_execute>
 80015e2:	b005      	add	sp, #20
 80015e4:	bd30      	pop	{r4, r5, pc}
 80015e6:	bf00      	nop

080015e8 <_Unwind_GetRegionStart>:
 80015e8:	b508      	push	{r3, lr}
 80015ea:	f7ff fe7d 	bl	80012e8 <unwind_UCB_from_context>
 80015ee:	6c80      	ldr	r0, [r0, #72]	; 0x48
 80015f0:	bd08      	pop	{r3, pc}
 80015f2:	bf00      	nop

080015f4 <_Unwind_GetLanguageSpecificData>:
 80015f4:	b508      	push	{r3, lr}
 80015f6:	f7ff fe77 	bl	80012e8 <unwind_UCB_from_context>
 80015fa:	6cc0      	ldr	r0, [r0, #76]	; 0x4c
 80015fc:	79c3      	ldrb	r3, [r0, #7]
 80015fe:	eb00 0083 	add.w	r0, r0, r3, lsl #2
 8001602:	3008      	adds	r0, #8
 8001604:	bd08      	pop	{r3, pc}
 8001606:	bf00      	nop

08001608 <_Unwind_GetTextRelBase>:
 8001608:	b508      	push	{r3, lr}
 800160a:	f003 fff9 	bl	8005600 <abort>
 800160e:	bf00      	nop

08001610 <_Unwind_GetDataRelBase>:
 8001610:	b508      	push	{r3, lr}
 8001612:	f7ff fff9 	bl	8001608 <_Unwind_GetTextRelBase>
 8001616:	bf00      	nop

08001618 <_ZN9ADC_Tools14getVoltageAvrgEv>:

	/** Abstract method to return voltage value average.
	 * Need to be defined in derived class - in case it won't be defined it return getVoltage() result
	 * @return float voltageAverage or float voltage
	 */
	virtual float getVoltageAvrg()      { return value; };
 8001618:	b480      	push	{r7}
 800161a:	b083      	sub	sp, #12
 800161c:	af00      	add	r7, sp, #0
 800161e:	6078      	str	r0, [r7, #4]
 8001620:	687b      	ldr	r3, [r7, #4]
 8001622:	695b      	ldr	r3, [r3, #20]
 8001624:	4618      	mov	r0, r3
 8001626:	370c      	adds	r7, #12
 8001628:	46bd      	mov	sp, r7
 800162a:	bc80      	pop	{r7}
 800162c:	4770      	bx	lr

0800162e <_ZNK9ADC_Tools13getPercentageEv>:
	/** Abstract method to return percent value in reference to maximum and minimum voltage value.
	 * Could be defined in derived class - normally it returned percent value in voltage range <max, min>
	 * (defined in Constructor ADC_Tools())
	 * @return float voltageAverage or voltage
	 */
	virtual float getPercentage()const	{ return per; };
 800162e:	b480      	push	{r7}
 8001630:	b083      	sub	sp, #12
 8001632:	af00      	add	r7, sp, #0
 8001634:	6078      	str	r0, [r7, #4]
 8001636:	687b      	ldr	r3, [r7, #4]
 8001638:	699b      	ldr	r3, [r3, #24]
 800163a:	4618      	mov	r0, r3
 800163c:	370c      	adds	r7, #12
 800163e:	46bd      	mov	sp, r7
 8001640:	bc80      	pop	{r7}
 8001642:	4770      	bx	lr

08001644 <_ZN9ADC_Tools17getPercentageAvrgEv>:

	/** Abstract method to return voltage value average.
	 * Need to be defined in derived class - in case it won't be defined it return getVoltage() result
	 * @return float voltageAverage or float voltage
	 */
	virtual float getPercentageAvrg()   { return per; };
 8001644:	b480      	push	{r7}
 8001646:	b083      	sub	sp, #12
 8001648:	af00      	add	r7, sp, #0
 800164a:	6078      	str	r0, [r7, #4]
 800164c:	687b      	ldr	r3, [r7, #4]
 800164e:	699b      	ldr	r3, [r3, #24]
 8001650:	4618      	mov	r0, r3
 8001652:	370c      	adds	r7, #12
 8001654:	46bd      	mov	sp, r7
 8001656:	bc80      	pop	{r7}
 8001658:	4770      	bx	lr
	...

0800165c <_ZN9ADC_ToolsC1Effm>:

#include "ADC_Tools.h"



ADC_Tools::ADC_Tools(float max, float min,uint32_t res ):maxVal(max), minVal(min),bitResolution(res),
 800165c:	b480      	push	{r7}
 800165e:	b085      	sub	sp, #20
 8001660:	af00      	add	r7, sp, #0
 8001662:	60f8      	str	r0, [r7, #12]
 8001664:	60b9      	str	r1, [r7, #8]
 8001666:	607a      	str	r2, [r7, #4]
 8001668:	603b      	str	r3, [r7, #0]
					   per(0), value(0){
 800166a:	4a12      	ldr	r2, [pc, #72]	; (80016b4 <_ZN9ADC_ToolsC1Effm+0x58>)
 800166c:	68fb      	ldr	r3, [r7, #12]
 800166e:	601a      	str	r2, [r3, #0]
 8001670:	683b      	ldr	r3, [r7, #0]
 8001672:	b29a      	uxth	r2, r3
 8001674:	68fb      	ldr	r3, [r7, #12]
 8001676:	809a      	strh	r2, [r3, #4]
 8001678:	68fb      	ldr	r3, [r7, #12]
 800167a:	68ba      	ldr	r2, [r7, #8]
 800167c:	609a      	str	r2, [r3, #8]
 800167e:	68fb      	ldr	r3, [r7, #12]
 8001680:	687a      	ldr	r2, [r7, #4]
 8001682:	60da      	str	r2, [r3, #12]
 8001684:	68fb      	ldr	r3, [r7, #12]
 8001686:	f04f 0200 	mov.w	r2, #0
 800168a:	615a      	str	r2, [r3, #20]
 800168c:	68fb      	ldr	r3, [r7, #12]
 800168e:	f04f 0200 	mov.w	r2, #0
 8001692:	619a      	str	r2, [r3, #24]
	maxLevels = 2 << (bitResolution - 1);
 8001694:	68fb      	ldr	r3, [r7, #12]
 8001696:	889b      	ldrh	r3, [r3, #4]
 8001698:	3b01      	subs	r3, #1
 800169a:	2202      	movs	r2, #2
 800169c:	fa02 f303 	lsl.w	r3, r2, r3
 80016a0:	461a      	mov	r2, r3
 80016a2:	68fb      	ldr	r3, [r7, #12]
 80016a4:	611a      	str	r2, [r3, #16]
}
 80016a6:	68fb      	ldr	r3, [r7, #12]
 80016a8:	4618      	mov	r0, r3
 80016aa:	3714      	adds	r7, #20
 80016ac:	46bd      	mov	sp, r7
 80016ae:	bc80      	pop	{r7}
 80016b0:	4770      	bx	lr
 80016b2:	bf00      	nop
 80016b4:	08005904 	.word	0x08005904

080016b8 <_ZN9ADC_Tools17updateMeasurmentsEm>:
	bitResolution = res;
	maxLevels = 2 << (bitResolution - 1);
}
*/

void ADC_Tools::updateMeasurments(uint32_t val){
 80016b8:	b580      	push	{r7, lr}
 80016ba:	b082      	sub	sp, #8
 80016bc:	af00      	add	r7, sp, #0
 80016be:	6078      	str	r0, [r7, #4]
 80016c0:	6039      	str	r1, [r7, #0]
	value = convertToVoltage(val);
 80016c2:	6839      	ldr	r1, [r7, #0]
 80016c4:	6878      	ldr	r0, [r7, #4]
 80016c6:	f000 f810 	bl	80016ea <_ZN9ADC_Tools16convertToVoltageEm>
 80016ca:	4602      	mov	r2, r0
 80016cc:	687b      	ldr	r3, [r7, #4]
 80016ce:	615a      	str	r2, [r3, #20]
	per = convertToPercentage(value);
 80016d0:	687b      	ldr	r3, [r7, #4]
 80016d2:	695b      	ldr	r3, [r3, #20]
 80016d4:	4619      	mov	r1, r3
 80016d6:	6878      	ldr	r0, [r7, #4]
 80016d8:	f000 f828 	bl	800172c <_ZN9ADC_Tools19convertToPercentageEf>
 80016dc:	4602      	mov	r2, r0
 80016de:	687b      	ldr	r3, [r7, #4]
 80016e0:	619a      	str	r2, [r3, #24]

}
 80016e2:	bf00      	nop
 80016e4:	3708      	adds	r7, #8
 80016e6:	46bd      	mov	sp, r7
 80016e8:	bd80      	pop	{r7, pc}

080016ea <_ZN9ADC_Tools16convertToVoltageEm>:

float ADC_Tools::convertToVoltage(uint32_t raw) {
 80016ea:	b590      	push	{r4, r7, lr}
 80016ec:	b083      	sub	sp, #12
 80016ee:	af00      	add	r7, sp, #0
 80016f0:	6078      	str	r0, [r7, #4]
 80016f2:	6039      	str	r1, [r7, #0]
	return ((float)raw * maxVal) / (float)maxLevels;
 80016f4:	6838      	ldr	r0, [r7, #0]
 80016f6:	f7fe fdeb 	bl	80002d0 <__aeabi_ui2f>
 80016fa:	4602      	mov	r2, r0
 80016fc:	687b      	ldr	r3, [r7, #4]
 80016fe:	689b      	ldr	r3, [r3, #8]
 8001700:	4619      	mov	r1, r3
 8001702:	4610      	mov	r0, r2
 8001704:	f7fe fe3c 	bl	8000380 <__aeabi_fmul>
 8001708:	4603      	mov	r3, r0
 800170a:	461c      	mov	r4, r3
 800170c:	687b      	ldr	r3, [r7, #4]
 800170e:	691b      	ldr	r3, [r3, #16]
 8001710:	4618      	mov	r0, r3
 8001712:	f7fe fddd 	bl	80002d0 <__aeabi_ui2f>
 8001716:	4603      	mov	r3, r0
 8001718:	4619      	mov	r1, r3
 800171a:	4620      	mov	r0, r4
 800171c:	f7fe fee4 	bl	80004e8 <__aeabi_fdiv>
 8001720:	4603      	mov	r3, r0
}
 8001722:	4618      	mov	r0, r3
 8001724:	370c      	adds	r7, #12
 8001726:	46bd      	mov	sp, r7
 8001728:	bd90      	pop	{r4, r7, pc}
	...

0800172c <_ZN9ADC_Tools19convertToPercentageEf>:

float ADC_Tools::convertToPercentage(float val) {
 800172c:	b590      	push	{r4, r7, lr}
 800172e:	b083      	sub	sp, #12
 8001730:	af00      	add	r7, sp, #0
 8001732:	6078      	str	r0, [r7, #4]
 8001734:	6039      	str	r1, [r7, #0]
	return 100.f * ((val - minVal) / (maxVal - minVal));
 8001736:	687b      	ldr	r3, [r7, #4]
 8001738:	68db      	ldr	r3, [r3, #12]
 800173a:	4619      	mov	r1, r3
 800173c:	6838      	ldr	r0, [r7, #0]
 800173e:	f7fe fd15 	bl	800016c <__aeabi_fsub>
 8001742:	4603      	mov	r3, r0
 8001744:	461c      	mov	r4, r3
 8001746:	687b      	ldr	r3, [r7, #4]
 8001748:	689a      	ldr	r2, [r3, #8]
 800174a:	687b      	ldr	r3, [r7, #4]
 800174c:	68db      	ldr	r3, [r3, #12]
 800174e:	4619      	mov	r1, r3
 8001750:	4610      	mov	r0, r2
 8001752:	f7fe fd0b 	bl	800016c <__aeabi_fsub>
 8001756:	4603      	mov	r3, r0
 8001758:	4619      	mov	r1, r3
 800175a:	4620      	mov	r0, r4
 800175c:	f7fe fec4 	bl	80004e8 <__aeabi_fdiv>
 8001760:	4603      	mov	r3, r0
 8001762:	4904      	ldr	r1, [pc, #16]	; (8001774 <_ZN9ADC_Tools19convertToPercentageEf+0x48>)
 8001764:	4618      	mov	r0, r3
 8001766:	f7fe fe0b 	bl	8000380 <__aeabi_fmul>
 800176a:	4603      	mov	r3, r0

}
 800176c:	4618      	mov	r0, r3
 800176e:	370c      	adds	r7, #12
 8001770:	46bd      	mov	sp, r7
 8001772:	bd90      	pop	{r4, r7, pc}
 8001774:	42c80000 	.word	0x42c80000

08001778 <_ZNK9ADC_Tools10getVoltageEv>:
	float getVoltage()const				{ return value; };
 8001778:	b480      	push	{r7}
 800177a:	b083      	sub	sp, #12
 800177c:	af00      	add	r7, sp, #0
 800177e:	6078      	str	r0, [r7, #4]
 8001780:	687b      	ldr	r3, [r7, #4]
 8001782:	695b      	ldr	r3, [r3, #20]
 8001784:	4618      	mov	r0, r3
 8001786:	370c      	adds	r7, #12
 8001788:	46bd      	mov	sp, r7
 800178a:	bc80      	pop	{r7}
 800178c:	4770      	bx	lr
	...

08001790 <_Z13AllTasks_initv>:
LedNotifier led(LD2_GPIO_Port, LD2_Pin, &htim4);
LedNotifier led1(LED1_GPIO_Port, LED1_Pin, &htim4);
LedNotifier led2(LED2_GPIO_Port, LED2_Pin, &htim4);


void AllTasks_init(){
 8001790:	b5b0      	push	{r4, r5, r7, lr}
 8001792:	b08e      	sub	sp, #56	; 0x38
 8001794:	af00      	add	r7, sp, #0

	  osThreadDef(BatteryManagerTask, StartBatteryManagerTask, osPriorityNormal, 0, 256);
 8001796:	4b16      	ldr	r3, [pc, #88]	; (80017f0 <_Z13AllTasks_initv+0x60>)
 8001798:	f107 041c 	add.w	r4, r7, #28
 800179c:	461d      	mov	r5, r3
 800179e:	cd0f      	ldmia	r5!, {r0, r1, r2, r3}
 80017a0:	c40f      	stmia	r4!, {r0, r1, r2, r3}
 80017a2:	e895 0007 	ldmia.w	r5, {r0, r1, r2}
 80017a6:	e884 0007 	stmia.w	r4, {r0, r1, r2}
	  BatteryManagerHandle = osThreadCreate(osThread(BatteryManagerTask), NULL);
 80017aa:	f107 031c 	add.w	r3, r7, #28
 80017ae:	2100      	movs	r1, #0
 80017b0:	4618      	mov	r0, r3
 80017b2:	f002 fbec 	bl	8003f8e <osThreadCreate>
 80017b6:	4602      	mov	r2, r0
 80017b8:	4b0e      	ldr	r3, [pc, #56]	; (80017f4 <_Z13AllTasks_initv+0x64>)
 80017ba:	601a      	str	r2, [r3, #0]

	  osThreadDef(LedUpTask, StartLedUpTask, osPriorityBelowNormal, 0, 256);
 80017bc:	4b0e      	ldr	r3, [pc, #56]	; (80017f8 <_Z13AllTasks_initv+0x68>)
 80017be:	463c      	mov	r4, r7
 80017c0:	461d      	mov	r5, r3
 80017c2:	cd0f      	ldmia	r5!, {r0, r1, r2, r3}
 80017c4:	c40f      	stmia	r4!, {r0, r1, r2, r3}
 80017c6:	e895 0007 	ldmia.w	r5, {r0, r1, r2}
 80017ca:	e884 0007 	stmia.w	r4, {r0, r1, r2}
	  LedUpHandle = osThreadCreate(osThread(LedUpTask), NULL);
 80017ce:	463b      	mov	r3, r7
 80017d0:	2100      	movs	r1, #0
 80017d2:	4618      	mov	r0, r3
 80017d4:	f002 fbdb 	bl	8003f8e <osThreadCreate>
 80017d8:	4602      	mov	r2, r0
 80017da:	4b08      	ldr	r3, [pc, #32]	; (80017fc <_Z13AllTasks_initv+0x6c>)
 80017dc:	601a      	str	r2, [r3, #0]


	  HAL_UART_Receive_IT(&huart3, &RXdata, 1);
 80017de:	2201      	movs	r2, #1
 80017e0:	4907      	ldr	r1, [pc, #28]	; (8001800 <_Z13AllTasks_initv+0x70>)
 80017e2:	4808      	ldr	r0, [pc, #32]	; (8001804 <_Z13AllTasks_initv+0x74>)
 80017e4:	f002 fac2 	bl	8003d6c <HAL_UART_Receive_IT>

}
 80017e8:	bf00      	nop
 80017ea:	3738      	adds	r7, #56	; 0x38
 80017ec:	46bd      	mov	sp, r7
 80017ee:	bdb0      	pop	{r4, r5, r7, pc}
 80017f0:	08005808 	.word	0x08005808
 80017f4:	2000009c 	.word	0x2000009c
 80017f8:	08005830 	.word	0x08005830
 80017fc:	200000a0 	.word	0x200000a0
 8001800:	200000c2 	.word	0x200000c2
 8001804:	200011e0 	.word	0x200011e0

08001808 <_ZN8LipoCellD1Ev>:
#define AVERAGE_SIZE_LIPO      10

/** Class providing tools for lipo cell voltage measurments.
 *
 * It uses Average() class object with fixed number of samples take into calculations (#AVERAGE_SIZE_LIPO) */
class LipoCell:  public ADC_Tools
 8001808:	b580      	push	{r7, lr}
 800180a:	b082      	sub	sp, #8
 800180c:	af00      	add	r7, sp, #0
 800180e:	6078      	str	r0, [r7, #4]
 8001810:	4a06      	ldr	r2, [pc, #24]	; (800182c <_ZN8LipoCellD1Ev+0x24>)
 8001812:	687b      	ldr	r3, [r7, #4]
 8001814:	601a      	str	r2, [r3, #0]
 8001816:	687b      	ldr	r3, [r7, #4]
 8001818:	331c      	adds	r3, #28
 800181a:	4618      	mov	r0, r3
 800181c:	f000 f8fe 	bl	8001a1c <_ZN7AverageIfLh10EED1Ev>
 8001820:	687b      	ldr	r3, [r7, #4]
 8001822:	4618      	mov	r0, r3
 8001824:	3708      	adds	r7, #8
 8001826:	46bd      	mov	sp, r7
 8001828:	bd80      	pop	{r7, pc}
 800182a:	bf00      	nop
 800182c:	0800587c 	.word	0x0800587c

08001830 <_Z23StartBatteryManagerTaskPKv>:


void StartBatteryManagerTask(void const * argument){
 8001830:	b580      	push	{r7, lr}
 8001832:	b096      	sub	sp, #88	; 0x58
 8001834:	af00      	add	r7, sp, #0
 8001836:	6078      	str	r0, [r7, #4]


	uint8_t blinkFlag=0;
 8001838:	2300      	movs	r3, #0
 800183a:	f887 3057 	strb.w	r3, [r7, #87]	; 0x57
	LipoCell lipo(3.3f);
 800183e:	f107 0308 	add.w	r3, r7, #8
 8001842:	4930      	ldr	r1, [pc, #192]	; (8001904 <_Z23StartBatteryManagerTaskPKv+0xd4>)
 8001844:	4618      	mov	r0, r3
 8001846:	f000 fb49 	bl	8001edc <_ZN8LipoCellC1Ef>
	HAL_ADC_Start(&hadc1);
 800184a:	482f      	ldr	r0, [pc, #188]	; (8001908 <_Z23StartBatteryManagerTaskPKv+0xd8>)
 800184c:	f001 f878 	bl	8002940 <HAL_ADC_Start>
	HAL_ADC_Start_DMA(&hadc1, receiveADC, 2);
 8001850:	2202      	movs	r2, #2
 8001852:	492e      	ldr	r1, [pc, #184]	; (800190c <_Z23StartBatteryManagerTaskPKv+0xdc>)
 8001854:	482c      	ldr	r0, [pc, #176]	; (8001908 <_Z23StartBatteryManagerTaskPKv+0xd8>)
 8001856:	f001 f8d5 	bl	8002a04 <HAL_ADC_Start_DMA>

	for(;;){

		lipo.update(receiveADC[0]);
 800185a:	4b2c      	ldr	r3, [pc, #176]	; (800190c <_Z23StartBatteryManagerTaskPKv+0xdc>)
 800185c:	681a      	ldr	r2, [r3, #0]
 800185e:	f107 0308 	add.w	r3, r7, #8
 8001862:	4611      	mov	r1, r2
 8001864:	4618      	mov	r0, r3
 8001866:	f000 fb5b 	bl	8001f20 <_ZN8LipoCell6updateEm>
		per = lipo.getPercentage();
 800186a:	f107 0308 	add.w	r3, r7, #8
 800186e:	4618      	mov	r0, r3
 8001870:	f7ff fedd 	bl	800162e <_ZNK9ADC_Tools13getPercentageEv>
 8001874:	4602      	mov	r2, r0
 8001876:	4b26      	ldr	r3, [pc, #152]	; (8001910 <_Z23StartBatteryManagerTaskPKv+0xe0>)
 8001878:	601a      	str	r2, [r3, #0]
		volt= lipo.getVoltage();
 800187a:	f107 0308 	add.w	r3, r7, #8
 800187e:	4618      	mov	r0, r3
 8001880:	f7ff ff7a 	bl	8001778 <_ZNK9ADC_Tools10getVoltageEv>
 8001884:	4602      	mov	r2, r0
 8001886:	4b23      	ldr	r3, [pc, #140]	; (8001914 <_Z23StartBatteryManagerTaskPKv+0xe4>)
 8001888:	601a      	str	r2, [r3, #0]
		perAvrg = lipo.getPercentageAvrg();
 800188a:	f107 0308 	add.w	r3, r7, #8
 800188e:	4618      	mov	r0, r3
 8001890:	f000 fb6f 	bl	8001f72 <_ZN8LipoCell17getPercentageAvrgEv>
 8001894:	4602      	mov	r2, r0
 8001896:	4b20      	ldr	r3, [pc, #128]	; (8001918 <_Z23StartBatteryManagerTaskPKv+0xe8>)
 8001898:	601a      	str	r2, [r3, #0]
		voltAvrg= lipo.getVoltageAvrg();
 800189a:	f107 0308 	add.w	r3, r7, #8
 800189e:	4618      	mov	r0, r3
 80018a0:	f000 fb58 	bl	8001f54 <_ZN8LipoCell14getVoltageAvrgEv>
 80018a4:	4602      	mov	r2, r0
 80018a6:	4b1d      	ldr	r3, [pc, #116]	; (800191c <_Z23StartBatteryManagerTaskPKv+0xec>)
 80018a8:	601a      	str	r2, [r3, #0]

		if(voltAvrg >=2.5f && blinkFlag==0){
 80018aa:	4b1c      	ldr	r3, [pc, #112]	; (800191c <_Z23StartBatteryManagerTaskPKv+0xec>)
 80018ac:	681b      	ldr	r3, [r3, #0]
 80018ae:	491c      	ldr	r1, [pc, #112]	; (8001920 <_Z23StartBatteryManagerTaskPKv+0xf0>)
 80018b0:	4618      	mov	r0, r3
 80018b2:	f7fe ff17 	bl	80006e4 <__aeabi_fcmpge>
 80018b6:	4603      	mov	r3, r0
 80018b8:	2b00      	cmp	r3, #0
 80018ba:	d017      	beq.n	80018ec <_Z23StartBatteryManagerTaskPKv+0xbc>
 80018bc:	f897 3057 	ldrb.w	r3, [r7, #87]	; 0x57
 80018c0:	2b00      	cmp	r3, #0
 80018c2:	d113      	bne.n	80018ec <_Z23StartBatteryManagerTaskPKv+0xbc>
			led.blink_config(500,1000);
 80018c4:	f44f 727a 	mov.w	r2, #1000	; 0x3e8
 80018c8:	f44f 71fa 	mov.w	r1, #500	; 0x1f4
 80018cc:	4815      	ldr	r0, [pc, #84]	; (8001924 <_Z23StartBatteryManagerTaskPKv+0xf4>)
 80018ce:	f000 fa09 	bl	8001ce4 <_ZN11LedNotifier12blink_configEmm>
			led1.blink_config(1000,200);
 80018d2:	22c8      	movs	r2, #200	; 0xc8
 80018d4:	f44f 717a 	mov.w	r1, #1000	; 0x3e8
 80018d8:	4813      	ldr	r0, [pc, #76]	; (8001928 <_Z23StartBatteryManagerTaskPKv+0xf8>)
 80018da:	f000 fa03 	bl	8001ce4 <_ZN11LedNotifier12blink_configEmm>
			led2.blink_config(25);
 80018de:	2119      	movs	r1, #25
 80018e0:	4812      	ldr	r0, [pc, #72]	; (800192c <_Z23StartBatteryManagerTaskPKv+0xfc>)
 80018e2:	f000 f9f0 	bl	8001cc6 <_ZN11LedNotifier12blink_configEm>
			blinkFlag = 1;
 80018e6:	2301      	movs	r3, #1
 80018e8:	f887 3057 	strb.w	r3, [r7, #87]	; 0x57
//			blinkFlag = 0;
//			led.on();
//		}


		osDelay(100);
 80018ec:	2064      	movs	r0, #100	; 0x64
 80018ee:	f002 fb76 	bl	8003fde <osDelay>
		lipo.update(receiveADC[0]);
 80018f2:	e7b2      	b.n	800185a <_Z23StartBatteryManagerTaskPKv+0x2a>
	LipoCell lipo(3.3f);
 80018f4:	f107 0308 	add.w	r3, r7, #8
 80018f8:	4618      	mov	r0, r3
 80018fa:	f7ff ff85 	bl	8001808 <_ZN8LipoCellD1Ev>
 80018fe:	f003 f9f9 	bl	8004cf4 <__cxa_end_cleanup>
 8001902:	bf00      	nop
 8001904:	40533333 	.word	0x40533333
 8001908:	200010dc 	.word	0x200010dc
 800190c:	200000a4 	.word	0x200000a4
 8001910:	200000ac 	.word	0x200000ac
 8001914:	200000b0 	.word	0x200000b0
 8001918:	200000b4 	.word	0x200000b4
 800191c:	200000b8 	.word	0x200000b8
 8001920:	40200000 	.word	0x40200000
 8001924:	200000c4 	.word	0x200000c4
 8001928:	200000e4 	.word	0x200000e4
 800192c:	20000104 	.word	0x20000104

08001930 <_Z14StartLedUpTaskPKv>:


	}
}

void StartLedUpTask(void const * argument){
 8001930:	b580      	push	{r7, lr}
 8001932:	b082      	sub	sp, #8
 8001934:	af00      	add	r7, sp, #0
 8001936:	6078      	str	r0, [r7, #4]

	time_tool.init();
 8001938:	4813      	ldr	r0, [pc, #76]	; (8001988 <_Z14StartLedUpTaskPKv+0x58>)
 800193a:	f000 fb65 	bl	8002008 <_ZN8TimeTool4initEv>

	for(;;){
		currentTime[2]= time_tool.getMicros();
 800193e:	4812      	ldr	r0, [pc, #72]	; (8001988 <_Z14StartLedUpTaskPKv+0x58>)
 8001940:	f000 fb2c 	bl	8001f9c <_ZN8TimeTool9getMicrosEv>
 8001944:	4603      	mov	r3, r0
 8001946:	461a      	mov	r2, r3
 8001948:	4b10      	ldr	r3, [pc, #64]	; (800198c <_Z14StartLedUpTaskPKv+0x5c>)
 800194a:	809a      	strh	r2, [r3, #4]
		currentTime[0]= time_tool.compareMicros(currentTime[2], currentTime[1]);
 800194c:	4b0f      	ldr	r3, [pc, #60]	; (800198c <_Z14StartLedUpTaskPKv+0x5c>)
 800194e:	8899      	ldrh	r1, [r3, #4]
 8001950:	4b0e      	ldr	r3, [pc, #56]	; (800198c <_Z14StartLedUpTaskPKv+0x5c>)
 8001952:	885b      	ldrh	r3, [r3, #2]
 8001954:	461a      	mov	r2, r3
 8001956:	480c      	ldr	r0, [pc, #48]	; (8001988 <_Z14StartLedUpTaskPKv+0x58>)
 8001958:	f000 fb30 	bl	8001fbc <_ZN8TimeTool13compareMicrosEtt>
 800195c:	4603      	mov	r3, r0
 800195e:	461a      	mov	r2, r3
 8001960:	4b0a      	ldr	r3, [pc, #40]	; (800198c <_Z14StartLedUpTaskPKv+0x5c>)
 8001962:	801a      	strh	r2, [r3, #0]
		currentTime[1] = currentTime[2];
 8001964:	4b09      	ldr	r3, [pc, #36]	; (800198c <_Z14StartLedUpTaskPKv+0x5c>)
 8001966:	889a      	ldrh	r2, [r3, #4]
 8001968:	4b08      	ldr	r3, [pc, #32]	; (800198c <_Z14StartLedUpTaskPKv+0x5c>)
 800196a:	805a      	strh	r2, [r3, #2]

		led.blink_process();
 800196c:	4808      	ldr	r0, [pc, #32]	; (8001990 <_Z14StartLedUpTaskPKv+0x60>)
 800196e:	f000 f9db 	bl	8001d28 <_ZN11LedNotifier13blink_processEv>
		led1.blink_process();
 8001972:	4808      	ldr	r0, [pc, #32]	; (8001994 <_Z14StartLedUpTaskPKv+0x64>)
 8001974:	f000 f9d8 	bl	8001d28 <_ZN11LedNotifier13blink_processEv>
		led2.blink_process();
 8001978:	4807      	ldr	r0, [pc, #28]	; (8001998 <_Z14StartLedUpTaskPKv+0x68>)
 800197a:	f000 f9d5 	bl	8001d28 <_ZN11LedNotifier13blink_processEv>
//				led.blink_process();
//
//			}


		osDelay(10);
 800197e:	200a      	movs	r0, #10
 8001980:	f002 fb2d 	bl	8003fde <osDelay>
		currentTime[2]= time_tool.getMicros();
 8001984:	e7db      	b.n	800193e <_Z14StartLedUpTaskPKv+0xe>
 8001986:	bf00      	nop
 8001988:	20000124 	.word	0x20000124
 800198c:	200000bc 	.word	0x200000bc
 8001990:	200000c4 	.word	0x200000c4
 8001994:	200000e4 	.word	0x200000e4
 8001998:	20000104 	.word	0x20000104

0800199c <HAL_UART_RxCpltCallback>:

	}
}

void HAL_UART_RxCpltCallback(UART_HandleTypeDef *huart){
 800199c:	b580      	push	{r7, lr}
 800199e:	b082      	sub	sp, #8
 80019a0:	af00      	add	r7, sp, #0
 80019a2:	6078      	str	r0, [r7, #4]
	//static uint16_t per =500;
	if	   (RXdata == 'n') led.on();
 80019a4:	4b11      	ldr	r3, [pc, #68]	; (80019ec <HAL_UART_RxCpltCallback+0x50>)
 80019a6:	781b      	ldrb	r3, [r3, #0]
 80019a8:	2b6e      	cmp	r3, #110	; 0x6e
 80019aa:	d103      	bne.n	80019b4 <HAL_UART_RxCpltCallback+0x18>
 80019ac:	4810      	ldr	r0, [pc, #64]	; (80019f0 <HAL_UART_RxCpltCallback+0x54>)
 80019ae:	f000 f94c 	bl	8001c4a <_ZN11LedNotifier2onEv>
 80019b2:	e012      	b.n	80019da <HAL_UART_RxCpltCallback+0x3e>
	else if(RXdata == 'f') led.off();
 80019b4:	4b0d      	ldr	r3, [pc, #52]	; (80019ec <HAL_UART_RxCpltCallback+0x50>)
 80019b6:	781b      	ldrb	r3, [r3, #0]
 80019b8:	2b66      	cmp	r3, #102	; 0x66
 80019ba:	d103      	bne.n	80019c4 <HAL_UART_RxCpltCallback+0x28>
 80019bc:	480c      	ldr	r0, [pc, #48]	; (80019f0 <HAL_UART_RxCpltCallback+0x54>)
 80019be:	f000 f963 	bl	8001c88 <_ZN11LedNotifier3offEv>
 80019c2:	e00a      	b.n	80019da <HAL_UART_RxCpltCallback+0x3e>
	else if(RXdata == 'b') led.blink_config(500,1000);
 80019c4:	4b09      	ldr	r3, [pc, #36]	; (80019ec <HAL_UART_RxCpltCallback+0x50>)
 80019c6:	781b      	ldrb	r3, [r3, #0]
 80019c8:	2b62      	cmp	r3, #98	; 0x62
 80019ca:	d106      	bne.n	80019da <HAL_UART_RxCpltCallback+0x3e>
 80019cc:	f44f 727a 	mov.w	r2, #1000	; 0x3e8
 80019d0:	f44f 71fa 	mov.w	r1, #500	; 0x1f4
 80019d4:	4806      	ldr	r0, [pc, #24]	; (80019f0 <HAL_UART_RxCpltCallback+0x54>)
 80019d6:	f000 f985 	bl	8001ce4 <_ZN11LedNotifier12blink_configEmm>


	HAL_UART_Receive_IT(&huart3, &RXdata, 1);
 80019da:	2201      	movs	r2, #1
 80019dc:	4903      	ldr	r1, [pc, #12]	; (80019ec <HAL_UART_RxCpltCallback+0x50>)
 80019de:	4805      	ldr	r0, [pc, #20]	; (80019f4 <HAL_UART_RxCpltCallback+0x58>)
 80019e0:	f002 f9c4 	bl	8003d6c <HAL_UART_Receive_IT>
}
 80019e4:	bf00      	nop
 80019e6:	3708      	adds	r7, #8
 80019e8:	46bd      	mov	sp, r7
 80019ea:	bd80      	pop	{r7, pc}
 80019ec:	200000c2 	.word	0x200000c2
 80019f0:	200000c4 	.word	0x200000c4
 80019f4:	200011e0 	.word	0x200011e0

080019f8 <HAL_TIM_PeriodElapsedCallback>:


void HAL_TIM_PeriodElapsedCallback(TIM_HandleTypeDef *htim)
{
 80019f8:	b580      	push	{r7, lr}
 80019fa:	b082      	sub	sp, #8
 80019fc:	af00      	add	r7, sp, #0
 80019fe:	6078      	str	r0, [r7, #4]

  if (htim->Instance == TIM1) {
 8001a00:	687b      	ldr	r3, [r7, #4]
 8001a02:	681b      	ldr	r3, [r3, #0]
 8001a04:	4a04      	ldr	r2, [pc, #16]	; (8001a18 <HAL_TIM_PeriodElapsedCallback+0x20>)
 8001a06:	4293      	cmp	r3, r2
 8001a08:	d101      	bne.n	8001a0e <HAL_TIM_PeriodElapsedCallback+0x16>
    HAL_IncTick();
 8001a0a:	f000 fe8f 	bl	800272c <HAL_IncTick>
  }


}
 8001a0e:	bf00      	nop
 8001a10:	3708      	adds	r7, #8
 8001a12:	46bd      	mov	sp, r7
 8001a14:	bd80      	pop	{r7, pc}
 8001a16:	bf00      	nop
 8001a18:	40012c00 	.word	0x40012c00

08001a1c <_ZN7AverageIfLh10EED1Ev>:

public:
	Average(){
		clear();
	}
	~Average(){
 8001a1c:	b480      	push	{r7}
 8001a1e:	b083      	sub	sp, #12
 8001a20:	af00      	add	r7, sp, #0
 8001a22:	6078      	str	r0, [r7, #4]

	}
 8001a24:	687b      	ldr	r3, [r7, #4]
 8001a26:	4618      	mov	r0, r3
 8001a28:	370c      	adds	r7, #12
 8001a2a:	46bd      	mov	sp, r7
 8001a2c:	bc80      	pop	{r7}
 8001a2e:	4770      	bx	lr

08001a30 <_Z41__static_initialization_and_destruction_0ii>:
 8001a30:	b580      	push	{r7, lr}
 8001a32:	b084      	sub	sp, #16
 8001a34:	af02      	add	r7, sp, #8
 8001a36:	6078      	str	r0, [r7, #4]
 8001a38:	6039      	str	r1, [r7, #0]
 8001a3a:	687b      	ldr	r3, [r7, #4]
 8001a3c:	2b01      	cmp	r3, #1
 8001a3e:	d12d      	bne.n	8001a9c <_Z41__static_initialization_and_destruction_0ii+0x6c>
 8001a40:	683b      	ldr	r3, [r7, #0]
 8001a42:	f64f 72ff 	movw	r2, #65535	; 0xffff
 8001a46:	4293      	cmp	r3, r2
 8001a48:	d128      	bne.n	8001a9c <_Z41__static_initialization_and_destruction_0ii+0x6c>
LedNotifier led(LD2_GPIO_Port, LD2_Pin, &htim4);
 8001a4a:	2300      	movs	r3, #0
 8001a4c:	9300      	str	r3, [sp, #0]
 8001a4e:	4b15      	ldr	r3, [pc, #84]	; (8001aa4 <_Z41__static_initialization_and_destruction_0ii+0x74>)
 8001a50:	2220      	movs	r2, #32
 8001a52:	4915      	ldr	r1, [pc, #84]	; (8001aa8 <_Z41__static_initialization_and_destruction_0ii+0x78>)
 8001a54:	4815      	ldr	r0, [pc, #84]	; (8001aac <_Z41__static_initialization_and_destruction_0ii+0x7c>)
 8001a56:	f000 f9f1 	bl	8001e3c <_ZN11LedNotifierC1EP12GPIO_TypeDeftP17TIM_HandleTypeDefh>
 8001a5a:	4a15      	ldr	r2, [pc, #84]	; (8001ab0 <_Z41__static_initialization_and_destruction_0ii+0x80>)
 8001a5c:	4915      	ldr	r1, [pc, #84]	; (8001ab4 <_Z41__static_initialization_and_destruction_0ii+0x84>)
 8001a5e:	4813      	ldr	r0, [pc, #76]	; (8001aac <_Z41__static_initialization_and_destruction_0ii+0x7c>)
 8001a60:	f003 f943 	bl	8004cea <__aeabi_atexit>
LedNotifier led1(LED1_GPIO_Port, LED1_Pin, &htim4);
 8001a64:	2300      	movs	r3, #0
 8001a66:	9300      	str	r3, [sp, #0]
 8001a68:	4b0e      	ldr	r3, [pc, #56]	; (8001aa4 <_Z41__static_initialization_and_destruction_0ii+0x74>)
 8001a6a:	f44f 6280 	mov.w	r2, #1024	; 0x400
 8001a6e:	4912      	ldr	r1, [pc, #72]	; (8001ab8 <_Z41__static_initialization_and_destruction_0ii+0x88>)
 8001a70:	4812      	ldr	r0, [pc, #72]	; (8001abc <_Z41__static_initialization_and_destruction_0ii+0x8c>)
 8001a72:	f000 f9e3 	bl	8001e3c <_ZN11LedNotifierC1EP12GPIO_TypeDeftP17TIM_HandleTypeDefh>
 8001a76:	4a0e      	ldr	r2, [pc, #56]	; (8001ab0 <_Z41__static_initialization_and_destruction_0ii+0x80>)
 8001a78:	490e      	ldr	r1, [pc, #56]	; (8001ab4 <_Z41__static_initialization_and_destruction_0ii+0x84>)
 8001a7a:	4810      	ldr	r0, [pc, #64]	; (8001abc <_Z41__static_initialization_and_destruction_0ii+0x8c>)
 8001a7c:	f003 f935 	bl	8004cea <__aeabi_atexit>
LedNotifier led2(LED2_GPIO_Port, LED2_Pin, &htim4);
 8001a80:	2300      	movs	r3, #0
 8001a82:	9300      	str	r3, [sp, #0]
 8001a84:	4b07      	ldr	r3, [pc, #28]	; (8001aa4 <_Z41__static_initialization_and_destruction_0ii+0x74>)
 8001a86:	f44f 6200 	mov.w	r2, #2048	; 0x800
 8001a8a:	490b      	ldr	r1, [pc, #44]	; (8001ab8 <_Z41__static_initialization_and_destruction_0ii+0x88>)
 8001a8c:	480c      	ldr	r0, [pc, #48]	; (8001ac0 <_Z41__static_initialization_and_destruction_0ii+0x90>)
 8001a8e:	f000 f9d5 	bl	8001e3c <_ZN11LedNotifierC1EP12GPIO_TypeDeftP17TIM_HandleTypeDefh>
 8001a92:	4a07      	ldr	r2, [pc, #28]	; (8001ab0 <_Z41__static_initialization_and_destruction_0ii+0x80>)
 8001a94:	4907      	ldr	r1, [pc, #28]	; (8001ab4 <_Z41__static_initialization_and_destruction_0ii+0x84>)
 8001a96:	480a      	ldr	r0, [pc, #40]	; (8001ac0 <_Z41__static_initialization_and_destruction_0ii+0x90>)
 8001a98:	f003 f927 	bl	8004cea <__aeabi_atexit>
}
 8001a9c:	bf00      	nop
 8001a9e:	3708      	adds	r7, #8
 8001aa0:	46bd      	mov	sp, r7
 8001aa2:	bd80      	pop	{r7, pc}
 8001aa4:	20001198 	.word	0x20001198
 8001aa8:	40010800 	.word	0x40010800
 8001aac:	200000c4 	.word	0x200000c4
 8001ab0:	20000000 	.word	0x20000000
 8001ab4:	08001e9d 	.word	0x08001e9d
 8001ab8:	40011000 	.word	0x40011000
 8001abc:	200000e4 	.word	0x200000e4
 8001ac0:	20000104 	.word	0x20000104

08001ac4 <_GLOBAL__sub_I_BatteryManagerHandle>:
 8001ac4:	b580      	push	{r7, lr}
 8001ac6:	af00      	add	r7, sp, #0
 8001ac8:	f64f 71ff 	movw	r1, #65535	; 0xffff
 8001acc:	2001      	movs	r0, #1
 8001ace:	f7ff ffaf 	bl	8001a30 <_Z41__static_initialization_and_destruction_0ii>
 8001ad2:	bd80      	pop	{r7, pc}

08001ad4 <_ZN7AverageIfLh10EEC1Ev>:
	Average(){
 8001ad4:	b580      	push	{r7, lr}
 8001ad6:	b082      	sub	sp, #8
 8001ad8:	af00      	add	r7, sp, #0
 8001ada:	6078      	str	r0, [r7, #4]
		clear();
 8001adc:	6878      	ldr	r0, [r7, #4]
 8001ade:	f000 f826 	bl	8001b2e <_ZN7AverageIfLh10EE5clearEv>
	}
 8001ae2:	687b      	ldr	r3, [r7, #4]
 8001ae4:	4618      	mov	r0, r3
 8001ae6:	3708      	adds	r7, #8
 8001ae8:	46bd      	mov	sp, r7
 8001aea:	bd80      	pop	{r7, pc}

08001aec <_ZN7AverageIfLh10EEclEv>:

	/**Overload of () operator
	 *  Calculate average and return it
	 *  @return average of all data collected in object
	 */
	T& operator()(){
 8001aec:	b580      	push	{r7, lr}
 8001aee:	b082      	sub	sp, #8
 8001af0:	af00      	add	r7, sp, #0
 8001af2:	6078      	str	r0, [r7, #4]
		this->calculate();
 8001af4:	6878      	ldr	r0, [r7, #4]
 8001af6:	f000 f83a 	bl	8001b6e <_ZN7AverageIfLh10EE9calculateEv>
		return this->avrg;
 8001afa:	687b      	ldr	r3, [r7, #4]
 8001afc:	332c      	adds	r3, #44	; 0x2c
	}
 8001afe:	4618      	mov	r0, r3
 8001b00:	3708      	adds	r7, #8
 8001b02:	46bd      	mov	sp, r7
 8001b04:	bd80      	pop	{r7, pc}

08001b06 <_ZN7AverageIfLh10EE6insertEf>:
	void insert(T val){
 8001b06:	b580      	push	{r7, lr}
 8001b08:	b082      	sub	sp, #8
 8001b0a:	af00      	add	r7, sp, #0
 8001b0c:	6078      	str	r0, [r7, #4]
 8001b0e:	6039      	str	r1, [r7, #0]
		elem[currentIndex] = val;
 8001b10:	687b      	ldr	r3, [r7, #4]
 8001b12:	f893 3028 	ldrb.w	r3, [r3, #40]	; 0x28
 8001b16:	4619      	mov	r1, r3
 8001b18:	687b      	ldr	r3, [r7, #4]
 8001b1a:	683a      	ldr	r2, [r7, #0]
 8001b1c:	f843 2021 	str.w	r2, [r3, r1, lsl #2]
		indexIterate();
 8001b20:	6878      	ldr	r0, [r7, #4]
 8001b22:	f000 f854 	bl	8001bce <_ZN7AverageIfLh10EE12indexIterateEv>
	}
 8001b26:	bf00      	nop
 8001b28:	3708      	adds	r7, #8
 8001b2a:	46bd      	mov	sp, r7
 8001b2c:	bd80      	pop	{r7, pc}

08001b2e <_ZN7AverageIfLh10EE5clearEv>:
	void clear(){
 8001b2e:	b480      	push	{r7}
 8001b30:	b085      	sub	sp, #20
 8001b32:	af00      	add	r7, sp, #0
 8001b34:	6078      	str	r0, [r7, #4]
		currentIndex = 0;
 8001b36:	687b      	ldr	r3, [r7, #4]
 8001b38:	2200      	movs	r2, #0
 8001b3a:	f883 2028 	strb.w	r2, [r3, #40]	; 0x28
		numberOfElem = 0;
 8001b3e:	687b      	ldr	r3, [r7, #4]
 8001b40:	2200      	movs	r2, #0
 8001b42:	f883 2029 	strb.w	r2, [r3, #41]	; 0x29
		for (uint8_t i = 0; i < s; i++) elem[i] = T();
 8001b46:	2300      	movs	r3, #0
 8001b48:	73fb      	strb	r3, [r7, #15]
 8001b4a:	7bfb      	ldrb	r3, [r7, #15]
 8001b4c:	2b09      	cmp	r3, #9
 8001b4e:	dc09      	bgt.n	8001b64 <_ZN7AverageIfLh10EE5clearEv+0x36>
 8001b50:	7bfa      	ldrb	r2, [r7, #15]
 8001b52:	687b      	ldr	r3, [r7, #4]
 8001b54:	f04f 0100 	mov.w	r1, #0
 8001b58:	f843 1022 	str.w	r1, [r3, r2, lsl #2]
 8001b5c:	7bfb      	ldrb	r3, [r7, #15]
 8001b5e:	3301      	adds	r3, #1
 8001b60:	73fb      	strb	r3, [r7, #15]
 8001b62:	e7f2      	b.n	8001b4a <_ZN7AverageIfLh10EE5clearEv+0x1c>
	}
 8001b64:	bf00      	nop
 8001b66:	3714      	adds	r7, #20
 8001b68:	46bd      	mov	sp, r7
 8001b6a:	bc80      	pop	{r7}
 8001b6c:	4770      	bx	lr

08001b6e <_ZN7AverageIfLh10EE9calculateEv>:
	void calculate(){
 8001b6e:	b580      	push	{r7, lr}
 8001b70:	b084      	sub	sp, #16
 8001b72:	af00      	add	r7, sp, #0
 8001b74:	6078      	str	r0, [r7, #4]
		T a = 0;
 8001b76:	f04f 0300 	mov.w	r3, #0
 8001b7a:	60fb      	str	r3, [r7, #12]
		for (uint8_t i = 0; i < numberOfElem; i++) a += elem[i];
 8001b7c:	2300      	movs	r3, #0
 8001b7e:	72fb      	strb	r3, [r7, #11]
 8001b80:	7afb      	ldrb	r3, [r7, #11]
 8001b82:	687a      	ldr	r2, [r7, #4]
 8001b84:	f892 2029 	ldrb.w	r2, [r2, #41]	; 0x29
 8001b88:	4293      	cmp	r3, r2
 8001b8a:	da0d      	bge.n	8001ba8 <_ZN7AverageIfLh10EE9calculateEv+0x3a>
 8001b8c:	7afa      	ldrb	r2, [r7, #11]
 8001b8e:	687b      	ldr	r3, [r7, #4]
 8001b90:	f853 3022 	ldr.w	r3, [r3, r2, lsl #2]
 8001b94:	4619      	mov	r1, r3
 8001b96:	68f8      	ldr	r0, [r7, #12]
 8001b98:	f7fe faea 	bl	8000170 <__addsf3>
 8001b9c:	4603      	mov	r3, r0
 8001b9e:	60fb      	str	r3, [r7, #12]
 8001ba0:	7afb      	ldrb	r3, [r7, #11]
 8001ba2:	3301      	adds	r3, #1
 8001ba4:	72fb      	strb	r3, [r7, #11]
 8001ba6:	e7eb      	b.n	8001b80 <_ZN7AverageIfLh10EE9calculateEv+0x12>
		avrg = a /(T)numberOfElem;
 8001ba8:	687b      	ldr	r3, [r7, #4]
 8001baa:	f893 3029 	ldrb.w	r3, [r3, #41]	; 0x29
 8001bae:	4618      	mov	r0, r3
 8001bb0:	f7fe fb8e 	bl	80002d0 <__aeabi_ui2f>
 8001bb4:	4603      	mov	r3, r0
 8001bb6:	4619      	mov	r1, r3
 8001bb8:	68f8      	ldr	r0, [r7, #12]
 8001bba:	f7fe fc95 	bl	80004e8 <__aeabi_fdiv>
 8001bbe:	4603      	mov	r3, r0
 8001bc0:	461a      	mov	r2, r3
 8001bc2:	687b      	ldr	r3, [r7, #4]
 8001bc4:	62da      	str	r2, [r3, #44]	; 0x2c
	}
 8001bc6:	bf00      	nop
 8001bc8:	3710      	adds	r7, #16
 8001bca:	46bd      	mov	sp, r7
 8001bcc:	bd80      	pop	{r7, pc}

08001bce <_ZN7AverageIfLh10EE12indexIterateEv>:
	void indexIterate(){
 8001bce:	b480      	push	{r7}
 8001bd0:	b083      	sub	sp, #12
 8001bd2:	af00      	add	r7, sp, #0
 8001bd4:	6078      	str	r0, [r7, #4]
		if (numberOfElem != s) numberOfElem++;
 8001bd6:	687b      	ldr	r3, [r7, #4]
 8001bd8:	f893 3029 	ldrb.w	r3, [r3, #41]	; 0x29
 8001bdc:	2b0a      	cmp	r3, #10
 8001bde:	d007      	beq.n	8001bf0 <_ZN7AverageIfLh10EE12indexIterateEv+0x22>
 8001be0:	687b      	ldr	r3, [r7, #4]
 8001be2:	f893 3029 	ldrb.w	r3, [r3, #41]	; 0x29
 8001be6:	3301      	adds	r3, #1
 8001be8:	b2da      	uxtb	r2, r3
 8001bea:	687b      	ldr	r3, [r7, #4]
 8001bec:	f883 2029 	strb.w	r2, [r3, #41]	; 0x29
		if (currentIndex == (s - 1)) currentIndex = 0;
 8001bf0:	687b      	ldr	r3, [r7, #4]
 8001bf2:	f893 3028 	ldrb.w	r3, [r3, #40]	; 0x28
 8001bf6:	2b09      	cmp	r3, #9
 8001bf8:	d104      	bne.n	8001c04 <_ZN7AverageIfLh10EE12indexIterateEv+0x36>
 8001bfa:	687b      	ldr	r3, [r7, #4]
 8001bfc:	2200      	movs	r2, #0
 8001bfe:	f883 2028 	strb.w	r2, [r3, #40]	; 0x28
	}
 8001c02:	e007      	b.n	8001c14 <_ZN7AverageIfLh10EE12indexIterateEv+0x46>
			currentIndex++;
 8001c04:	687b      	ldr	r3, [r7, #4]
 8001c06:	f893 3028 	ldrb.w	r3, [r3, #40]	; 0x28
 8001c0a:	3301      	adds	r3, #1
 8001c0c:	b2da      	uxtb	r2, r3
 8001c0e:	687b      	ldr	r3, [r7, #4]
 8001c10:	f883 2028 	strb.w	r2, [r3, #40]	; 0x28
	}
 8001c14:	bf00      	nop
 8001c16:	370c      	adds	r7, #12
 8001c18:	46bd      	mov	sp, r7
 8001c1a:	bc80      	pop	{r7}
 8001c1c:	4770      	bx	lr

08001c1e <_ZN11LedNotifier13getONPinStateEv>:
	LedState curState;

	uint8_t isReversed;   								/** flag of reversed led logic */
	GPIO_PinState onState; 								/** state consider as ON */
	GPIO_PinState offState; 							/** state consider as OFF */
	GPIO_PinState getONPinState(){ return onState;};  	/** return real ON state */
 8001c1e:	b480      	push	{r7}
 8001c20:	b083      	sub	sp, #12
 8001c22:	af00      	add	r7, sp, #0
 8001c24:	6078      	str	r0, [r7, #4]
 8001c26:	687b      	ldr	r3, [r7, #4]
 8001c28:	7f5b      	ldrb	r3, [r3, #29]
 8001c2a:	4618      	mov	r0, r3
 8001c2c:	370c      	adds	r7, #12
 8001c2e:	46bd      	mov	sp, r7
 8001c30:	bc80      	pop	{r7}
 8001c32:	4770      	bx	lr

08001c34 <_ZN11LedNotifier14getOFFPinStateEv>:
	GPIO_PinState getOFFPinState(){return offState; }; 	/** return real OFF state */
 8001c34:	b480      	push	{r7}
 8001c36:	b083      	sub	sp, #12
 8001c38:	af00      	add	r7, sp, #0
 8001c3a:	6078      	str	r0, [r7, #4]
 8001c3c:	687b      	ldr	r3, [r7, #4]
 8001c3e:	7f9b      	ldrb	r3, [r3, #30]
 8001c40:	4618      	mov	r0, r3
 8001c42:	370c      	adds	r7, #12
 8001c44:	46bd      	mov	sp, r7
 8001c46:	bc80      	pop	{r7}
 8001c48:	4770      	bx	lr

08001c4a <_ZN11LedNotifier2onEv>:
 *      Author: Igor
 */

#include <LedNotifier.h>

void LedNotifier::on(){
 8001c4a:	b5b0      	push	{r4, r5, r7, lr}
 8001c4c:	b082      	sub	sp, #8
 8001c4e:	af00      	add	r7, sp, #0
 8001c50:	6078      	str	r0, [r7, #4]
	if(curState == BLINK) timerSTOP();
 8001c52:	687b      	ldr	r3, [r7, #4]
 8001c54:	7edb      	ldrb	r3, [r3, #27]
 8001c56:	2b02      	cmp	r3, #2
 8001c58:	d102      	bne.n	8001c60 <_ZN11LedNotifier2onEv+0x16>
 8001c5a:	6878      	ldr	r0, [r7, #4]
 8001c5c:	f000 f8dc 	bl	8001e18 <_ZN11LedNotifier9timerSTOPEv>
	curState = ON;
 8001c60:	687b      	ldr	r3, [r7, #4]
 8001c62:	2201      	movs	r2, #1
 8001c64:	76da      	strb	r2, [r3, #27]
	HAL_GPIO_WritePin(Port,Pin, getONPinState());
 8001c66:	687b      	ldr	r3, [r7, #4]
 8001c68:	685c      	ldr	r4, [r3, #4]
 8001c6a:	687b      	ldr	r3, [r7, #4]
 8001c6c:	891d      	ldrh	r5, [r3, #8]
 8001c6e:	6878      	ldr	r0, [r7, #4]
 8001c70:	f7ff ffd5 	bl	8001c1e <_ZN11LedNotifier13getONPinStateEv>
 8001c74:	4603      	mov	r3, r0
 8001c76:	461a      	mov	r2, r3
 8001c78:	4629      	mov	r1, r5
 8001c7a:	4620      	mov	r0, r4
 8001c7c:	f001 fa72 	bl	8003164 <HAL_GPIO_WritePin>

}
 8001c80:	bf00      	nop
 8001c82:	3708      	adds	r7, #8
 8001c84:	46bd      	mov	sp, r7
 8001c86:	bdb0      	pop	{r4, r5, r7, pc}

08001c88 <_ZN11LedNotifier3offEv>:

void LedNotifier::off(){
 8001c88:	b5b0      	push	{r4, r5, r7, lr}
 8001c8a:	b082      	sub	sp, #8
 8001c8c:	af00      	add	r7, sp, #0
 8001c8e:	6078      	str	r0, [r7, #4]
	if(curState == BLINK) timerSTOP();
 8001c90:	687b      	ldr	r3, [r7, #4]
 8001c92:	7edb      	ldrb	r3, [r3, #27]
 8001c94:	2b02      	cmp	r3, #2
 8001c96:	d102      	bne.n	8001c9e <_ZN11LedNotifier3offEv+0x16>
 8001c98:	6878      	ldr	r0, [r7, #4]
 8001c9a:	f000 f8bd 	bl	8001e18 <_ZN11LedNotifier9timerSTOPEv>
	curState = OFF;
 8001c9e:	687b      	ldr	r3, [r7, #4]
 8001ca0:	2200      	movs	r2, #0
 8001ca2:	76da      	strb	r2, [r3, #27]
	HAL_GPIO_WritePin(Port,Pin, getOFFPinState());
 8001ca4:	687b      	ldr	r3, [r7, #4]
 8001ca6:	685c      	ldr	r4, [r3, #4]
 8001ca8:	687b      	ldr	r3, [r7, #4]
 8001caa:	891d      	ldrh	r5, [r3, #8]
 8001cac:	6878      	ldr	r0, [r7, #4]
 8001cae:	f7ff ffc1 	bl	8001c34 <_ZN11LedNotifier14getOFFPinStateEv>
 8001cb2:	4603      	mov	r3, r0
 8001cb4:	461a      	mov	r2, r3
 8001cb6:	4629      	mov	r1, r5
 8001cb8:	4620      	mov	r0, r4
 8001cba:	f001 fa53 	bl	8003164 <HAL_GPIO_WritePin>

}
 8001cbe:	bf00      	nop
 8001cc0:	3708      	adds	r7, #8
 8001cc2:	46bd      	mov	sp, r7
 8001cc4:	bdb0      	pop	{r4, r5, r7, pc}

08001cc6 <_ZN11LedNotifier12blink_configEm>:

void LedNotifier::blink_config( uint32_t perON){
 8001cc6:	b580      	push	{r7, lr}
 8001cc8:	b082      	sub	sp, #8
 8001cca:	af00      	add	r7, sp, #0
 8001ccc:	6078      	str	r0, [r7, #4]
 8001cce:	6039      	str	r1, [r7, #0]
	blink_config(perON,perON);
 8001cd0:	683a      	ldr	r2, [r7, #0]
 8001cd2:	6839      	ldr	r1, [r7, #0]
 8001cd4:	6878      	ldr	r0, [r7, #4]
 8001cd6:	f000 f805 	bl	8001ce4 <_ZN11LedNotifier12blink_configEmm>
}
 8001cda:	bf00      	nop
 8001cdc:	3708      	adds	r7, #8
 8001cde:	46bd      	mov	sp, r7
 8001ce0:	bd80      	pop	{r7, pc}
	...

08001ce4 <_ZN11LedNotifier12blink_configEmm>:

void LedNotifier::blink_config( uint32_t perON, uint32_t perOFF){
 8001ce4:	b580      	push	{r7, lr}
 8001ce6:	b084      	sub	sp, #16
 8001ce8:	af00      	add	r7, sp, #0
 8001cea:	60f8      	str	r0, [r7, #12]
 8001cec:	60b9      	str	r1, [r7, #8]
 8001cee:	607a      	str	r2, [r7, #4]
	// initial state of led in blinking mode
	on();
 8001cf0:	68f8      	ldr	r0, [r7, #12]
 8001cf2:	f7ff ffaa 	bl	8001c4a <_ZN11LedNotifier2onEv>
	// update led state
	curState = BLINK;
 8001cf6:	68fb      	ldr	r3, [r7, #12]
 8001cf8:	2202      	movs	r2, #2
 8001cfa:	76da      	strb	r2, [r3, #27]
	blink_state = blinkOn;
 8001cfc:	68fb      	ldr	r3, [r7, #12]
 8001cfe:	2201      	movs	r2, #1
 8001d00:	769a      	strb	r2, [r3, #26]

	// saving required periods
	blinkPeriodON = perON;
 8001d02:	68fb      	ldr	r3, [r7, #12]
 8001d04:	68ba      	ldr	r2, [r7, #8]
 8001d06:	611a      	str	r2, [r3, #16]
	blinkPeriodOFF = perOFF;
 8001d08:	68fb      	ldr	r3, [r7, #12]
 8001d0a:	687a      	ldr	r2, [r7, #4]
 8001d0c:	615a      	str	r2, [r3, #20]

	last_toggle_time = time_tool.getMicros();
 8001d0e:	4805      	ldr	r0, [pc, #20]	; (8001d24 <_ZN11LedNotifier12blink_configEmm+0x40>)
 8001d10:	f000 f944 	bl	8001f9c <_ZN8TimeTool9getMicrosEv>
 8001d14:	4603      	mov	r3, r0
 8001d16:	461a      	mov	r2, r3
 8001d18:	68fb      	ldr	r3, [r7, #12]
 8001d1a:	831a      	strh	r2, [r3, #24]

//	timerSTART();
}
 8001d1c:	bf00      	nop
 8001d1e:	3710      	adds	r7, #16
 8001d20:	46bd      	mov	sp, r7
 8001d22:	bd80      	pop	{r7, pc}
 8001d24:	20000124 	.word	0x20000124

08001d28 <_ZN11LedNotifier13blink_processEv>:

void LedNotifier::blink_process(){
 8001d28:	b590      	push	{r4, r7, lr}
 8001d2a:	b083      	sub	sp, #12
 8001d2c:	af00      	add	r7, sp, #0
 8001d2e:	6078      	str	r0, [r7, #4]
	// process called by timer interrupt (not directly)
	if(curState == BLINK){
 8001d30:	687b      	ldr	r3, [r7, #4]
 8001d32:	7edb      	ldrb	r3, [r3, #27]
 8001d34:	2b02      	cmp	r3, #2
 8001d36:	d11d      	bne.n	8001d74 <_ZN11LedNotifier13blink_processEv+0x4c>
		if(getTimeFromLastToggle() >= (uint16_t)getPeriod()){
 8001d38:	6878      	ldr	r0, [r7, #4]
 8001d3a:	f000 f821 	bl	8001d80 <_ZN11LedNotifier21getTimeFromLastToggleEv>
 8001d3e:	4603      	mov	r3, r0
 8001d40:	461c      	mov	r4, r3
 8001d42:	6878      	ldr	r0, [r7, #4]
 8001d44:	f000 f856 	bl	8001df4 <_ZN11LedNotifier9getPeriodEv>
 8001d48:	4603      	mov	r3, r0
 8001d4a:	b29b      	uxth	r3, r3
 8001d4c:	429c      	cmp	r4, r3
 8001d4e:	bfac      	ite	ge
 8001d50:	2301      	movge	r3, #1
 8001d52:	2300      	movlt	r3, #0
 8001d54:	b2db      	uxtb	r3, r3
 8001d56:	2b00      	cmp	r3, #0
 8001d58:	d00c      	beq.n	8001d74 <_ZN11LedNotifier13blink_processEv+0x4c>
			last_toggle_time = time_tool.getMicros();
 8001d5a:	4808      	ldr	r0, [pc, #32]	; (8001d7c <_ZN11LedNotifier13blink_processEv+0x54>)
 8001d5c:	f000 f91e 	bl	8001f9c <_ZN8TimeTool9getMicrosEv>
 8001d60:	4603      	mov	r3, r0
 8001d62:	461a      	mov	r2, r3
 8001d64:	687b      	ldr	r3, [r7, #4]
 8001d66:	831a      	strh	r2, [r3, #24]
			toggle();
 8001d68:	6878      	ldr	r0, [r7, #4]
 8001d6a:	f000 f81f 	bl	8001dac <_ZN11LedNotifier6toggleEv>
			toggle_blinkstate();
 8001d6e:	6878      	ldr	r0, [r7, #4]
 8001d70:	f000 f82c 	bl	8001dcc <_ZN11LedNotifier17toggle_blinkstateEv>
		}

	}
}
 8001d74:	bf00      	nop
 8001d76:	370c      	adds	r7, #12
 8001d78:	46bd      	mov	sp, r7
 8001d7a:	bd90      	pop	{r4, r7, pc}
 8001d7c:	20000124 	.word	0x20000124

08001d80 <_ZN11LedNotifier21getTimeFromLastToggleEv>:



uint16_t LedNotifier::getTimeFromLastToggle(){
 8001d80:	b580      	push	{r7, lr}
 8001d82:	b082      	sub	sp, #8
 8001d84:	af00      	add	r7, sp, #0
 8001d86:	6078      	str	r0, [r7, #4]
	return time_tool.compareMicros(time_tool.getMicros(), last_toggle_time );
 8001d88:	4807      	ldr	r0, [pc, #28]	; (8001da8 <_ZN11LedNotifier21getTimeFromLastToggleEv+0x28>)
 8001d8a:	f000 f907 	bl	8001f9c <_ZN8TimeTool9getMicrosEv>
 8001d8e:	4603      	mov	r3, r0
 8001d90:	4619      	mov	r1, r3
 8001d92:	687b      	ldr	r3, [r7, #4]
 8001d94:	8b1b      	ldrh	r3, [r3, #24]
 8001d96:	461a      	mov	r2, r3
 8001d98:	4803      	ldr	r0, [pc, #12]	; (8001da8 <_ZN11LedNotifier21getTimeFromLastToggleEv+0x28>)
 8001d9a:	f000 f90f 	bl	8001fbc <_ZN8TimeTool13compareMicrosEtt>
 8001d9e:	4603      	mov	r3, r0
}
 8001da0:	4618      	mov	r0, r3
 8001da2:	3708      	adds	r7, #8
 8001da4:	46bd      	mov	sp, r7
 8001da6:	bd80      	pop	{r7, pc}
 8001da8:	20000124 	.word	0x20000124

08001dac <_ZN11LedNotifier6toggleEv>:
void LedNotifier::toggle(){
 8001dac:	b580      	push	{r7, lr}
 8001dae:	b082      	sub	sp, #8
 8001db0:	af00      	add	r7, sp, #0
 8001db2:	6078      	str	r0, [r7, #4]
	HAL_GPIO_TogglePin(Port,Pin);
 8001db4:	687b      	ldr	r3, [r7, #4]
 8001db6:	685a      	ldr	r2, [r3, #4]
 8001db8:	687b      	ldr	r3, [r7, #4]
 8001dba:	891b      	ldrh	r3, [r3, #8]
 8001dbc:	4619      	mov	r1, r3
 8001dbe:	4610      	mov	r0, r2
 8001dc0:	f001 f9d5 	bl	800316e <HAL_GPIO_TogglePin>
}
 8001dc4:	bf00      	nop
 8001dc6:	3708      	adds	r7, #8
 8001dc8:	46bd      	mov	sp, r7
 8001dca:	bd80      	pop	{r7, pc}

08001dcc <_ZN11LedNotifier17toggle_blinkstateEv>:

void LedNotifier::toggle_blinkstate(){
 8001dcc:	b480      	push	{r7}
 8001dce:	b083      	sub	sp, #12
 8001dd0:	af00      	add	r7, sp, #0
 8001dd2:	6078      	str	r0, [r7, #4]
	if (blink_state == blinkOff) blink_state = blinkOn;
 8001dd4:	687b      	ldr	r3, [r7, #4]
 8001dd6:	7e9b      	ldrb	r3, [r3, #26]
 8001dd8:	2b00      	cmp	r3, #0
 8001dda:	d103      	bne.n	8001de4 <_ZN11LedNotifier17toggle_blinkstateEv+0x18>
 8001ddc:	687b      	ldr	r3, [r7, #4]
 8001dde:	2201      	movs	r2, #1
 8001de0:	769a      	strb	r2, [r3, #26]
	else 						 blink_state = blinkOff;
}
 8001de2:	e002      	b.n	8001dea <_ZN11LedNotifier17toggle_blinkstateEv+0x1e>
	else 						 blink_state = blinkOff;
 8001de4:	687b      	ldr	r3, [r7, #4]
 8001de6:	2200      	movs	r2, #0
 8001de8:	769a      	strb	r2, [r3, #26]
}
 8001dea:	bf00      	nop
 8001dec:	370c      	adds	r7, #12
 8001dee:	46bd      	mov	sp, r7
 8001df0:	bc80      	pop	{r7}
 8001df2:	4770      	bx	lr

08001df4 <_ZN11LedNotifier9getPeriodEv>:

uint32_t LedNotifier::getPeriod(){
 8001df4:	b480      	push	{r7}
 8001df6:	b083      	sub	sp, #12
 8001df8:	af00      	add	r7, sp, #0
 8001dfa:	6078      	str	r0, [r7, #4]
	if(blink_state == blinkOff) return blinkPeriodOFF;
 8001dfc:	687b      	ldr	r3, [r7, #4]
 8001dfe:	7e9b      	ldrb	r3, [r3, #26]
 8001e00:	2b00      	cmp	r3, #0
 8001e02:	d102      	bne.n	8001e0a <_ZN11LedNotifier9getPeriodEv+0x16>
 8001e04:	687b      	ldr	r3, [r7, #4]
 8001e06:	695b      	ldr	r3, [r3, #20]
 8001e08:	e001      	b.n	8001e0e <_ZN11LedNotifier9getPeriodEv+0x1a>
	else 						return blinkPeriodON;
 8001e0a:	687b      	ldr	r3, [r7, #4]
 8001e0c:	691b      	ldr	r3, [r3, #16]
}
 8001e0e:	4618      	mov	r0, r3
 8001e10:	370c      	adds	r7, #12
 8001e12:	46bd      	mov	sp, r7
 8001e14:	bc80      	pop	{r7}
 8001e16:	4770      	bx	lr

08001e18 <_ZN11LedNotifier9timerSTOPEv>:


void LedNotifier::timerSTOP(){
 8001e18:	b580      	push	{r7, lr}
 8001e1a:	b082      	sub	sp, #8
 8001e1c:	af00      	add	r7, sp, #0
 8001e1e:	6078      	str	r0, [r7, #4]
	HAL_TIM_Base_Stop_IT(timer);
 8001e20:	687b      	ldr	r3, [r7, #4]
 8001e22:	68db      	ldr	r3, [r3, #12]
 8001e24:	4618      	mov	r0, r3
 8001e26:	f001 fd37 	bl	8003898 <HAL_TIM_Base_Stop_IT>
	__HAL_TIM_SetCounter(timer, 0 );
 8001e2a:	687b      	ldr	r3, [r7, #4]
 8001e2c:	68db      	ldr	r3, [r3, #12]
 8001e2e:	681b      	ldr	r3, [r3, #0]
 8001e30:	2200      	movs	r2, #0
 8001e32:	625a      	str	r2, [r3, #36]	; 0x24
}
 8001e34:	bf00      	nop
 8001e36:	3708      	adds	r7, #8
 8001e38:	46bd      	mov	sp, r7
 8001e3a:	bd80      	pop	{r7, pc}

08001e3c <_ZN11LedNotifierC1EP12GPIO_TypeDeftP17TIM_HandleTypeDefh>:
LedNotifier::LedState LedNotifier::getState(){
	return curState;
}


LedNotifier::LedNotifier(GPIO_TypeDef *port, uint16_t pin,TIM_HandleTypeDef* tim,uint8_t rev):
 8001e3c:	b480      	push	{r7}
 8001e3e:	b085      	sub	sp, #20
 8001e40:	af00      	add	r7, sp, #0
 8001e42:	60f8      	str	r0, [r7, #12]
 8001e44:	60b9      	str	r1, [r7, #8]
 8001e46:	603b      	str	r3, [r7, #0]
 8001e48:	4613      	mov	r3, r2
 8001e4a:	80fb      	strh	r3, [r7, #6]
	Port(port), Pin(pin), timer(tim){
 8001e4c:	4a12      	ldr	r2, [pc, #72]	; (8001e98 <_ZN11LedNotifierC1EP12GPIO_TypeDeftP17TIM_HandleTypeDefh+0x5c>)
 8001e4e:	68fb      	ldr	r3, [r7, #12]
 8001e50:	601a      	str	r2, [r3, #0]
 8001e52:	68fb      	ldr	r3, [r7, #12]
 8001e54:	68ba      	ldr	r2, [r7, #8]
 8001e56:	605a      	str	r2, [r3, #4]
 8001e58:	68fb      	ldr	r3, [r7, #12]
 8001e5a:	88fa      	ldrh	r2, [r7, #6]
 8001e5c:	811a      	strh	r2, [r3, #8]
 8001e5e:	68fb      	ldr	r3, [r7, #12]
 8001e60:	683a      	ldr	r2, [r7, #0]
 8001e62:	60da      	str	r2, [r3, #12]
	isReversed = rev;
 8001e64:	68fb      	ldr	r3, [r7, #12]
 8001e66:	7e3a      	ldrb	r2, [r7, #24]
 8001e68:	771a      	strb	r2, [r3, #28]
	if(isReversed){ onState = GPIO_PIN_RESET; offState= GPIO_PIN_SET;}
 8001e6a:	68fb      	ldr	r3, [r7, #12]
 8001e6c:	7f1b      	ldrb	r3, [r3, #28]
 8001e6e:	2b00      	cmp	r3, #0
 8001e70:	d006      	beq.n	8001e80 <_ZN11LedNotifierC1EP12GPIO_TypeDeftP17TIM_HandleTypeDefh+0x44>
 8001e72:	68fb      	ldr	r3, [r7, #12]
 8001e74:	2200      	movs	r2, #0
 8001e76:	775a      	strb	r2, [r3, #29]
 8001e78:	68fb      	ldr	r3, [r7, #12]
 8001e7a:	2201      	movs	r2, #1
 8001e7c:	779a      	strb	r2, [r3, #30]
 8001e7e:	e005      	b.n	8001e8c <_ZN11LedNotifierC1EP12GPIO_TypeDeftP17TIM_HandleTypeDefh+0x50>
	else          { onState = GPIO_PIN_SET;   offState= GPIO_PIN_RESET;}
 8001e80:	68fb      	ldr	r3, [r7, #12]
 8001e82:	2201      	movs	r2, #1
 8001e84:	775a      	strb	r2, [r3, #29]
 8001e86:	68fb      	ldr	r3, [r7, #12]
 8001e88:	2200      	movs	r2, #0
 8001e8a:	779a      	strb	r2, [r3, #30]

}
 8001e8c:	68fb      	ldr	r3, [r7, #12]
 8001e8e:	4618      	mov	r0, r3
 8001e90:	3714      	adds	r7, #20
 8001e92:	46bd      	mov	sp, r7
 8001e94:	bc80      	pop	{r7}
 8001e96:	4770      	bx	lr
 8001e98:	08005854 	.word	0x08005854

08001e9c <_ZN11LedNotifierD1Ev>:

LedNotifier::~LedNotifier() {
 8001e9c:	b480      	push	{r7}
 8001e9e:	b083      	sub	sp, #12
 8001ea0:	af00      	add	r7, sp, #0
 8001ea2:	6078      	str	r0, [r7, #4]
 8001ea4:	4a04      	ldr	r2, [pc, #16]	; (8001eb8 <_ZN11LedNotifierD1Ev+0x1c>)
 8001ea6:	687b      	ldr	r3, [r7, #4]
 8001ea8:	601a      	str	r2, [r3, #0]
	// TODO Auto-generated destructor stub
}
 8001eaa:	687b      	ldr	r3, [r7, #4]
 8001eac:	4618      	mov	r0, r3
 8001eae:	370c      	adds	r7, #12
 8001eb0:	46bd      	mov	sp, r7
 8001eb2:	bc80      	pop	{r7}
 8001eb4:	4770      	bx	lr
 8001eb6:	bf00      	nop
 8001eb8:	08005854 	.word	0x08005854

08001ebc <_ZN11LedNotifierD0Ev>:
LedNotifier::~LedNotifier() {
 8001ebc:	b580      	push	{r7, lr}
 8001ebe:	b082      	sub	sp, #8
 8001ec0:	af00      	add	r7, sp, #0
 8001ec2:	6078      	str	r0, [r7, #4]
}
 8001ec4:	6878      	ldr	r0, [r7, #4]
 8001ec6:	f7ff ffe9 	bl	8001e9c <_ZN11LedNotifierD1Ev>
 8001eca:	6878      	ldr	r0, [r7, #4]
 8001ecc:	f002 ff0b 	bl	8004ce6 <_ZdlPv>
 8001ed0:	687b      	ldr	r3, [r7, #4]
 8001ed2:	4618      	mov	r0, r3
 8001ed4:	3708      	adds	r7, #8
 8001ed6:	46bd      	mov	sp, r7
 8001ed8:	bd80      	pop	{r7, pc}
	...

08001edc <_ZN8LipoCellC1Ef>:
#include "LipoCell.h"



LipoCell::LipoCell(float max ):ADC_Tools(max,max-CELL_MAX_VOLTAGE_DROP){ }
 8001edc:	b590      	push	{r4, r7, lr}
 8001ede:	b083      	sub	sp, #12
 8001ee0:	af00      	add	r7, sp, #0
 8001ee2:	6078      	str	r0, [r7, #4]
 8001ee4:	6039      	str	r1, [r7, #0]
 8001ee6:	687c      	ldr	r4, [r7, #4]
 8001ee8:	490b      	ldr	r1, [pc, #44]	; (8001f18 <_ZN8LipoCellC1Ef+0x3c>)
 8001eea:	6838      	ldr	r0, [r7, #0]
 8001eec:	f7fe f93e 	bl	800016c <__aeabi_fsub>
 8001ef0:	4603      	mov	r3, r0
 8001ef2:	461a      	mov	r2, r3
 8001ef4:	230c      	movs	r3, #12
 8001ef6:	6839      	ldr	r1, [r7, #0]
 8001ef8:	4620      	mov	r0, r4
 8001efa:	f7ff fbaf 	bl	800165c <_ZN9ADC_ToolsC1Effm>
 8001efe:	4a07      	ldr	r2, [pc, #28]	; (8001f1c <_ZN8LipoCellC1Ef+0x40>)
 8001f00:	687b      	ldr	r3, [r7, #4]
 8001f02:	601a      	str	r2, [r3, #0]
 8001f04:	687b      	ldr	r3, [r7, #4]
 8001f06:	331c      	adds	r3, #28
 8001f08:	4618      	mov	r0, r3
 8001f0a:	f7ff fde3 	bl	8001ad4 <_ZN7AverageIfLh10EEC1Ev>
 8001f0e:	687b      	ldr	r3, [r7, #4]
 8001f10:	4618      	mov	r0, r3
 8001f12:	370c      	adds	r7, #12
 8001f14:	46bd      	mov	sp, r7
 8001f16:	bd90      	pop	{r4, r7, pc}
 8001f18:	3f99999a 	.word	0x3f99999a
 8001f1c:	0800587c 	.word	0x0800587c

08001f20 <_ZN8LipoCell6updateEm>:

void LipoCell::update(uint32_t val) {
 8001f20:	b590      	push	{r4, r7, lr}
 8001f22:	b083      	sub	sp, #12
 8001f24:	af00      	add	r7, sp, #0
 8001f26:	6078      	str	r0, [r7, #4]
 8001f28:	6039      	str	r1, [r7, #0]
	updateMeasurments(val);
 8001f2a:	687b      	ldr	r3, [r7, #4]
 8001f2c:	6839      	ldr	r1, [r7, #0]
 8001f2e:	4618      	mov	r0, r3
 8001f30:	f7ff fbc2 	bl	80016b8 <_ZN9ADC_Tools17updateMeasurmentsEm>
	avrg.insert(getVoltage());
 8001f34:	687b      	ldr	r3, [r7, #4]
 8001f36:	f103 041c 	add.w	r4, r3, #28
 8001f3a:	687b      	ldr	r3, [r7, #4]
 8001f3c:	4618      	mov	r0, r3
 8001f3e:	f7ff fc1b 	bl	8001778 <_ZNK9ADC_Tools10getVoltageEv>
 8001f42:	4603      	mov	r3, r0
 8001f44:	4619      	mov	r1, r3
 8001f46:	4620      	mov	r0, r4
 8001f48:	f7ff fddd 	bl	8001b06 <_ZN7AverageIfLh10EE6insertEf>
}
 8001f4c:	bf00      	nop
 8001f4e:	370c      	adds	r7, #12
 8001f50:	46bd      	mov	sp, r7
 8001f52:	bd90      	pop	{r4, r7, pc}

08001f54 <_ZN8LipoCell14getVoltageAvrgEv>:


float LipoCell::getVoltageAvrg() {
 8001f54:	b580      	push	{r7, lr}
 8001f56:	b082      	sub	sp, #8
 8001f58:	af00      	add	r7, sp, #0
 8001f5a:	6078      	str	r0, [r7, #4]
	return avrg();
 8001f5c:	687b      	ldr	r3, [r7, #4]
 8001f5e:	331c      	adds	r3, #28
 8001f60:	4618      	mov	r0, r3
 8001f62:	f7ff fdc3 	bl	8001aec <_ZN7AverageIfLh10EEclEv>
 8001f66:	4603      	mov	r3, r0
 8001f68:	681b      	ldr	r3, [r3, #0]
}
 8001f6a:	4618      	mov	r0, r3
 8001f6c:	3708      	adds	r7, #8
 8001f6e:	46bd      	mov	sp, r7
 8001f70:	bd80      	pop	{r7, pc}

08001f72 <_ZN8LipoCell17getPercentageAvrgEv>:

float LipoCell::getPercentageAvrg() {
 8001f72:	b580      	push	{r7, lr}
 8001f74:	b084      	sub	sp, #16
 8001f76:	af00      	add	r7, sp, #0
 8001f78:	6078      	str	r0, [r7, #4]
	float valAvrg = getVoltageAvrg();
 8001f7a:	687b      	ldr	r3, [r7, #4]
 8001f7c:	681b      	ldr	r3, [r3, #0]
 8001f7e:	681b      	ldr	r3, [r3, #0]
 8001f80:	6878      	ldr	r0, [r7, #4]
 8001f82:	4798      	blx	r3
 8001f84:	4603      	mov	r3, r0
 8001f86:	60fb      	str	r3, [r7, #12]
	return convertToPercentage(valAvrg);
 8001f88:	687b      	ldr	r3, [r7, #4]
 8001f8a:	68f9      	ldr	r1, [r7, #12]
 8001f8c:	4618      	mov	r0, r3
 8001f8e:	f7ff fbcd 	bl	800172c <_ZN9ADC_Tools19convertToPercentageEf>
 8001f92:	4603      	mov	r3, r0
}
 8001f94:	4618      	mov	r0, r3
 8001f96:	3710      	adds	r7, #16
 8001f98:	46bd      	mov	sp, r7
 8001f9a:	bd80      	pop	{r7, pc}

08001f9c <_ZN8TimeTool9getMicrosEv>:
TimeTool time_tool;

uint8_t TimeTool::isToolInit(void){
	return microsInitDone;
}
uint16_t TimeTool::getMicros(void){
 8001f9c:	b480      	push	{r7}
 8001f9e:	b083      	sub	sp, #12
 8001fa0:	af00      	add	r7, sp, #0
 8001fa2:	6078      	str	r0, [r7, #4]
	return TIMETOOL_TIMER.Instance->CNT;
 8001fa4:	4b04      	ldr	r3, [pc, #16]	; (8001fb8 <_ZN8TimeTool9getMicrosEv+0x1c>)
 8001fa6:	681b      	ldr	r3, [r3, #0]
 8001fa8:	6a5b      	ldr	r3, [r3, #36]	; 0x24
 8001faa:	b29b      	uxth	r3, r3
}
 8001fac:	4618      	mov	r0, r3
 8001fae:	370c      	adds	r7, #12
 8001fb0:	46bd      	mov	sp, r7
 8001fb2:	bc80      	pop	{r7}
 8001fb4:	4770      	bx	lr
 8001fb6:	bf00      	nop
 8001fb8:	20001198 	.word	0x20001198

08001fbc <_ZN8TimeTool13compareMicrosEtt>:
uint16_t TimeTool::compareMicros(uint16_t a, uint16_t b) {
 8001fbc:	b480      	push	{r7}
 8001fbe:	b085      	sub	sp, #20
 8001fc0:	af00      	add	r7, sp, #0
 8001fc2:	6078      	str	r0, [r7, #4]
 8001fc4:	460b      	mov	r3, r1
 8001fc6:	807b      	strh	r3, [r7, #2]
 8001fc8:	4613      	mov	r3, r2
 8001fca:	803b      	strh	r3, [r7, #0]
	uint16_t res = 0;
 8001fcc:	2300      	movs	r3, #0
 8001fce:	81fb      	strh	r3, [r7, #14]
	if (a > b) res = a - b;
 8001fd0:	887a      	ldrh	r2, [r7, #2]
 8001fd2:	883b      	ldrh	r3, [r7, #0]
 8001fd4:	429a      	cmp	r2, r3
 8001fd6:	dd04      	ble.n	8001fe2 <_ZN8TimeTool13compareMicrosEtt+0x26>
 8001fd8:	887a      	ldrh	r2, [r7, #2]
 8001fda:	883b      	ldrh	r3, [r7, #0]
 8001fdc:	1ad3      	subs	r3, r2, r3
 8001fde:	81fb      	strh	r3, [r7, #14]
 8001fe0:	e003      	b.n	8001fea <_ZN8TimeTool13compareMicrosEtt+0x2e>
	else       res = b - a;
 8001fe2:	883a      	ldrh	r2, [r7, #0]
 8001fe4:	887b      	ldrh	r3, [r7, #2]
 8001fe6:	1ad3      	subs	r3, r2, r3
 8001fe8:	81fb      	strh	r3, [r7, #14]
	if (res > uint16Half){
 8001fea:	89fb      	ldrh	r3, [r7, #14]
 8001fec:	687a      	ldr	r2, [r7, #4]
 8001fee:	88d2      	ldrh	r2, [r2, #6]
 8001ff0:	4293      	cmp	r3, r2
 8001ff2:	dd02      	ble.n	8001ffa <_ZN8TimeTool13compareMicrosEtt+0x3e>
		res = UINT16_MAX- res;
 8001ff4:	89fb      	ldrh	r3, [r7, #14]
 8001ff6:	43db      	mvns	r3, r3
 8001ff8:	81fb      	strh	r3, [r7, #14]
	}
	return res;
 8001ffa:	89fb      	ldrh	r3, [r7, #14]

}
 8001ffc:	4618      	mov	r0, r3
 8001ffe:	3714      	adds	r7, #20
 8002000:	46bd      	mov	sp, r7
 8002002:	bc80      	pop	{r7}
 8002004:	4770      	bx	lr
	...

08002008 <_ZN8TimeTool4initEv>:
void TimeTool::init(void) {
 8002008:	b580      	push	{r7, lr}
 800200a:	b082      	sub	sp, #8
 800200c:	af00      	add	r7, sp, #0
 800200e:	6078      	str	r0, [r7, #4]
	if (!microsInitDone) {
 8002010:	687b      	ldr	r3, [r7, #4]
 8002012:	791b      	ldrb	r3, [r3, #4]
 8002014:	2b00      	cmp	r3, #0
 8002016:	d105      	bne.n	8002024 <_ZN8TimeTool4initEv+0x1c>
		HAL_TIM_Base_Start(&TIMETOOL_TIMER);
 8002018:	4804      	ldr	r0, [pc, #16]	; (800202c <_ZN8TimeTool4initEv+0x24>)
 800201a:	f001 fbed 	bl	80037f8 <HAL_TIM_Base_Start>
		microsInitDone = 1;
 800201e:	687b      	ldr	r3, [r7, #4]
 8002020:	2201      	movs	r2, #1
 8002022:	711a      	strb	r2, [r3, #4]
	}
}
 8002024:	bf00      	nop
 8002026:	3708      	adds	r7, #8
 8002028:	46bd      	mov	sp, r7
 800202a:	bd80      	pop	{r7, pc}
 800202c:	20001198 	.word	0x20001198

08002030 <_ZN8TimeToolC1Ev>:


TimeTool::TimeTool(): microsInitDone(0) {
 8002030:	b480      	push	{r7}
 8002032:	b083      	sub	sp, #12
 8002034:	af00      	add	r7, sp, #0
 8002036:	6078      	str	r0, [r7, #4]
 8002038:	4a07      	ldr	r2, [pc, #28]	; (8002058 <_ZN8TimeToolC1Ev+0x28>)
 800203a:	687b      	ldr	r3, [r7, #4]
 800203c:	601a      	str	r2, [r3, #0]
 800203e:	687b      	ldr	r3, [r7, #4]
 8002040:	2200      	movs	r2, #0
 8002042:	711a      	strb	r2, [r3, #4]
 8002044:	687b      	ldr	r3, [r7, #4]
 8002046:	f647 72ff 	movw	r2, #32767	; 0x7fff
 800204a:	80da      	strh	r2, [r3, #6]


}
 800204c:	687b      	ldr	r3, [r7, #4]
 800204e:	4618      	mov	r0, r3
 8002050:	370c      	adds	r7, #12
 8002052:	46bd      	mov	sp, r7
 8002054:	bc80      	pop	{r7}
 8002056:	4770      	bx	lr
 8002058:	080058a8 	.word	0x080058a8

0800205c <_ZN8TimeToolD1Ev>:

TimeTool::~TimeTool() {
 800205c:	b480      	push	{r7}
 800205e:	b083      	sub	sp, #12
 8002060:	af00      	add	r7, sp, #0
 8002062:	6078      	str	r0, [r7, #4]
 8002064:	4a04      	ldr	r2, [pc, #16]	; (8002078 <_ZN8TimeToolD1Ev+0x1c>)
 8002066:	687b      	ldr	r3, [r7, #4]
 8002068:	601a      	str	r2, [r3, #0]
	// TODO Auto-generated destructor stub
}
 800206a:	687b      	ldr	r3, [r7, #4]
 800206c:	4618      	mov	r0, r3
 800206e:	370c      	adds	r7, #12
 8002070:	46bd      	mov	sp, r7
 8002072:	bc80      	pop	{r7}
 8002074:	4770      	bx	lr
 8002076:	bf00      	nop
 8002078:	080058a8 	.word	0x080058a8

0800207c <_ZN8TimeToolD0Ev>:
TimeTool::~TimeTool() {
 800207c:	b580      	push	{r7, lr}
 800207e:	b082      	sub	sp, #8
 8002080:	af00      	add	r7, sp, #0
 8002082:	6078      	str	r0, [r7, #4]
}
 8002084:	6878      	ldr	r0, [r7, #4]
 8002086:	f7ff ffe9 	bl	800205c <_ZN8TimeToolD1Ev>
 800208a:	6878      	ldr	r0, [r7, #4]
 800208c:	f002 fe2b 	bl	8004ce6 <_ZdlPv>
 8002090:	687b      	ldr	r3, [r7, #4]
 8002092:	4618      	mov	r0, r3
 8002094:	3708      	adds	r7, #8
 8002096:	46bd      	mov	sp, r7
 8002098:	bd80      	pop	{r7, pc}
	...

0800209c <_Z41__static_initialization_and_destruction_0ii>:
 800209c:	b580      	push	{r7, lr}
 800209e:	b082      	sub	sp, #8
 80020a0:	af00      	add	r7, sp, #0
 80020a2:	6078      	str	r0, [r7, #4]
 80020a4:	6039      	str	r1, [r7, #0]
 80020a6:	687b      	ldr	r3, [r7, #4]
 80020a8:	2b01      	cmp	r3, #1
 80020aa:	d10c      	bne.n	80020c6 <_Z41__static_initialization_and_destruction_0ii+0x2a>
 80020ac:	683b      	ldr	r3, [r7, #0]
 80020ae:	f64f 72ff 	movw	r2, #65535	; 0xffff
 80020b2:	4293      	cmp	r3, r2
 80020b4:	d107      	bne.n	80020c6 <_Z41__static_initialization_and_destruction_0ii+0x2a>
TimeTool time_tool;
 80020b6:	4806      	ldr	r0, [pc, #24]	; (80020d0 <_Z41__static_initialization_and_destruction_0ii+0x34>)
 80020b8:	f7ff ffba 	bl	8002030 <_ZN8TimeToolC1Ev>
 80020bc:	4a05      	ldr	r2, [pc, #20]	; (80020d4 <_Z41__static_initialization_and_destruction_0ii+0x38>)
 80020be:	4906      	ldr	r1, [pc, #24]	; (80020d8 <_Z41__static_initialization_and_destruction_0ii+0x3c>)
 80020c0:	4803      	ldr	r0, [pc, #12]	; (80020d0 <_Z41__static_initialization_and_destruction_0ii+0x34>)
 80020c2:	f002 fe12 	bl	8004cea <__aeabi_atexit>
}
 80020c6:	bf00      	nop
 80020c8:	3708      	adds	r7, #8
 80020ca:	46bd      	mov	sp, r7
 80020cc:	bd80      	pop	{r7, pc}
 80020ce:	bf00      	nop
 80020d0:	20000124 	.word	0x20000124
 80020d4:	20000000 	.word	0x20000000
 80020d8:	0800205d 	.word	0x0800205d

080020dc <_GLOBAL__sub_I_time_tool>:
 80020dc:	b580      	push	{r7, lr}
 80020de:	af00      	add	r7, sp, #0
 80020e0:	f64f 71ff 	movw	r1, #65535	; 0xffff
 80020e4:	2001      	movs	r0, #1
 80020e6:	f7ff ffd9 	bl	800209c <_Z41__static_initialization_and_destruction_0ii>
 80020ea:	bd80      	pop	{r7, pc}

080020ec <MX_ADC1_Init>:
{
  ADC_ChannelConfTypeDef sConfig = {0};

  /** Common config 
  */
  hadc1.Instance = ADC1;
 80020ec:	4819      	ldr	r0, [pc, #100]	; (8002154 <MX_ADC1_Init+0x68>)
 80020ee:	4b1a      	ldr	r3, [pc, #104]	; (8002158 <MX_ADC1_Init+0x6c>)
{
 80020f0:	b530      	push	{r4, r5, lr}
  hadc1.Instance = ADC1;
 80020f2:	6003      	str	r3, [r0, #0]
  hadc1.Init.ScanConvMode = ADC_SCAN_ENABLE;
 80020f4:	f44f 7380 	mov.w	r3, #256	; 0x100
 80020f8:	6083      	str	r3, [r0, #8]
  hadc1.Init.ContinuousConvMode = ENABLE;
  hadc1.Init.DiscontinuousConvMode = DISABLE;
  hadc1.Init.ExternalTrigConv = ADC_SOFTWARE_START;
 80020fa:	f44f 2360 	mov.w	r3, #917504	; 0xe0000
  ADC_ChannelConfTypeDef sConfig = {0};
 80020fe:	2400      	movs	r4, #0
  hadc1.Init.ContinuousConvMode = ENABLE;
 8002100:	2501      	movs	r5, #1
  hadc1.Init.ExternalTrigConv = ADC_SOFTWARE_START;
 8002102:	61c3      	str	r3, [r0, #28]
  hadc1.Init.DataAlign = ADC_DATAALIGN_RIGHT;
  hadc1.Init.NbrOfConversion = 2;
 8002104:	2302      	movs	r3, #2
{
 8002106:	b085      	sub	sp, #20
  ADC_ChannelConfTypeDef sConfig = {0};
 8002108:	9401      	str	r4, [sp, #4]
 800210a:	9402      	str	r4, [sp, #8]
 800210c:	9403      	str	r4, [sp, #12]
  hadc1.Init.ContinuousConvMode = ENABLE;
 800210e:	7305      	strb	r5, [r0, #12]
  hadc1.Init.DiscontinuousConvMode = DISABLE;
 8002110:	7504      	strb	r4, [r0, #20]
  hadc1.Init.DataAlign = ADC_DATAALIGN_RIGHT;
 8002112:	6044      	str	r4, [r0, #4]
  hadc1.Init.NbrOfConversion = 2;
 8002114:	6103      	str	r3, [r0, #16]
  if (HAL_ADC_Init(&hadc1) != HAL_OK)
 8002116:	f000 fd25 	bl	8002b64 <HAL_ADC_Init>
 800211a:	b108      	cbz	r0, 8002120 <MX_ADC1_Init+0x34>
  {
    Error_Handler();
 800211c:	f000 f9b1 	bl	8002482 <Error_Handler>
  }
  /** Configure Regular Channel 
  */
  sConfig.Channel = ADC_CHANNEL_0;
  sConfig.Rank = ADC_REGULAR_RANK_1;
  sConfig.SamplingTime = ADC_SAMPLETIME_239CYCLES_5;
 8002120:	2307      	movs	r3, #7
  if (HAL_ADC_ConfigChannel(&hadc1, &sConfig) != HAL_OK)
 8002122:	a901      	add	r1, sp, #4
 8002124:	480b      	ldr	r0, [pc, #44]	; (8002154 <MX_ADC1_Init+0x68>)
  sConfig.Channel = ADC_CHANNEL_0;
 8002126:	9401      	str	r4, [sp, #4]
  sConfig.Rank = ADC_REGULAR_RANK_1;
 8002128:	9502      	str	r5, [sp, #8]
  sConfig.SamplingTime = ADC_SAMPLETIME_239CYCLES_5;
 800212a:	9303      	str	r3, [sp, #12]
  if (HAL_ADC_ConfigChannel(&hadc1, &sConfig) != HAL_OK)
 800212c:	f000 fb4c 	bl	80027c8 <HAL_ADC_ConfigChannel>
 8002130:	b108      	cbz	r0, 8002136 <MX_ADC1_Init+0x4a>
  {
    Error_Handler();
 8002132:	f000 f9a6 	bl	8002482 <Error_Handler>
  }
  /** Configure Regular Channel 
  */
  sConfig.Channel = ADC_CHANNEL_1;
 8002136:	2301      	movs	r3, #1
 8002138:	9301      	str	r3, [sp, #4]
  sConfig.Rank = ADC_REGULAR_RANK_2;
 800213a:	2302      	movs	r3, #2
 800213c:	9302      	str	r3, [sp, #8]
  sConfig.SamplingTime = ADC_SAMPLETIME_71CYCLES_5;
 800213e:	2306      	movs	r3, #6
  if (HAL_ADC_ConfigChannel(&hadc1, &sConfig) != HAL_OK)
 8002140:	a901      	add	r1, sp, #4
 8002142:	4804      	ldr	r0, [pc, #16]	; (8002154 <MX_ADC1_Init+0x68>)
  sConfig.SamplingTime = ADC_SAMPLETIME_71CYCLES_5;
 8002144:	9303      	str	r3, [sp, #12]
  if (HAL_ADC_ConfigChannel(&hadc1, &sConfig) != HAL_OK)
 8002146:	f000 fb3f 	bl	80027c8 <HAL_ADC_ConfigChannel>
 800214a:	b108      	cbz	r0, 8002150 <MX_ADC1_Init+0x64>
  {
    Error_Handler();
 800214c:	f000 f999 	bl	8002482 <Error_Handler>
  }

}
 8002150:	b005      	add	sp, #20
 8002152:	bd30      	pop	{r4, r5, pc}
 8002154:	200010dc 	.word	0x200010dc
 8002158:	40012400 	.word	0x40012400

0800215c <HAL_ADC_MspInit>:

void HAL_ADC_MspInit(ADC_HandleTypeDef* adcHandle)
{
 800215c:	b530      	push	{r4, r5, lr}
 800215e:	4605      	mov	r5, r0
 8002160:	b087      	sub	sp, #28

  GPIO_InitTypeDef GPIO_InitStruct = {0};
 8002162:	2210      	movs	r2, #16
 8002164:	2100      	movs	r1, #0
 8002166:	a802      	add	r0, sp, #8
 8002168:	f003 fa9d 	bl	80056a6 <memset>
  if(adcHandle->Instance==ADC1)
 800216c:	682a      	ldr	r2, [r5, #0]
 800216e:	4b1c      	ldr	r3, [pc, #112]	; (80021e0 <HAL_ADC_MspInit+0x84>)
 8002170:	429a      	cmp	r2, r3
 8002172:	d133      	bne.n	80021dc <HAL_ADC_MspInit+0x80>
  {
  /* USER CODE BEGIN ADC1_MspInit 0 */

  /* USER CODE END ADC1_MspInit 0 */
    /* ADC1 clock enable */
    __HAL_RCC_ADC1_CLK_ENABLE();
 8002174:	f503 436c 	add.w	r3, r3, #60416	; 0xec00
 8002178:	699a      	ldr	r2, [r3, #24]
    PA0-WKUP     ------> ADC1_IN0
    PA1     ------> ADC1_IN1 
    */
    GPIO_InitStruct.Pin = GPIO_PIN_0|GPIO_PIN_1;
    GPIO_InitStruct.Mode = GPIO_MODE_ANALOG;
    HAL_GPIO_Init(GPIOA, &GPIO_InitStruct);
 800217a:	481a      	ldr	r0, [pc, #104]	; (80021e4 <HAL_ADC_MspInit+0x88>)
    __HAL_RCC_ADC1_CLK_ENABLE();
 800217c:	f442 7200 	orr.w	r2, r2, #512	; 0x200
 8002180:	619a      	str	r2, [r3, #24]
 8002182:	699a      	ldr	r2, [r3, #24]
    HAL_GPIO_Init(GPIOA, &GPIO_InitStruct);
 8002184:	a902      	add	r1, sp, #8
    __HAL_RCC_ADC1_CLK_ENABLE();
 8002186:	f402 7200 	and.w	r2, r2, #512	; 0x200
 800218a:	9200      	str	r2, [sp, #0]
 800218c:	9a00      	ldr	r2, [sp, #0]
    __HAL_RCC_GPIOA_CLK_ENABLE();
 800218e:	699a      	ldr	r2, [r3, #24]

    /* ADC1 DMA Init */
    /* ADC1 Init */
    hdma_adc1.Instance = DMA1_Channel1;
 8002190:	4c15      	ldr	r4, [pc, #84]	; (80021e8 <HAL_ADC_MspInit+0x8c>)
    __HAL_RCC_GPIOA_CLK_ENABLE();
 8002192:	f042 0204 	orr.w	r2, r2, #4
 8002196:	619a      	str	r2, [r3, #24]
 8002198:	699b      	ldr	r3, [r3, #24]
 800219a:	f003 0304 	and.w	r3, r3, #4
 800219e:	9301      	str	r3, [sp, #4]
 80021a0:	9b01      	ldr	r3, [sp, #4]
    GPIO_InitStruct.Pin = GPIO_PIN_0|GPIO_PIN_1;
 80021a2:	2303      	movs	r3, #3
 80021a4:	9302      	str	r3, [sp, #8]
    GPIO_InitStruct.Mode = GPIO_MODE_ANALOG;
 80021a6:	9303      	str	r3, [sp, #12]
    HAL_GPIO_Init(GPIOA, &GPIO_InitStruct);
 80021a8:	f000 fefa 	bl	8002fa0 <HAL_GPIO_Init>
    hdma_adc1.Init.Direction = DMA_PERIPH_TO_MEMORY;
    hdma_adc1.Init.PeriphInc = DMA_PINC_DISABLE;
    hdma_adc1.Init.MemInc = DMA_MINC_ENABLE;
 80021ac:	2280      	movs	r2, #128	; 0x80
 80021ae:	60e2      	str	r2, [r4, #12]
    hdma_adc1.Init.PeriphDataAlignment = DMA_PDATAALIGN_HALFWORD;
 80021b0:	f44f 7280 	mov.w	r2, #256	; 0x100
 80021b4:	6122      	str	r2, [r4, #16]
    hdma_adc1.Init.MemDataAlignment = DMA_MDATAALIGN_WORD;
 80021b6:	f44f 6200 	mov.w	r2, #2048	; 0x800
    hdma_adc1.Instance = DMA1_Channel1;
 80021ba:	4b0c      	ldr	r3, [pc, #48]	; (80021ec <HAL_ADC_MspInit+0x90>)
    hdma_adc1.Init.MemDataAlignment = DMA_MDATAALIGN_WORD;
 80021bc:	6162      	str	r2, [r4, #20]
    hdma_adc1.Instance = DMA1_Channel1;
 80021be:	6023      	str	r3, [r4, #0]
    hdma_adc1.Init.Mode = DMA_CIRCULAR;
 80021c0:	2220      	movs	r2, #32
    hdma_adc1.Init.Direction = DMA_PERIPH_TO_MEMORY;
 80021c2:	2300      	movs	r3, #0
    hdma_adc1.Init.Priority = DMA_PRIORITY_LOW;
    if (HAL_DMA_Init(&hdma_adc1) != HAL_OK)
 80021c4:	4620      	mov	r0, r4
    hdma_adc1.Init.Direction = DMA_PERIPH_TO_MEMORY;
 80021c6:	6063      	str	r3, [r4, #4]
    hdma_adc1.Init.PeriphInc = DMA_PINC_DISABLE;
 80021c8:	60a3      	str	r3, [r4, #8]
    hdma_adc1.Init.Mode = DMA_CIRCULAR;
 80021ca:	61a2      	str	r2, [r4, #24]
    hdma_adc1.Init.Priority = DMA_PRIORITY_LOW;
 80021cc:	61e3      	str	r3, [r4, #28]
    if (HAL_DMA_Init(&hdma_adc1) != HAL_OK)
 80021ce:	f000 fd9d 	bl	8002d0c <HAL_DMA_Init>
 80021d2:	b108      	cbz	r0, 80021d8 <HAL_ADC_MspInit+0x7c>
    {
      Error_Handler();
 80021d4:	f000 f955 	bl	8002482 <Error_Handler>
    }

    __HAL_LINKDMA(adcHandle,DMA_Handle,hdma_adc1);
 80021d8:	622c      	str	r4, [r5, #32]
 80021da:	6265      	str	r5, [r4, #36]	; 0x24

  /* USER CODE BEGIN ADC1_MspInit 1 */

  /* USER CODE END ADC1_MspInit 1 */
  }
}
 80021dc:	b007      	add	sp, #28
 80021de:	bd30      	pop	{r4, r5, pc}
 80021e0:	40012400 	.word	0x40012400
 80021e4:	40010800 	.word	0x40010800
 80021e8:	2000110c 	.word	0x2000110c
 80021ec:	40020008 	.word	0x40020008

080021f0 <MX_DMA_Init>:
  */
void MX_DMA_Init(void) 
{

  /* DMA controller clock enable */
  __HAL_RCC_DMA1_CLK_ENABLE();
 80021f0:	4b0a      	ldr	r3, [pc, #40]	; (800221c <MX_DMA_Init+0x2c>)
{
 80021f2:	b507      	push	{r0, r1, r2, lr}
  __HAL_RCC_DMA1_CLK_ENABLE();
 80021f4:	695a      	ldr	r2, [r3, #20]

  /* DMA interrupt init */
  /* DMA1_Channel1_IRQn interrupt configuration */
  HAL_NVIC_SetPriority(DMA1_Channel1_IRQn, 5, 0);
 80021f6:	2105      	movs	r1, #5
  __HAL_RCC_DMA1_CLK_ENABLE();
 80021f8:	f042 0201 	orr.w	r2, r2, #1
 80021fc:	615a      	str	r2, [r3, #20]
 80021fe:	695b      	ldr	r3, [r3, #20]
  HAL_NVIC_SetPriority(DMA1_Channel1_IRQn, 5, 0);
 8002200:	2200      	movs	r2, #0
  __HAL_RCC_DMA1_CLK_ENABLE();
 8002202:	f003 0301 	and.w	r3, r3, #1
 8002206:	9301      	str	r3, [sp, #4]
  HAL_NVIC_SetPriority(DMA1_Channel1_IRQn, 5, 0);
 8002208:	200b      	movs	r0, #11
  __HAL_RCC_DMA1_CLK_ENABLE();
 800220a:	9b01      	ldr	r3, [sp, #4]
  HAL_NVIC_SetPriority(DMA1_Channel1_IRQn, 5, 0);
 800220c:	f000 fd3c 	bl	8002c88 <HAL_NVIC_SetPriority>
  HAL_NVIC_EnableIRQ(DMA1_Channel1_IRQn);
 8002210:	200b      	movs	r0, #11
 8002212:	f000 fd6d 	bl	8002cf0 <HAL_NVIC_EnableIRQ>

}
 8002216:	b003      	add	sp, #12
 8002218:	f85d fb04 	ldr.w	pc, [sp], #4
 800221c:	40021000 	.word	0x40021000

08002220 <vApplicationGetIdleTaskMemory>:
/* USER CODE BEGIN GET_IDLE_TASK_MEMORY */
static StaticTask_t xIdleTaskTCBBuffer;
static StackType_t xIdleStack[configMINIMAL_STACK_SIZE];

void vApplicationGetIdleTaskMemory( StaticTask_t **ppxIdleTaskTCBBuffer, StackType_t **ppxIdleTaskStackBuffer, uint32_t *pulIdleTaskStackSize )
{
 8002220:	b480      	push	{r7}
 8002222:	b085      	sub	sp, #20
 8002224:	af00      	add	r7, sp, #0
 8002226:	60f8      	str	r0, [r7, #12]
 8002228:	60b9      	str	r1, [r7, #8]
 800222a:	607a      	str	r2, [r7, #4]
  *ppxIdleTaskTCBBuffer = &xIdleTaskTCBBuffer;
 800222c:	68fb      	ldr	r3, [r7, #12]
 800222e:	4a06      	ldr	r2, [pc, #24]	; (8002248 <vApplicationGetIdleTaskMemory+0x28>)
 8002230:	601a      	str	r2, [r3, #0]
  *ppxIdleTaskStackBuffer = &xIdleStack[0];
 8002232:	68bb      	ldr	r3, [r7, #8]
 8002234:	4a05      	ldr	r2, [pc, #20]	; (800224c <vApplicationGetIdleTaskMemory+0x2c>)
 8002236:	601a      	str	r2, [r3, #0]
  *pulIdleTaskStackSize = configMINIMAL_STACK_SIZE;
 8002238:	687b      	ldr	r3, [r7, #4]
 800223a:	2280      	movs	r2, #128	; 0x80
 800223c:	601a      	str	r2, [r3, #0]
  /* place for user code */
}
 800223e:	bf00      	nop
 8002240:	3714      	adds	r7, #20
 8002242:	46bd      	mov	sp, r7
 8002244:	bc80      	pop	{r7}
 8002246:	4770      	bx	lr
 8002248:	20000130 	.word	0x20000130
 800224c:	20000184 	.word	0x20000184

08002250 <MX_FREERTOS_Init>:
/**
  * @brief  FreeRTOS initialization
  * @param  None
  * @retval None
  */
void MX_FREERTOS_Init(void) {
 8002250:	b5b0      	push	{r4, r5, r7, lr}
 8002252:	b088      	sub	sp, #32
 8002254:	af00      	add	r7, sp, #0
  /* add queues, ... */
  /* USER CODE END RTOS_QUEUES */

  /* Create the thread(s) */
  /* definition and creation of defaultTask */
  osThreadDef(defaultTask, StartDefaultTask, osPriorityNormal, 0, 128);
 8002256:	4b0b      	ldr	r3, [pc, #44]	; (8002284 <MX_FREERTOS_Init+0x34>)
 8002258:	1d3c      	adds	r4, r7, #4
 800225a:	461d      	mov	r5, r3
 800225c:	cd0f      	ldmia	r5!, {r0, r1, r2, r3}
 800225e:	c40f      	stmia	r4!, {r0, r1, r2, r3}
 8002260:	e895 0007 	ldmia.w	r5, {r0, r1, r2}
 8002264:	e884 0007 	stmia.w	r4, {r0, r1, r2}
  defaultTaskHandle = osThreadCreate(osThread(defaultTask), NULL);
 8002268:	1d3b      	adds	r3, r7, #4
 800226a:	2100      	movs	r1, #0
 800226c:	4618      	mov	r0, r3
 800226e:	f001 fe8e 	bl	8003f8e <osThreadCreate>
 8002272:	4602      	mov	r2, r0
 8002274:	4b04      	ldr	r3, [pc, #16]	; (8002288 <MX_FREERTOS_Init+0x38>)
 8002276:	601a      	str	r2, [r3, #0]

  /* USER CODE BEGIN RTOS_THREADS */
  /* add threads, ... */

  AllTasks_init();
 8002278:	f7ff fa8a 	bl	8001790 <_Z13AllTasks_initv>
  /* USER CODE END RTOS_THREADS */

}
 800227c:	bf00      	nop
 800227e:	3720      	adds	r7, #32
 8002280:	46bd      	mov	sp, r7
 8002282:	bdb0      	pop	{r4, r5, r7, pc}
 8002284:	080058d0 	.word	0x080058d0
 8002288:	2000012c 	.word	0x2000012c

0800228c <StartDefaultTask>:
  * @param  argument: Not used
  * @retval None
  */
/* USER CODE END Header_StartDefaultTask */
void StartDefaultTask(void const * argument)
{
 800228c:	b580      	push	{r7, lr}
 800228e:	b082      	sub	sp, #8
 8002290:	af00      	add	r7, sp, #0
 8002292:	6078      	str	r0, [r7, #4]
  /* USER CODE BEGIN StartDefaultTask */
  /* Infinite loop */
  for(;;)
  {
    osDelay(1);
 8002294:	2001      	movs	r0, #1
 8002296:	f001 fea2 	bl	8003fde <osDelay>
 800229a:	e7fb      	b.n	8002294 <StartDefaultTask+0x8>

0800229c <MX_GPIO_Init>:
     PA3   ------> USART2_RX
*/
void MX_GPIO_Init(void)
{

  GPIO_InitTypeDef GPIO_InitStruct = {0};
 800229c:	2210      	movs	r2, #16
{
 800229e:	e92d 41f0 	stmdb	sp!, {r4, r5, r6, r7, r8, lr}
 80022a2:	b088      	sub	sp, #32
  GPIO_InitTypeDef GPIO_InitStruct = {0};
 80022a4:	eb0d 0002 	add.w	r0, sp, r2
 80022a8:	2100      	movs	r1, #0
 80022aa:	f003 f9fc 	bl	80056a6 <memset>

  /* GPIO Ports Clock Enable */
  __HAL_RCC_GPIOC_CLK_ENABLE();
 80022ae:	4b34      	ldr	r3, [pc, #208]	; (8002380 <MX_GPIO_Init+0xe4>)
  __HAL_RCC_GPIOD_CLK_ENABLE();
  __HAL_RCC_GPIOA_CLK_ENABLE();
  __HAL_RCC_GPIOB_CLK_ENABLE();

  /*Configure GPIO pin Output Level */
  HAL_GPIO_WritePin(LD2_GPIO_Port, LD2_Pin, GPIO_PIN_RESET);
 80022b0:	4f34      	ldr	r7, [pc, #208]	; (8002384 <MX_GPIO_Init+0xe8>)
  __HAL_RCC_GPIOC_CLK_ENABLE();
 80022b2:	699a      	ldr	r2, [r3, #24]

  /*Configure GPIO pin Output Level */
  HAL_GPIO_WritePin(GPIOC, LED1_Pin|LED2_Pin, GPIO_PIN_RESET);
 80022b4:	4e34      	ldr	r6, [pc, #208]	; (8002388 <MX_GPIO_Init+0xec>)
  __HAL_RCC_GPIOC_CLK_ENABLE();
 80022b6:	f042 0210 	orr.w	r2, r2, #16
 80022ba:	619a      	str	r2, [r3, #24]
 80022bc:	699a      	ldr	r2, [r3, #24]
  HAL_GPIO_WritePin(LD2_GPIO_Port, LD2_Pin, GPIO_PIN_RESET);
 80022be:	4638      	mov	r0, r7
  __HAL_RCC_GPIOC_CLK_ENABLE();
 80022c0:	f002 0210 	and.w	r2, r2, #16
 80022c4:	9200      	str	r2, [sp, #0]
 80022c6:	9a00      	ldr	r2, [sp, #0]
  __HAL_RCC_GPIOD_CLK_ENABLE();
 80022c8:	699a      	ldr	r2, [r3, #24]
  HAL_GPIO_WritePin(LD2_GPIO_Port, LD2_Pin, GPIO_PIN_RESET);
 80022ca:	2120      	movs	r1, #32
  __HAL_RCC_GPIOD_CLK_ENABLE();
 80022cc:	f042 0220 	orr.w	r2, r2, #32
 80022d0:	619a      	str	r2, [r3, #24]
 80022d2:	699a      	ldr	r2, [r3, #24]

  /*Configure GPIO pin : PtPin */
  GPIO_InitStruct.Pin = B1_Pin;
  GPIO_InitStruct.Mode = GPIO_MODE_IT_RISING;
  GPIO_InitStruct.Pull = GPIO_NOPULL;
 80022d4:	2400      	movs	r4, #0
  __HAL_RCC_GPIOD_CLK_ENABLE();
 80022d6:	f002 0220 	and.w	r2, r2, #32
 80022da:	9201      	str	r2, [sp, #4]
 80022dc:	9a01      	ldr	r2, [sp, #4]
  __HAL_RCC_GPIOA_CLK_ENABLE();
 80022de:	699a      	ldr	r2, [r3, #24]
  HAL_GPIO_Init(B1_GPIO_Port, &GPIO_InitStruct);

  /*Configure GPIO pins : PAPin PAPin */
  GPIO_InitStruct.Pin = USART_TX_Pin|USART_RX_Pin;
  GPIO_InitStruct.Mode = GPIO_MODE_AF_PP;
 80022e0:	2502      	movs	r5, #2
  __HAL_RCC_GPIOA_CLK_ENABLE();
 80022e2:	f042 0204 	orr.w	r2, r2, #4
 80022e6:	619a      	str	r2, [r3, #24]
 80022e8:	699a      	ldr	r2, [r3, #24]
  GPIO_InitStruct.Speed = GPIO_SPEED_FREQ_LOW;
  HAL_GPIO_Init(GPIOA, &GPIO_InitStruct);

  /*Configure GPIO pin : PtPin */
  GPIO_InitStruct.Pin = LD2_Pin;
  GPIO_InitStruct.Mode = GPIO_MODE_OUTPUT_PP;
 80022ea:	f04f 0801 	mov.w	r8, #1
  __HAL_RCC_GPIOA_CLK_ENABLE();
 80022ee:	f002 0204 	and.w	r2, r2, #4
 80022f2:	9202      	str	r2, [sp, #8]
 80022f4:	9a02      	ldr	r2, [sp, #8]
  __HAL_RCC_GPIOB_CLK_ENABLE();
 80022f6:	699a      	ldr	r2, [r3, #24]
 80022f8:	f042 0208 	orr.w	r2, r2, #8
 80022fc:	619a      	str	r2, [r3, #24]
 80022fe:	699b      	ldr	r3, [r3, #24]
  HAL_GPIO_WritePin(LD2_GPIO_Port, LD2_Pin, GPIO_PIN_RESET);
 8002300:	2200      	movs	r2, #0
  __HAL_RCC_GPIOB_CLK_ENABLE();
 8002302:	f003 0308 	and.w	r3, r3, #8
 8002306:	9303      	str	r3, [sp, #12]
 8002308:	9b03      	ldr	r3, [sp, #12]
  HAL_GPIO_WritePin(LD2_GPIO_Port, LD2_Pin, GPIO_PIN_RESET);
 800230a:	f000 ff2b 	bl	8003164 <HAL_GPIO_WritePin>
  HAL_GPIO_WritePin(GPIOC, LED1_Pin|LED2_Pin, GPIO_PIN_RESET);
 800230e:	2200      	movs	r2, #0
 8002310:	4630      	mov	r0, r6
 8002312:	f44f 6140 	mov.w	r1, #3072	; 0xc00
 8002316:	f000 ff25 	bl	8003164 <HAL_GPIO_WritePin>
  GPIO_InitStruct.Pin = B1_Pin;
 800231a:	f44f 5300 	mov.w	r3, #8192	; 0x2000
 800231e:	9304      	str	r3, [sp, #16]
  GPIO_InitStruct.Mode = GPIO_MODE_IT_RISING;
 8002320:	4b1a      	ldr	r3, [pc, #104]	; (800238c <MX_GPIO_Init+0xf0>)
  HAL_GPIO_Init(B1_GPIO_Port, &GPIO_InitStruct);
 8002322:	a904      	add	r1, sp, #16
 8002324:	4630      	mov	r0, r6
  GPIO_InitStruct.Mode = GPIO_MODE_IT_RISING;
 8002326:	9305      	str	r3, [sp, #20]
  GPIO_InitStruct.Pull = GPIO_NOPULL;
 8002328:	9406      	str	r4, [sp, #24]
  HAL_GPIO_Init(B1_GPIO_Port, &GPIO_InitStruct);
 800232a:	f000 fe39 	bl	8002fa0 <HAL_GPIO_Init>
  GPIO_InitStruct.Pin = USART_TX_Pin|USART_RX_Pin;
 800232e:	230c      	movs	r3, #12
  HAL_GPIO_Init(GPIOA, &GPIO_InitStruct);
 8002330:	a904      	add	r1, sp, #16
 8002332:	4638      	mov	r0, r7
  GPIO_InitStruct.Pin = USART_TX_Pin|USART_RX_Pin;
 8002334:	9304      	str	r3, [sp, #16]
  GPIO_InitStruct.Mode = GPIO_MODE_AF_PP;
 8002336:	9505      	str	r5, [sp, #20]
  GPIO_InitStruct.Speed = GPIO_SPEED_FREQ_LOW;
 8002338:	9507      	str	r5, [sp, #28]
  HAL_GPIO_Init(GPIOA, &GPIO_InitStruct);
 800233a:	f000 fe31 	bl	8002fa0 <HAL_GPIO_Init>
  GPIO_InitStruct.Pin = LD2_Pin;
 800233e:	2320      	movs	r3, #32
  GPIO_InitStruct.Pull = GPIO_NOPULL;
  GPIO_InitStruct.Speed = GPIO_SPEED_FREQ_LOW;
  HAL_GPIO_Init(LD2_GPIO_Port, &GPIO_InitStruct);
 8002340:	a904      	add	r1, sp, #16
 8002342:	4638      	mov	r0, r7
  GPIO_InitStruct.Pin = LD2_Pin;
 8002344:	9304      	str	r3, [sp, #16]
  GPIO_InitStruct.Mode = GPIO_MODE_OUTPUT_PP;
 8002346:	f8cd 8014 	str.w	r8, [sp, #20]
  GPIO_InitStruct.Pull = GPIO_NOPULL;
 800234a:	9406      	str	r4, [sp, #24]
  GPIO_InitStruct.Speed = GPIO_SPEED_FREQ_LOW;
 800234c:	9507      	str	r5, [sp, #28]
  HAL_GPIO_Init(LD2_GPIO_Port, &GPIO_InitStruct);
 800234e:	f000 fe27 	bl	8002fa0 <HAL_GPIO_Init>

  /*Configure GPIO pins : PCPin PCPin */
  GPIO_InitStruct.Pin = LED1_Pin|LED2_Pin;
 8002352:	f44f 6340 	mov.w	r3, #3072	; 0xc00
  GPIO_InitStruct.Mode = GPIO_MODE_OUTPUT_PP;
  GPIO_InitStruct.Pull = GPIO_NOPULL;
  GPIO_InitStruct.Speed = GPIO_SPEED_FREQ_LOW;
  HAL_GPIO_Init(GPIOC, &GPIO_InitStruct);
 8002356:	a904      	add	r1, sp, #16
 8002358:	4630      	mov	r0, r6
  GPIO_InitStruct.Pin = LED1_Pin|LED2_Pin;
 800235a:	9304      	str	r3, [sp, #16]
  GPIO_InitStruct.Mode = GPIO_MODE_OUTPUT_PP;
 800235c:	f8cd 8014 	str.w	r8, [sp, #20]
  GPIO_InitStruct.Pull = GPIO_NOPULL;
 8002360:	9406      	str	r4, [sp, #24]
  GPIO_InitStruct.Speed = GPIO_SPEED_FREQ_LOW;
 8002362:	9507      	str	r5, [sp, #28]
  HAL_GPIO_Init(GPIOC, &GPIO_InitStruct);
 8002364:	f000 fe1c 	bl	8002fa0 <HAL_GPIO_Init>

  /* EXTI interrupt init*/
  HAL_NVIC_SetPriority(EXTI15_10_IRQn, 5, 0);
 8002368:	4622      	mov	r2, r4
 800236a:	2105      	movs	r1, #5
 800236c:	2028      	movs	r0, #40	; 0x28
 800236e:	f000 fc8b 	bl	8002c88 <HAL_NVIC_SetPriority>
  HAL_NVIC_EnableIRQ(EXTI15_10_IRQn);
 8002372:	2028      	movs	r0, #40	; 0x28
 8002374:	f000 fcbc 	bl	8002cf0 <HAL_NVIC_EnableIRQ>

}
 8002378:	b008      	add	sp, #32
 800237a:	e8bd 81f0 	ldmia.w	sp!, {r4, r5, r6, r7, r8, pc}
 800237e:	bf00      	nop
 8002380:	40021000 	.word	0x40021000
 8002384:	40010800 	.word	0x40010800
 8002388:	40011000 	.word	0x40011000
 800238c:	10110000 	.word	0x10110000

08002390 <main>:
/**
  * @brief  The application entry point.
  * @retval int
  */
int main(void)
{
 8002390:	b580      	push	{r7, lr}
 8002392:	af00      	add	r7, sp, #0
  /* USER CODE END 1 */

  /* MCU Configuration--------------------------------------------------------*/

  /* Reset of all peripherals, Initializes the Flash interface and the Systick. */
  HAL_Init();
 8002394:	f000 f9b8 	bl	8002708 <HAL_Init>
  /* USER CODE BEGIN Init */

  /* USER CODE END Init */

  /* Configure the system clock */
  SystemClock_Config();
 8002398:	f000 f80f 	bl	80023ba <SystemClock_Config>
  /* USER CODE BEGIN SysInit */

  /* USER CODE END SysInit */

  /* Initialize all configured peripherals */
  MX_GPIO_Init();
 800239c:	f7ff ff7e 	bl	800229c <MX_GPIO_Init>
  MX_DMA_Init();
 80023a0:	f7ff ff26 	bl	80021f0 <MX_DMA_Init>
  MX_ADC1_Init();
 80023a4:	f7ff fea2 	bl	80020ec <MX_ADC1_Init>
  MX_USART3_UART_Init();
 80023a8:	f000 f94e 	bl	8002648 <MX_USART3_UART_Init>
  /* USER CODE BEGIN 2 */
  MX_TIM4_Init();
 80023ac:	f000 f902 	bl	80025b4 <MX_TIM4_Init>
  /* USER CODE END 2 */

  /* Call init function for freertos objects (in freertos.c) */
  MX_FREERTOS_Init();
 80023b0:	f7ff ff4e 	bl	8002250 <MX_FREERTOS_Init>
  /* Start scheduler */
  osKernelStart();
 80023b4:	f001 fde6 	bl	8003f84 <osKernelStart>

  /* We should never get here as control is now taken by the scheduler */
  /* Infinite loop */
  /* USER CODE BEGIN WHILE */
  while (1)
 80023b8:	e7fe      	b.n	80023b8 <main+0x28>

080023ba <SystemClock_Config>:
/**
  * @brief System Clock Configuration
  * @retval None
  */
void SystemClock_Config(void)
{
 80023ba:	b580      	push	{r7, lr}
 80023bc:	b094      	sub	sp, #80	; 0x50
 80023be:	af00      	add	r7, sp, #0
  RCC_OscInitTypeDef RCC_OscInitStruct = {0};
 80023c0:	f107 0328 	add.w	r3, r7, #40	; 0x28
 80023c4:	2228      	movs	r2, #40	; 0x28
 80023c6:	2100      	movs	r1, #0
 80023c8:	4618      	mov	r0, r3
 80023ca:	f003 f96c 	bl	80056a6 <memset>
  RCC_ClkInitTypeDef RCC_ClkInitStruct = {0};
 80023ce:	f107 0314 	add.w	r3, r7, #20
 80023d2:	2200      	movs	r2, #0
 80023d4:	601a      	str	r2, [r3, #0]
 80023d6:	605a      	str	r2, [r3, #4]
 80023d8:	609a      	str	r2, [r3, #8]
 80023da:	60da      	str	r2, [r3, #12]
 80023dc:	611a      	str	r2, [r3, #16]
  RCC_PeriphCLKInitTypeDef PeriphClkInit = {0};
 80023de:	1d3b      	adds	r3, r7, #4
 80023e0:	2200      	movs	r2, #0
 80023e2:	601a      	str	r2, [r3, #0]
 80023e4:	605a      	str	r2, [r3, #4]
 80023e6:	609a      	str	r2, [r3, #8]
 80023e8:	60da      	str	r2, [r3, #12]

  /** Initializes the CPU, AHB and APB busses clocks
  */
  RCC_OscInitStruct.OscillatorType = RCC_OSCILLATORTYPE_HSI;
 80023ea:	2302      	movs	r3, #2
 80023ec:	62bb      	str	r3, [r7, #40]	; 0x28
  RCC_OscInitStruct.HSIState = RCC_HSI_ON;
 80023ee:	2301      	movs	r3, #1
 80023f0:	63bb      	str	r3, [r7, #56]	; 0x38
  RCC_OscInitStruct.HSICalibrationValue = RCC_HSICALIBRATION_DEFAULT;
 80023f2:	2310      	movs	r3, #16
 80023f4:	63fb      	str	r3, [r7, #60]	; 0x3c
  RCC_OscInitStruct.PLL.PLLState = RCC_PLL_ON;
 80023f6:	2302      	movs	r3, #2
 80023f8:	647b      	str	r3, [r7, #68]	; 0x44
  RCC_OscInitStruct.PLL.PLLSource = RCC_PLLSOURCE_HSI_DIV2;
 80023fa:	2300      	movs	r3, #0
 80023fc:	64bb      	str	r3, [r7, #72]	; 0x48
  RCC_OscInitStruct.PLL.PLLMUL = RCC_PLL_MUL2;
 80023fe:	2300      	movs	r3, #0
 8002400:	64fb      	str	r3, [r7, #76]	; 0x4c
  if (HAL_RCC_OscConfig(&RCC_OscInitStruct) != HAL_OK)
 8002402:	f107 0328 	add.w	r3, r7, #40	; 0x28
 8002406:	4618      	mov	r0, r3
 8002408:	f000 fec8 	bl	800319c <HAL_RCC_OscConfig>
 800240c:	4603      	mov	r3, r0
 800240e:	2b00      	cmp	r3, #0
 8002410:	bf14      	ite	ne
 8002412:	2301      	movne	r3, #1
 8002414:	2300      	moveq	r3, #0
 8002416:	b2db      	uxtb	r3, r3
 8002418:	2b00      	cmp	r3, #0
 800241a:	d001      	beq.n	8002420 <SystemClock_Config+0x66>
  {
    Error_Handler();
 800241c:	f000 f831 	bl	8002482 <Error_Handler>
  }
  /** Initializes the CPU, AHB and APB busses clocks
  */
  RCC_ClkInitStruct.ClockType = RCC_CLOCKTYPE_HCLK|RCC_CLOCKTYPE_SYSCLK
 8002420:	230f      	movs	r3, #15
 8002422:	617b      	str	r3, [r7, #20]
                              |RCC_CLOCKTYPE_PCLK1|RCC_CLOCKTYPE_PCLK2;
  RCC_ClkInitStruct.SYSCLKSource = RCC_SYSCLKSOURCE_PLLCLK;
 8002424:	2302      	movs	r3, #2
 8002426:	61bb      	str	r3, [r7, #24]
  RCC_ClkInitStruct.AHBCLKDivider = RCC_SYSCLK_DIV1;
 8002428:	2300      	movs	r3, #0
 800242a:	61fb      	str	r3, [r7, #28]
  RCC_ClkInitStruct.APB1CLKDivider = RCC_HCLK_DIV2;
 800242c:	f44f 6380 	mov.w	r3, #1024	; 0x400
 8002430:	623b      	str	r3, [r7, #32]
  RCC_ClkInitStruct.APB2CLKDivider = RCC_HCLK_DIV1;
 8002432:	2300      	movs	r3, #0
 8002434:	627b      	str	r3, [r7, #36]	; 0x24

  if (HAL_RCC_ClockConfig(&RCC_ClkInitStruct, FLASH_LATENCY_0) != HAL_OK)
 8002436:	f107 0314 	add.w	r3, r7, #20
 800243a:	2100      	movs	r1, #0
 800243c:	4618      	mov	r0, r3
 800243e:	f001 f887 	bl	8003550 <HAL_RCC_ClockConfig>
 8002442:	4603      	mov	r3, r0
 8002444:	2b00      	cmp	r3, #0
 8002446:	bf14      	ite	ne
 8002448:	2301      	movne	r3, #1
 800244a:	2300      	moveq	r3, #0
 800244c:	b2db      	uxtb	r3, r3
 800244e:	2b00      	cmp	r3, #0
 8002450:	d001      	beq.n	8002456 <SystemClock_Config+0x9c>
  {
    Error_Handler();
 8002452:	f000 f816 	bl	8002482 <Error_Handler>
  }
  PeriphClkInit.PeriphClockSelection = RCC_PERIPHCLK_ADC;
 8002456:	2302      	movs	r3, #2
 8002458:	607b      	str	r3, [r7, #4]
  PeriphClkInit.AdcClockSelection = RCC_ADCPCLK2_DIV2;
 800245a:	2300      	movs	r3, #0
 800245c:	60fb      	str	r3, [r7, #12]
  if (HAL_RCCEx_PeriphCLKConfig(&PeriphClkInit) != HAL_OK)
 800245e:	1d3b      	adds	r3, r7, #4
 8002460:	4618      	mov	r0, r3
 8002462:	f001 f951 	bl	8003708 <HAL_RCCEx_PeriphCLKConfig>
 8002466:	4603      	mov	r3, r0
 8002468:	2b00      	cmp	r3, #0
 800246a:	bf14      	ite	ne
 800246c:	2301      	movne	r3, #1
 800246e:	2300      	moveq	r3, #0
 8002470:	b2db      	uxtb	r3, r3
 8002472:	2b00      	cmp	r3, #0
 8002474:	d001      	beq.n	800247a <SystemClock_Config+0xc0>
  {
    Error_Handler();
 8002476:	f000 f804 	bl	8002482 <Error_Handler>
  }
}
 800247a:	bf00      	nop
 800247c:	3750      	adds	r7, #80	; 0x50
 800247e:	46bd      	mov	sp, r7
 8002480:	bd80      	pop	{r7, pc}

08002482 <Error_Handler>:
/**
  * @brief  This function is executed in case of error occurrence.
  * @retval None
  */
void Error_Handler(void)
{
 8002482:	b480      	push	{r7}
 8002484:	af00      	add	r7, sp, #0
  /* USER CODE BEGIN Error_Handler_Debug */
  /* User can add his own implementation to report the HAL error return state */

  /* USER CODE END Error_Handler_Debug */
}
 8002486:	bf00      	nop
 8002488:	46bd      	mov	sp, r7
 800248a:	bc80      	pop	{r7}
 800248c:	4770      	bx	lr
	...

08002490 <HAL_MspInit>:
{
  /* USER CODE BEGIN MspInit 0 */

  /* USER CODE END MspInit 0 */

  __HAL_RCC_AFIO_CLK_ENABLE();
 8002490:	4b11      	ldr	r3, [pc, #68]	; (80024d8 <HAL_MspInit+0x48>)
{
 8002492:	b507      	push	{r0, r1, r2, lr}
  __HAL_RCC_AFIO_CLK_ENABLE();
 8002494:	699a      	ldr	r2, [r3, #24]
  __HAL_RCC_PWR_CLK_ENABLE();

  /* System interrupt init*/
  /* PendSV_IRQn interrupt configuration */
  HAL_NVIC_SetPriority(PendSV_IRQn, 15, 0);
 8002496:	210f      	movs	r1, #15
  __HAL_RCC_AFIO_CLK_ENABLE();
 8002498:	f042 0201 	orr.w	r2, r2, #1
 800249c:	619a      	str	r2, [r3, #24]
 800249e:	699a      	ldr	r2, [r3, #24]
  HAL_NVIC_SetPriority(PendSV_IRQn, 15, 0);
 80024a0:	f06f 0001 	mvn.w	r0, #1
  __HAL_RCC_AFIO_CLK_ENABLE();
 80024a4:	f002 0201 	and.w	r2, r2, #1
 80024a8:	9200      	str	r2, [sp, #0]
 80024aa:	9a00      	ldr	r2, [sp, #0]
  __HAL_RCC_PWR_CLK_ENABLE();
 80024ac:	69da      	ldr	r2, [r3, #28]
 80024ae:	f042 5280 	orr.w	r2, r2, #268435456	; 0x10000000
 80024b2:	61da      	str	r2, [r3, #28]
 80024b4:	69db      	ldr	r3, [r3, #28]
  HAL_NVIC_SetPriority(PendSV_IRQn, 15, 0);
 80024b6:	2200      	movs	r2, #0
  __HAL_RCC_PWR_CLK_ENABLE();
 80024b8:	f003 5380 	and.w	r3, r3, #268435456	; 0x10000000
 80024bc:	9301      	str	r3, [sp, #4]
 80024be:	9b01      	ldr	r3, [sp, #4]
  HAL_NVIC_SetPriority(PendSV_IRQn, 15, 0);
 80024c0:	f000 fbe2 	bl	8002c88 <HAL_NVIC_SetPriority>

  /** NOJTAG: JTAG-DP Disabled and SW-DP Enabled 
  */
  __HAL_AFIO_REMAP_SWJ_NOJTAG();
 80024c4:	4a05      	ldr	r2, [pc, #20]	; (80024dc <HAL_MspInit+0x4c>)
 80024c6:	6853      	ldr	r3, [r2, #4]
 80024c8:	f023 63e0 	bic.w	r3, r3, #117440512	; 0x7000000
 80024cc:	f043 7300 	orr.w	r3, r3, #33554432	; 0x2000000
 80024d0:	6053      	str	r3, [r2, #4]

  /* USER CODE BEGIN MspInit 1 */

  /* USER CODE END MspInit 1 */
}
 80024d2:	b003      	add	sp, #12
 80024d4:	f85d fb04 	ldr.w	pc, [sp], #4
 80024d8:	40021000 	.word	0x40021000
 80024dc:	40010000 	.word	0x40010000

080024e0 <HAL_InitTick>:
  *         reset by HAL_Init() or at any time when clock is configured, by HAL_RCC_ClockConfig(). 
  * @param  TickPriority: Tick interrupt priority.
  * @retval HAL status
  */
HAL_StatusTypeDef HAL_InitTick(uint32_t TickPriority)
{
 80024e0:	b510      	push	{r4, lr}
  uint32_t              uwTimclock = 0;
  uint32_t              uwPrescalerValue = 0;
  uint32_t              pFLatency;
  
  /*Configure the TIM1 IRQ priority */
  HAL_NVIC_SetPriority(TIM1_UP_IRQn, TickPriority ,0); 
 80024e2:	4601      	mov	r1, r0
{
 80024e4:	b088      	sub	sp, #32
  HAL_NVIC_SetPriority(TIM1_UP_IRQn, TickPriority ,0); 
 80024e6:	2200      	movs	r2, #0
 80024e8:	2019      	movs	r0, #25
 80024ea:	f000 fbcd 	bl	8002c88 <HAL_NVIC_SetPriority>
  
  /* Enable the TIM1 global Interrupt */
  HAL_NVIC_EnableIRQ(TIM1_UP_IRQn); 
 80024ee:	2019      	movs	r0, #25
 80024f0:	f000 fbfe 	bl	8002cf0 <HAL_NVIC_EnableIRQ>
  
  /* Enable TIM1 clock */
  __HAL_RCC_TIM1_CLK_ENABLE();
 80024f4:	4b14      	ldr	r3, [pc, #80]	; (8002548 <HAL_InitTick+0x68>)
  
  /* Get clock configuration */
  HAL_RCC_GetClockConfig(&clkconfig, &pFLatency);
 80024f6:	a901      	add	r1, sp, #4
  __HAL_RCC_TIM1_CLK_ENABLE();
 80024f8:	699a      	ldr	r2, [r3, #24]
  HAL_RCC_GetClockConfig(&clkconfig, &pFLatency);
 80024fa:	a803      	add	r0, sp, #12
  __HAL_RCC_TIM1_CLK_ENABLE();
 80024fc:	f442 6200 	orr.w	r2, r2, #2048	; 0x800
 8002500:	619a      	str	r2, [r3, #24]
 8002502:	699b      	ldr	r3, [r3, #24]
   
  /* Compute the prescaler value to have TIM1 counter clock equal to 1MHz */
  uwPrescalerValue = (uint32_t) ((uwTimclock / 1000000) - 1);
  
  /* Initialize TIM1 */
  htim1.Instance = TIM1;
 8002504:	4c11      	ldr	r4, [pc, #68]	; (800254c <HAL_InitTick+0x6c>)
  __HAL_RCC_TIM1_CLK_ENABLE();
 8002506:	f403 6300 	and.w	r3, r3, #2048	; 0x800
 800250a:	9302      	str	r3, [sp, #8]
 800250c:	9b02      	ldr	r3, [sp, #8]
  HAL_RCC_GetClockConfig(&clkconfig, &pFLatency);
 800250e:	f001 f8dd 	bl	80036cc <HAL_RCC_GetClockConfig>
  uwTimclock = HAL_RCC_GetPCLK2Freq();
 8002512:	f001 f8cb 	bl	80036ac <HAL_RCC_GetPCLK2Freq>
  htim1.Instance = TIM1;
 8002516:	4b0e      	ldr	r3, [pc, #56]	; (8002550 <HAL_InitTick+0x70>)
 8002518:	6023      	str	r3, [r4, #0]
  + Period = [(TIM1CLK/1000) - 1]. to have a (1/1000) s time base.
  + Prescaler = (uwTimclock/1000000 - 1) to have a 1MHz counter clock.
  + ClockDivision = 0
  + Counter direction = Up
  */
  htim1.Init.Period = (1000000 / 1000) - 1;
 800251a:	f240 33e7 	movw	r3, #999	; 0x3e7
 800251e:	60e3      	str	r3, [r4, #12]
  uwPrescalerValue = (uint32_t) ((uwTimclock / 1000000) - 1);
 8002520:	4b0c      	ldr	r3, [pc, #48]	; (8002554 <HAL_InitTick+0x74>)
 8002522:	fbb0 f0f3 	udiv	r0, r0, r3
  htim1.Init.Prescaler = uwPrescalerValue;
  htim1.Init.ClockDivision = 0;
 8002526:	2300      	movs	r3, #0
  uwPrescalerValue = (uint32_t) ((uwTimclock / 1000000) - 1);
 8002528:	3801      	subs	r0, #1
  htim1.Init.Prescaler = uwPrescalerValue;
 800252a:	6060      	str	r0, [r4, #4]
  htim1.Init.CounterMode = TIM_COUNTERMODE_UP;
  if(HAL_TIM_Base_Init(&htim1) == HAL_OK)
 800252c:	4620      	mov	r0, r4
  htim1.Init.ClockDivision = 0;
 800252e:	6123      	str	r3, [r4, #16]
  htim1.Init.CounterMode = TIM_COUNTERMODE_UP;
 8002530:	60a3      	str	r3, [r4, #8]
  if(HAL_TIM_Base_Init(&htim1) == HAL_OK)
 8002532:	f001 faa7 	bl	8003a84 <HAL_TIM_Base_Init>
 8002536:	b920      	cbnz	r0, 8002542 <HAL_InitTick+0x62>
  {
    /* Start the TIM time Base generation in interrupt mode */
    return HAL_TIM_Base_Start_IT(&htim1);
 8002538:	4620      	mov	r0, r4
 800253a:	f001 f983 	bl	8003844 <HAL_TIM_Base_Start_IT>
  }
  
  /* Return function status */
  return HAL_ERROR;
}
 800253e:	b008      	add	sp, #32
 8002540:	bd10      	pop	{r4, pc}
  return HAL_ERROR;
 8002542:	2001      	movs	r0, #1
 8002544:	e7fb      	b.n	800253e <HAL_InitTick+0x5e>
 8002546:	bf00      	nop
 8002548:	40021000 	.word	0x40021000
 800254c:	20001150 	.word	0x20001150
 8002550:	40012c00 	.word	0x40012c00
 8002554:	000f4240 	.word	0x000f4240

08002558 <NMI_Handler>:
 8002558:	4770      	bx	lr

0800255a <HardFault_Handler>:

/**
  * @brief This function handles Hard fault interrupt.
  */
void HardFault_Handler(void)
{
 800255a:	e7fe      	b.n	800255a <HardFault_Handler>

0800255c <MemManage_Handler>:

/**
  * @brief This function handles Memory management fault.
  */
void MemManage_Handler(void)
{
 800255c:	e7fe      	b.n	800255c <MemManage_Handler>

0800255e <BusFault_Handler>:

/**
  * @brief This function handles Prefetch fault, memory access fault.
  */
void BusFault_Handler(void)
{
 800255e:	e7fe      	b.n	800255e <BusFault_Handler>

08002560 <UsageFault_Handler>:

/**
  * @brief This function handles Undefined instruction or illegal state.
  */
void UsageFault_Handler(void)
{
 8002560:	e7fe      	b.n	8002560 <UsageFault_Handler>

08002562 <DebugMon_Handler>:

/**
  * @brief This function handles Debug monitor.
  */
void DebugMon_Handler(void)
{
 8002562:	4770      	bx	lr

08002564 <DMA1_Channel1_IRQHandler>:
void DMA1_Channel1_IRQHandler(void)
{
  /* USER CODE BEGIN DMA1_Channel1_IRQn 0 */

  /* USER CODE END DMA1_Channel1_IRQn 0 */
  HAL_DMA_IRQHandler(&hdma_adc1);
 8002564:	4801      	ldr	r0, [pc, #4]	; (800256c <DMA1_Channel1_IRQHandler+0x8>)
 8002566:	f000 bc87 	b.w	8002e78 <HAL_DMA_IRQHandler>
 800256a:	bf00      	nop
 800256c:	2000110c 	.word	0x2000110c

08002570 <TIM1_UP_IRQHandler>:
void TIM1_UP_IRQHandler(void)
{
  /* USER CODE BEGIN TIM1_UP_IRQn 0 */

  /* USER CODE END TIM1_UP_IRQn 0 */
  HAL_TIM_IRQHandler(&htim1);
 8002570:	4801      	ldr	r0, [pc, #4]	; (8002578 <TIM1_UP_IRQHandler+0x8>)
 8002572:	f001 b9ad 	b.w	80038d0 <HAL_TIM_IRQHandler>
 8002576:	bf00      	nop
 8002578:	20001150 	.word	0x20001150

0800257c <USART3_IRQHandler>:
void USART3_IRQHandler(void)
{
  /* USER CODE BEGIN USART3_IRQn 0 */

  /* USER CODE END USART3_IRQn 0 */
  HAL_UART_IRQHandler(&huart3);
 800257c:	4801      	ldr	r0, [pc, #4]	; (8002584 <USART3_IRQHandler+0x8>)
 800257e:	f001 bc59 	b.w	8003e34 <HAL_UART_IRQHandler>
 8002582:	bf00      	nop
 8002584:	200011e0 	.word	0x200011e0

08002588 <EXTI15_10_IRQHandler>:
void EXTI15_10_IRQHandler(void)
{
  /* USER CODE BEGIN EXTI15_10_IRQn 0 */

  /* USER CODE END EXTI15_10_IRQn 0 */
  HAL_GPIO_EXTI_IRQHandler(GPIO_PIN_13);
 8002588:	f44f 5000 	mov.w	r0, #8192	; 0x2000
 800258c:	f000 bdfa 	b.w	8003184 <HAL_GPIO_EXTI_IRQHandler>

08002590 <_getpid>:
}

int _getpid(void)
{
	return 1;
}
 8002590:	2001      	movs	r0, #1
 8002592:	4770      	bx	lr

08002594 <_kill>:

int _kill(int pid, int sig)
{
 8002594:	b508      	push	{r3, lr}
	errno = EINVAL;
 8002596:	f003 f849 	bl	800562c <__errno>
 800259a:	2316      	movs	r3, #22
 800259c:	6003      	str	r3, [r0, #0]
	return -1;
}
 800259e:	f04f 30ff 	mov.w	r0, #4294967295
 80025a2:	bd08      	pop	{r3, pc}

080025a4 <_exit>:

void _exit (int status)
{
 80025a4:	b508      	push	{r3, lr}
	errno = EINVAL;
 80025a6:	f003 f841 	bl	800562c <__errno>
 80025aa:	2316      	movs	r3, #22
 80025ac:	6003      	str	r3, [r0, #0]
 80025ae:	e7fe      	b.n	80025ae <_exit+0xa>

080025b0 <SystemInit>:
  * @note   This function should be used only after reset.
  * @param  None
  * @retval None
  */
void SystemInit (void)
{
 80025b0:	4770      	bx	lr
	...

080025b4 <MX_TIM4_Init>:

TIM_HandleTypeDef htim4;

/* TIM4 init function */
void MX_TIM4_Init(void)
{
 80025b4:	b57f      	push	{r0, r1, r2, r3, r4, r5, r6, lr}
  TIM_ClockConfigTypeDef sClockSourceConfig = {0};
 80025b6:	2210      	movs	r2, #16
 80025b8:	2100      	movs	r1, #0
 80025ba:	a802      	add	r0, sp, #8
 80025bc:	f003 f873 	bl	80056a6 <memset>
  TIM_MasterConfigTypeDef sMasterConfig = {0};

  htim4.Instance = TIM4;
  htim4.Init.Prescaler = 8000-1;
 80025c0:	f641 723f 	movw	r2, #7999	; 0x1f3f
  htim4.Instance = TIM4;
 80025c4:	4814      	ldr	r0, [pc, #80]	; (8002618 <MX_TIM4_Init+0x64>)
  htim4.Init.Prescaler = 8000-1;
 80025c6:	4915      	ldr	r1, [pc, #84]	; (800261c <MX_TIM4_Init+0x68>)
  TIM_MasterConfigTypeDef sMasterConfig = {0};
 80025c8:	2300      	movs	r3, #0
  htim4.Init.Prescaler = 8000-1;
 80025ca:	e880 0006 	stmia.w	r0, {r1, r2}
  htim4.Init.CounterMode = TIM_COUNTERMODE_UP;
  htim4.Init.Period = 0xffff;
 80025ce:	f64f 72ff 	movw	r2, #65535	; 0xffff
  TIM_MasterConfigTypeDef sMasterConfig = {0};
 80025d2:	9300      	str	r3, [sp, #0]
 80025d4:	9301      	str	r3, [sp, #4]
  htim4.Init.CounterMode = TIM_COUNTERMODE_UP;
 80025d6:	6083      	str	r3, [r0, #8]
  htim4.Init.Period = 0xffff;
 80025d8:	60c2      	str	r2, [r0, #12]
  htim4.Init.ClockDivision = TIM_CLOCKDIVISION_DIV1;
 80025da:	6103      	str	r3, [r0, #16]
  htim4.Init.AutoReloadPreload = TIM_AUTORELOAD_PRELOAD_DISABLE;
 80025dc:	6183      	str	r3, [r0, #24]
  if (HAL_TIM_Base_Init(&htim4) != HAL_OK)
 80025de:	f001 fa51 	bl	8003a84 <HAL_TIM_Base_Init>
 80025e2:	b108      	cbz	r0, 80025e8 <MX_TIM4_Init+0x34>
  {
    Error_Handler();
 80025e4:	f7ff ff4d 	bl	8002482 <Error_Handler>
  }
  sClockSourceConfig.ClockSource = TIM_CLOCKSOURCE_INTERNAL;
 80025e8:	f44f 5380 	mov.w	r3, #4096	; 0x1000
  if (HAL_TIM_ConfigClockSource(&htim4, &sClockSourceConfig) != HAL_OK)
 80025ec:	a902      	add	r1, sp, #8
 80025ee:	480a      	ldr	r0, [pc, #40]	; (8002618 <MX_TIM4_Init+0x64>)
  sClockSourceConfig.ClockSource = TIM_CLOCKSOURCE_INTERNAL;
 80025f0:	9302      	str	r3, [sp, #8]
  if (HAL_TIM_ConfigClockSource(&htim4, &sClockSourceConfig) != HAL_OK)
 80025f2:	f001 fa7d 	bl	8003af0 <HAL_TIM_ConfigClockSource>
 80025f6:	b108      	cbz	r0, 80025fc <MX_TIM4_Init+0x48>
  {
    Error_Handler();
 80025f8:	f7ff ff43 	bl	8002482 <Error_Handler>
  }
  sMasterConfig.MasterOutputTrigger = TIM_TRGO_RESET;
 80025fc:	2300      	movs	r3, #0
  sMasterConfig.MasterSlaveMode = TIM_MASTERSLAVEMODE_DISABLE;
  if (HAL_TIMEx_MasterConfigSynchronization(&htim4, &sMasterConfig) != HAL_OK)
 80025fe:	4669      	mov	r1, sp
 8002600:	4805      	ldr	r0, [pc, #20]	; (8002618 <MX_TIM4_Init+0x64>)
  sMasterConfig.MasterOutputTrigger = TIM_TRGO_RESET;
 8002602:	9300      	str	r3, [sp, #0]
  sMasterConfig.MasterSlaveMode = TIM_MASTERSLAVEMODE_DISABLE;
 8002604:	9301      	str	r3, [sp, #4]
  if (HAL_TIMEx_MasterConfigSynchronization(&htim4, &sMasterConfig) != HAL_OK)
 8002606:	f001 fb07 	bl	8003c18 <HAL_TIMEx_MasterConfigSynchronization>
 800260a:	b108      	cbz	r0, 8002610 <MX_TIM4_Init+0x5c>
  {
    Error_Handler();
 800260c:	f7ff ff39 	bl	8002482 <Error_Handler>
  }

}
 8002610:	b007      	add	sp, #28
 8002612:	f85d fb04 	ldr.w	pc, [sp], #4
 8002616:	bf00      	nop
 8002618:	20001198 	.word	0x20001198
 800261c:	40000800 	.word	0x40000800

08002620 <HAL_TIM_Base_MspInit>:

void HAL_TIM_Base_MspInit(TIM_HandleTypeDef* tim_baseHandle)
{

  if(tim_baseHandle->Instance==TIM4)
 8002620:	6802      	ldr	r2, [r0, #0]
 8002622:	4b08      	ldr	r3, [pc, #32]	; (8002644 <HAL_TIM_Base_MspInit+0x24>)
{
 8002624:	b082      	sub	sp, #8
  if(tim_baseHandle->Instance==TIM4)
 8002626:	429a      	cmp	r2, r3
 8002628:	d10a      	bne.n	8002640 <HAL_TIM_Base_MspInit+0x20>
  {
  /* USER CODE BEGIN TIM4_MspInit 0 */

  /* USER CODE END TIM4_MspInit 0 */
    /* TIM4 clock enable */
    __HAL_RCC_TIM4_CLK_ENABLE();
 800262a:	f503 3302 	add.w	r3, r3, #133120	; 0x20800
 800262e:	69da      	ldr	r2, [r3, #28]
 8002630:	f042 0204 	orr.w	r2, r2, #4
 8002634:	61da      	str	r2, [r3, #28]
 8002636:	69db      	ldr	r3, [r3, #28]
 8002638:	f003 0304 	and.w	r3, r3, #4
 800263c:	9301      	str	r3, [sp, #4]
 800263e:	9b01      	ldr	r3, [sp, #4]
  /* USER CODE BEGIN TIM4_MspInit 1 */

  /* USER CODE END TIM4_MspInit 1 */
  }
}
 8002640:	b002      	add	sp, #8
 8002642:	4770      	bx	lr
 8002644:	40000800 	.word	0x40000800

08002648 <MX_USART3_UART_Init>:
UART_HandleTypeDef huart3;

/* USART3 init function */

void MX_USART3_UART_Init(void)
{
 8002648:	b508      	push	{r3, lr}

  huart3.Instance = USART3;
  huart3.Init.BaudRate = 115200;
 800264a:	f44f 3ee1 	mov.w	lr, #115200	; 0x1c200
  huart3.Instance = USART3;
 800264e:	480a      	ldr	r0, [pc, #40]	; (8002678 <MX_USART3_UART_Init+0x30>)
  huart3.Init.BaudRate = 115200;
 8002650:	4b0a      	ldr	r3, [pc, #40]	; (800267c <MX_USART3_UART_Init+0x34>)
  huart3.Init.WordLength = UART_WORDLENGTH_8B;
  huart3.Init.StopBits = UART_STOPBITS_1;
  huart3.Init.Parity = UART_PARITY_NONE;
  huart3.Init.Mode = UART_MODE_TX_RX;
 8002652:	220c      	movs	r2, #12
  huart3.Init.BaudRate = 115200;
 8002654:	e880 4008 	stmia.w	r0, {r3, lr}
  huart3.Init.WordLength = UART_WORDLENGTH_8B;
 8002658:	2300      	movs	r3, #0
  huart3.Init.Mode = UART_MODE_TX_RX;
 800265a:	6142      	str	r2, [r0, #20]
  huart3.Init.WordLength = UART_WORDLENGTH_8B;
 800265c:	6083      	str	r3, [r0, #8]
  huart3.Init.StopBits = UART_STOPBITS_1;
 800265e:	60c3      	str	r3, [r0, #12]
  huart3.Init.Parity = UART_PARITY_NONE;
 8002660:	6103      	str	r3, [r0, #16]
  huart3.Init.HwFlowCtl = UART_HWCONTROL_NONE;
 8002662:	6183      	str	r3, [r0, #24]
  huart3.Init.OverSampling = UART_OVERSAMPLING_16;
 8002664:	61c3      	str	r3, [r0, #28]
  if (HAL_UART_Init(&huart3) != HAL_OK)
 8002666:	f001 fb53 	bl	8003d10 <HAL_UART_Init>
 800266a:	b118      	cbz	r0, 8002674 <MX_USART3_UART_Init+0x2c>
  {
    Error_Handler();
  }

}
 800266c:	e8bd 4008 	ldmia.w	sp!, {r3, lr}
    Error_Handler();
 8002670:	f7ff bf07 	b.w	8002482 <Error_Handler>
 8002674:	bd08      	pop	{r3, pc}
 8002676:	bf00      	nop
 8002678:	200011e0 	.word	0x200011e0
 800267c:	40004800 	.word	0x40004800

08002680 <HAL_UART_MspInit>:

void HAL_UART_MspInit(UART_HandleTypeDef* uartHandle)
{
 8002680:	b510      	push	{r4, lr}
 8002682:	4604      	mov	r4, r0
 8002684:	b086      	sub	sp, #24

  GPIO_InitTypeDef GPIO_InitStruct = {0};
 8002686:	2210      	movs	r2, #16
 8002688:	2100      	movs	r1, #0
 800268a:	a802      	add	r0, sp, #8
 800268c:	f003 f80b 	bl	80056a6 <memset>
  if(uartHandle->Instance==USART3)
 8002690:	6822      	ldr	r2, [r4, #0]
 8002692:	4b1b      	ldr	r3, [pc, #108]	; (8002700 <HAL_UART_MspInit+0x80>)
 8002694:	429a      	cmp	r2, r3
 8002696:	d130      	bne.n	80026fa <HAL_UART_MspInit+0x7a>
  {
  /* USER CODE BEGIN USART3_MspInit 0 */

  /* USER CODE END USART3_MspInit 0 */
    /* USART3 clock enable */
    __HAL_RCC_USART3_CLK_ENABLE();
 8002698:	f503 33e4 	add.w	r3, r3, #116736	; 0x1c800
 800269c:	69da      	ldr	r2, [r3, #28]
    PB11     ------> USART3_RX 
    */
    GPIO_InitStruct.Pin = GPIO_PIN_10;
    GPIO_InitStruct.Mode = GPIO_MODE_AF_PP;
    GPIO_InitStruct.Speed = GPIO_SPEED_FREQ_HIGH;
    HAL_GPIO_Init(GPIOB, &GPIO_InitStruct);
 800269e:	a902      	add	r1, sp, #8
    __HAL_RCC_USART3_CLK_ENABLE();
 80026a0:	f442 2280 	orr.w	r2, r2, #262144	; 0x40000
 80026a4:	61da      	str	r2, [r3, #28]
 80026a6:	69da      	ldr	r2, [r3, #28]
    HAL_GPIO_Init(GPIOB, &GPIO_InitStruct);
 80026a8:	4816      	ldr	r0, [pc, #88]	; (8002704 <HAL_UART_MspInit+0x84>)
    __HAL_RCC_USART3_CLK_ENABLE();
 80026aa:	f402 2280 	and.w	r2, r2, #262144	; 0x40000
 80026ae:	9200      	str	r2, [sp, #0]
 80026b0:	9a00      	ldr	r2, [sp, #0]
    __HAL_RCC_GPIOB_CLK_ENABLE();
 80026b2:	699a      	ldr	r2, [r3, #24]

    GPIO_InitStruct.Pin = GPIO_PIN_11;
    GPIO_InitStruct.Mode = GPIO_MODE_INPUT;
 80026b4:	2400      	movs	r4, #0
    __HAL_RCC_GPIOB_CLK_ENABLE();
 80026b6:	f042 0208 	orr.w	r2, r2, #8
 80026ba:	619a      	str	r2, [r3, #24]
 80026bc:	699b      	ldr	r3, [r3, #24]
 80026be:	f003 0308 	and.w	r3, r3, #8
 80026c2:	9301      	str	r3, [sp, #4]
 80026c4:	9b01      	ldr	r3, [sp, #4]
    GPIO_InitStruct.Pin = GPIO_PIN_10;
 80026c6:	f44f 6380 	mov.w	r3, #1024	; 0x400
 80026ca:	9302      	str	r3, [sp, #8]
    GPIO_InitStruct.Mode = GPIO_MODE_AF_PP;
 80026cc:	2302      	movs	r3, #2
 80026ce:	9303      	str	r3, [sp, #12]
    GPIO_InitStruct.Speed = GPIO_SPEED_FREQ_HIGH;
 80026d0:	2303      	movs	r3, #3
 80026d2:	9305      	str	r3, [sp, #20]
    HAL_GPIO_Init(GPIOB, &GPIO_InitStruct);
 80026d4:	f000 fc64 	bl	8002fa0 <HAL_GPIO_Init>
    GPIO_InitStruct.Pin = GPIO_PIN_11;
 80026d8:	f44f 6300 	mov.w	r3, #2048	; 0x800
    GPIO_InitStruct.Pull = GPIO_NOPULL;
    HAL_GPIO_Init(GPIOB, &GPIO_InitStruct);
 80026dc:	a902      	add	r1, sp, #8
 80026de:	4809      	ldr	r0, [pc, #36]	; (8002704 <HAL_UART_MspInit+0x84>)
    GPIO_InitStruct.Pin = GPIO_PIN_11;
 80026e0:	9302      	str	r3, [sp, #8]
    GPIO_InitStruct.Mode = GPIO_MODE_INPUT;
 80026e2:	9403      	str	r4, [sp, #12]
    GPIO_InitStruct.Pull = GPIO_NOPULL;
 80026e4:	9404      	str	r4, [sp, #16]
    HAL_GPIO_Init(GPIOB, &GPIO_InitStruct);
 80026e6:	f000 fc5b 	bl	8002fa0 <HAL_GPIO_Init>

    /* USART3 interrupt Init */
    HAL_NVIC_SetPriority(USART3_IRQn, 5, 0);
 80026ea:	2027      	movs	r0, #39	; 0x27
 80026ec:	4622      	mov	r2, r4
 80026ee:	2105      	movs	r1, #5
 80026f0:	f000 faca 	bl	8002c88 <HAL_NVIC_SetPriority>
    HAL_NVIC_EnableIRQ(USART3_IRQn);
 80026f4:	2027      	movs	r0, #39	; 0x27
 80026f6:	f000 fafb 	bl	8002cf0 <HAL_NVIC_EnableIRQ>
  /* USER CODE BEGIN USART3_MspInit 1 */

  /* USER CODE END USART3_MspInit 1 */
  }
}
 80026fa:	b006      	add	sp, #24
 80026fc:	bd10      	pop	{r4, pc}
 80026fe:	bf00      	nop
 8002700:	40004800 	.word	0x40004800
 8002704:	40010c00 	.word	0x40010c00

08002708 <HAL_Init>:
    defined(STM32F102x6) || defined(STM32F102xB) || \
    defined(STM32F103x6) || defined(STM32F103xB) || defined(STM32F103xE) || defined(STM32F103xG) || \
    defined(STM32F105xC) || defined(STM32F107xC)

  /* Prefetch buffer is not available on value line devices */
  __HAL_FLASH_PREFETCH_BUFFER_ENABLE();
 8002708:	4a07      	ldr	r2, [pc, #28]	; (8002728 <HAL_Init+0x20>)
{
 800270a:	b508      	push	{r3, lr}
  __HAL_FLASH_PREFETCH_BUFFER_ENABLE();
 800270c:	6813      	ldr	r3, [r2, #0]
#endif
#endif /* PREFETCH_ENABLE */

  /* Set Interrupt Group Priority */
  HAL_NVIC_SetPriorityGrouping(NVIC_PRIORITYGROUP_4);
 800270e:	2003      	movs	r0, #3
  __HAL_FLASH_PREFETCH_BUFFER_ENABLE();
 8002710:	f043 0310 	orr.w	r3, r3, #16
 8002714:	6013      	str	r3, [r2, #0]
  HAL_NVIC_SetPriorityGrouping(NVIC_PRIORITYGROUP_4);
 8002716:	f000 faa5 	bl	8002c64 <HAL_NVIC_SetPriorityGrouping>

  /* Use systick as time base source and configure 1ms tick (default clock after Reset is HSI) */
  HAL_InitTick(TICK_INT_PRIORITY);
 800271a:	2000      	movs	r0, #0
 800271c:	f7ff fee0 	bl	80024e0 <HAL_InitTick>

  /* Init the low level hardware */
  HAL_MspInit();
 8002720:	f7ff feb6 	bl	8002490 <HAL_MspInit>

  /* Return function status */
  return HAL_OK;
}
 8002724:	2000      	movs	r0, #0
 8002726:	bd08      	pop	{r3, pc}
 8002728:	40022000 	.word	0x40022000

0800272c <HAL_IncTick>:
  *      implementations in user file.
  * @retval None
  */
__weak void HAL_IncTick(void)
{
  uwTick += uwTickFreq;
 800272c:	4a03      	ldr	r2, [pc, #12]	; (800273c <HAL_IncTick+0x10>)
 800272e:	4b04      	ldr	r3, [pc, #16]	; (8002740 <HAL_IncTick+0x14>)
 8002730:	6811      	ldr	r1, [r2, #0]
 8002732:	781b      	ldrb	r3, [r3, #0]
 8002734:	440b      	add	r3, r1
 8002736:	6013      	str	r3, [r2, #0]
 8002738:	4770      	bx	lr
 800273a:	bf00      	nop
 800273c:	20001220 	.word	0x20001220
 8002740:	20000008 	.word	0x20000008

08002744 <HAL_GetTick>:
  *       implementations in user file.
  * @retval tick value
  */
__weak uint32_t HAL_GetTick(void)
{
  return uwTick;
 8002744:	4b01      	ldr	r3, [pc, #4]	; (800274c <HAL_GetTick+0x8>)
 8002746:	6818      	ldr	r0, [r3, #0]
}
 8002748:	4770      	bx	lr
 800274a:	bf00      	nop
 800274c:	20001220 	.word	0x20001220

08002750 <HAL_ADC_ConvCpltCallback>:
 8002750:	4770      	bx	lr

08002752 <ADC_DMAConvCplt>:
  * @retval None
  */
void ADC_DMAConvCplt(DMA_HandleTypeDef *hdma)
{
  /* Retrieve ADC handle corresponding to current DMA handle */
  ADC_HandleTypeDef* hadc = ( ADC_HandleTypeDef* )((DMA_HandleTypeDef* )hdma)->Parent;
 8002752:	6a43      	ldr	r3, [r0, #36]	; 0x24
{
 8002754:	b510      	push	{r4, lr}
 
  /* Update state machine on conversion status if not in error state */
  if (HAL_IS_BIT_CLR(hadc->State, HAL_ADC_STATE_ERROR_INTERNAL | HAL_ADC_STATE_ERROR_DMA))
 8002756:	6a9a      	ldr	r2, [r3, #40]	; 0x28
 8002758:	f012 0f50 	tst.w	r2, #80	; 0x50
 800275c:	d11b      	bne.n	8002796 <ADC_DMAConvCplt+0x44>
  {
    /* Update ADC state machine */
    SET_BIT(hadc->State, HAL_ADC_STATE_REG_EOC);
 800275e:	6a9a      	ldr	r2, [r3, #40]	; 0x28
 8002760:	f442 7200 	orr.w	r2, r2, #512	; 0x200
 8002764:	629a      	str	r2, [r3, #40]	; 0x28
    /* Determine whether any further conversion upcoming on group regular     */
    /* by external trigger, continuous mode or scan sequence on going.        */
    /* Note: On STM32F1 devices, in case of sequencer enabled                 */
    /*       (several ranks selected), end of conversion flag is raised       */
    /*       at the end of the sequence.                                      */
    if(ADC_IS_SOFTWARE_START_REGULAR(hadc)        && 
 8002766:	681a      	ldr	r2, [r3, #0]
 8002768:	6892      	ldr	r2, [r2, #8]
 800276a:	f402 2260 	and.w	r2, r2, #917504	; 0xe0000
 800276e:	f5b2 2f60 	cmp.w	r2, #917504	; 0xe0000
 8002772:	d10c      	bne.n	800278e <ADC_DMAConvCplt+0x3c>
 8002774:	7b1a      	ldrb	r2, [r3, #12]
 8002776:	b952      	cbnz	r2, 800278e <ADC_DMAConvCplt+0x3c>
       (hadc->Init.ContinuousConvMode == DISABLE)   )
    {
      /* Set ADC state */
      CLEAR_BIT(hadc->State, HAL_ADC_STATE_REG_BUSY);   
 8002778:	6a9a      	ldr	r2, [r3, #40]	; 0x28
 800277a:	f422 7280 	bic.w	r2, r2, #256	; 0x100
 800277e:	629a      	str	r2, [r3, #40]	; 0x28
      
      if (HAL_IS_BIT_CLR(hadc->State, HAL_ADC_STATE_INJ_BUSY))
 8002780:	6a9a      	ldr	r2, [r3, #40]	; 0x28
 8002782:	04d2      	lsls	r2, r2, #19
      {
        SET_BIT(hadc->State, HAL_ADC_STATE_READY);
 8002784:	bf5e      	ittt	pl
 8002786:	6a9a      	ldrpl	r2, [r3, #40]	; 0x28
 8002788:	f042 0201 	orrpl.w	r2, r2, #1
 800278c:	629a      	strpl	r2, [r3, #40]	; 0x28
    
    /* Conversion complete callback */
#if (USE_HAL_ADC_REGISTER_CALLBACKS == 1)
    hadc->ConvCpltCallback(hadc);
#else
    HAL_ADC_ConvCpltCallback(hadc);
 800278e:	4618      	mov	r0, r3
 8002790:	f7ff ffde 	bl	8002750 <HAL_ADC_ConvCpltCallback>
 8002794:	bd10      	pop	{r4, pc}
#endif /* USE_HAL_ADC_REGISTER_CALLBACKS */
  }
  else
  {
    /* Call DMA error callback */
    hadc->DMA_Handle->XferErrorCallback(hdma);
 8002796:	6a1b      	ldr	r3, [r3, #32]
  }
}
 8002798:	e8bd 4010 	ldmia.w	sp!, {r4, lr}
    hadc->DMA_Handle->XferErrorCallback(hdma);
 800279c:	6b1b      	ldr	r3, [r3, #48]	; 0x30
 800279e:	4718      	bx	r3

080027a0 <HAL_ADC_ConvHalfCpltCallback>:
 80027a0:	4770      	bx	lr

080027a2 <ADC_DMAHalfConvCplt>:
  * @brief  DMA half transfer complete callback. 
  * @param  hdma: pointer to DMA handle.
  * @retval None
  */
void ADC_DMAHalfConvCplt(DMA_HandleTypeDef *hdma)   
{
 80027a2:	b508      	push	{r3, lr}
  
  /* Half conversion callback */
#if (USE_HAL_ADC_REGISTER_CALLBACKS == 1)
    hadc->ConvHalfCpltCallback(hadc);
#else
  HAL_ADC_ConvHalfCpltCallback(hadc);
 80027a4:	6a40      	ldr	r0, [r0, #36]	; 0x24
 80027a6:	f7ff fffb 	bl	80027a0 <HAL_ADC_ConvHalfCpltCallback>
 80027aa:	bd08      	pop	{r3, pc}

080027ac <HAL_ADC_ErrorCallback>:
{
 80027ac:	4770      	bx	lr

080027ae <ADC_DMAError>:
  * @retval None
  */
void ADC_DMAError(DMA_HandleTypeDef *hdma)   
{
  /* Retrieve ADC handle corresponding to current DMA handle */
  ADC_HandleTypeDef* hadc = ( ADC_HandleTypeDef* )((DMA_HandleTypeDef* )hdma)->Parent;
 80027ae:	6a40      	ldr	r0, [r0, #36]	; 0x24
{
 80027b0:	b508      	push	{r3, lr}
  
  /* Set ADC state */
  SET_BIT(hadc->State, HAL_ADC_STATE_ERROR_DMA);
 80027b2:	6a83      	ldr	r3, [r0, #40]	; 0x28
 80027b4:	f043 0340 	orr.w	r3, r3, #64	; 0x40
 80027b8:	6283      	str	r3, [r0, #40]	; 0x28
  
  /* Set ADC error code to DMA error */
  SET_BIT(hadc->ErrorCode, HAL_ADC_ERROR_DMA);
 80027ba:	6ac3      	ldr	r3, [r0, #44]	; 0x2c
 80027bc:	f043 0304 	orr.w	r3, r3, #4
 80027c0:	62c3      	str	r3, [r0, #44]	; 0x2c
  
  /* Error callback */
#if (USE_HAL_ADC_REGISTER_CALLBACKS == 1)
  hadc->ErrorCallback(hadc);
#else
  HAL_ADC_ErrorCallback(hadc);
 80027c2:	f7ff fff3 	bl	80027ac <HAL_ADC_ErrorCallback>
 80027c6:	bd08      	pop	{r3, pc}

080027c8 <HAL_ADC_ConfigChannel>:
  __IO uint32_t wait_loop_index = 0U;
 80027c8:	2300      	movs	r3, #0
{ 
 80027ca:	b573      	push	{r0, r1, r4, r5, r6, lr}
  __IO uint32_t wait_loop_index = 0U;
 80027cc:	9301      	str	r3, [sp, #4]
  __HAL_LOCK(hadc);
 80027ce:	f890 3024 	ldrb.w	r3, [r0, #36]	; 0x24
 80027d2:	2b01      	cmp	r3, #1
 80027d4:	d074      	beq.n	80028c0 <HAL_ADC_ConfigChannel+0xf8>
 80027d6:	2301      	movs	r3, #1
  if (sConfig->Rank < 7U)
 80027d8:	684d      	ldr	r5, [r1, #4]
  __HAL_LOCK(hadc);
 80027da:	f880 3024 	strb.w	r3, [r0, #36]	; 0x24
  if (sConfig->Rank < 7U)
 80027de:	2d06      	cmp	r5, #6
 80027e0:	6802      	ldr	r2, [r0, #0]
 80027e2:	ea4f 0385 	mov.w	r3, r5, lsl #2
 80027e6:	680c      	ldr	r4, [r1, #0]
 80027e8:	d825      	bhi.n	8002836 <HAL_ADC_ConfigChannel+0x6e>
    MODIFY_REG(hadc->Instance->SQR3                        ,
 80027ea:	442b      	add	r3, r5
 80027ec:	251f      	movs	r5, #31
 80027ee:	6b56      	ldr	r6, [r2, #52]	; 0x34
 80027f0:	3b05      	subs	r3, #5
 80027f2:	409d      	lsls	r5, r3
 80027f4:	ea26 0505 	bic.w	r5, r6, r5
 80027f8:	fa04 f303 	lsl.w	r3, r4, r3
 80027fc:	432b      	orrs	r3, r5
 80027fe:	6353      	str	r3, [r2, #52]	; 0x34
  if (sConfig->Channel >= ADC_CHANNEL_10)
 8002800:	2c09      	cmp	r4, #9
 8002802:	ea4f 0344 	mov.w	r3, r4, lsl #1
 8002806:	688d      	ldr	r5, [r1, #8]
 8002808:	d92f      	bls.n	800286a <HAL_ADC_ConfigChannel+0xa2>
    MODIFY_REG(hadc->Instance->SMPR1                             ,
 800280a:	2607      	movs	r6, #7
 800280c:	4423      	add	r3, r4
 800280e:	68d1      	ldr	r1, [r2, #12]
 8002810:	3b1e      	subs	r3, #30
 8002812:	409e      	lsls	r6, r3
 8002814:	ea21 0106 	bic.w	r1, r1, r6
 8002818:	fa05 f303 	lsl.w	r3, r5, r3
 800281c:	430b      	orrs	r3, r1
 800281e:	60d3      	str	r3, [r2, #12]
  if ((sConfig->Channel == ADC_CHANNEL_TEMPSENSOR) ||
 8002820:	f1a4 0310 	sub.w	r3, r4, #16
 8002824:	2b01      	cmp	r3, #1
 8002826:	d92b      	bls.n	8002880 <HAL_ADC_ConfigChannel+0xb8>
  HAL_StatusTypeDef tmp_hal_status = HAL_OK;
 8002828:	2300      	movs	r3, #0
  __HAL_UNLOCK(hadc);
 800282a:	2200      	movs	r2, #0
 800282c:	f880 2024 	strb.w	r2, [r0, #36]	; 0x24
}
 8002830:	4618      	mov	r0, r3
 8002832:	b002      	add	sp, #8
 8002834:	bd70      	pop	{r4, r5, r6, pc}
  else if (sConfig->Rank < 13U)
 8002836:	2d0c      	cmp	r5, #12
 8002838:	d80b      	bhi.n	8002852 <HAL_ADC_ConfigChannel+0x8a>
    MODIFY_REG(hadc->Instance->SQR2                        ,
 800283a:	442b      	add	r3, r5
 800283c:	251f      	movs	r5, #31
 800283e:	6b16      	ldr	r6, [r2, #48]	; 0x30
 8002840:	3b23      	subs	r3, #35	; 0x23
 8002842:	409d      	lsls	r5, r3
 8002844:	ea26 0505 	bic.w	r5, r6, r5
 8002848:	fa04 f303 	lsl.w	r3, r4, r3
 800284c:	432b      	orrs	r3, r5
 800284e:	6313      	str	r3, [r2, #48]	; 0x30
 8002850:	e7d6      	b.n	8002800 <HAL_ADC_ConfigChannel+0x38>
    MODIFY_REG(hadc->Instance->SQR1                        ,
 8002852:	442b      	add	r3, r5
 8002854:	251f      	movs	r5, #31
 8002856:	6ad6      	ldr	r6, [r2, #44]	; 0x2c
 8002858:	3b41      	subs	r3, #65	; 0x41
 800285a:	409d      	lsls	r5, r3
 800285c:	ea26 0505 	bic.w	r5, r6, r5
 8002860:	fa04 f303 	lsl.w	r3, r4, r3
 8002864:	432b      	orrs	r3, r5
 8002866:	62d3      	str	r3, [r2, #44]	; 0x2c
 8002868:	e7ca      	b.n	8002800 <HAL_ADC_ConfigChannel+0x38>
    MODIFY_REG(hadc->Instance->SMPR2                             ,
 800286a:	2607      	movs	r6, #7
 800286c:	6911      	ldr	r1, [r2, #16]
 800286e:	4423      	add	r3, r4
 8002870:	409e      	lsls	r6, r3
 8002872:	ea21 0106 	bic.w	r1, r1, r6
 8002876:	fa05 f303 	lsl.w	r3, r5, r3
 800287a:	430b      	orrs	r3, r1
 800287c:	6113      	str	r3, [r2, #16]
 800287e:	e7cf      	b.n	8002820 <HAL_ADC_ConfigChannel+0x58>
    if (hadc->Instance == ADC1)
 8002880:	4b10      	ldr	r3, [pc, #64]	; (80028c4 <HAL_ADC_ConfigChannel+0xfc>)
 8002882:	429a      	cmp	r2, r3
 8002884:	d116      	bne.n	80028b4 <HAL_ADC_ConfigChannel+0xec>
      if (READ_BIT(hadc->Instance->CR2, ADC_CR2_TSVREFE) == RESET)
 8002886:	6893      	ldr	r3, [r2, #8]
 8002888:	021b      	lsls	r3, r3, #8
 800288a:	d4cd      	bmi.n	8002828 <HAL_ADC_ConfigChannel+0x60>
        SET_BIT(hadc->Instance->CR2, ADC_CR2_TSVREFE);
 800288c:	6893      	ldr	r3, [r2, #8]
        if ((sConfig->Channel == ADC_CHANNEL_TEMPSENSOR))
 800288e:	2c10      	cmp	r4, #16
        SET_BIT(hadc->Instance->CR2, ADC_CR2_TSVREFE);
 8002890:	f443 0300 	orr.w	r3, r3, #8388608	; 0x800000
 8002894:	6093      	str	r3, [r2, #8]
        if ((sConfig->Channel == ADC_CHANNEL_TEMPSENSOR))
 8002896:	d1c7      	bne.n	8002828 <HAL_ADC_ConfigChannel+0x60>
          wait_loop_index = (ADC_TEMPSENSOR_DELAY_US * (SystemCoreClock / 1000000U));
 8002898:	4b0b      	ldr	r3, [pc, #44]	; (80028c8 <HAL_ADC_ConfigChannel+0x100>)
 800289a:	4a0c      	ldr	r2, [pc, #48]	; (80028cc <HAL_ADC_ConfigChannel+0x104>)
 800289c:	681b      	ldr	r3, [r3, #0]
 800289e:	fbb3 f2f2 	udiv	r2, r3, r2
 80028a2:	230a      	movs	r3, #10
 80028a4:	4353      	muls	r3, r2
            wait_loop_index--;
 80028a6:	9301      	str	r3, [sp, #4]
          while(wait_loop_index != 0U)
 80028a8:	9b01      	ldr	r3, [sp, #4]
 80028aa:	2b00      	cmp	r3, #0
 80028ac:	d0bc      	beq.n	8002828 <HAL_ADC_ConfigChannel+0x60>
            wait_loop_index--;
 80028ae:	9b01      	ldr	r3, [sp, #4]
 80028b0:	3b01      	subs	r3, #1
 80028b2:	e7f8      	b.n	80028a6 <HAL_ADC_ConfigChannel+0xde>
      SET_BIT(hadc->State, HAL_ADC_STATE_ERROR_CONFIG);
 80028b4:	6a83      	ldr	r3, [r0, #40]	; 0x28
 80028b6:	f043 0320 	orr.w	r3, r3, #32
 80028ba:	6283      	str	r3, [r0, #40]	; 0x28
      tmp_hal_status = HAL_ERROR;
 80028bc:	2301      	movs	r3, #1
 80028be:	e7b4      	b.n	800282a <HAL_ADC_ConfigChannel+0x62>
  __HAL_LOCK(hadc);
 80028c0:	2302      	movs	r3, #2
 80028c2:	e7b5      	b.n	8002830 <HAL_ADC_ConfigChannel+0x68>
 80028c4:	40012400 	.word	0x40012400
 80028c8:	20000004 	.word	0x20000004
 80028cc:	000f4240 	.word	0x000f4240

080028d0 <ADC_Enable>:
  __IO uint32_t wait_loop_index = 0U;
 80028d0:	2300      	movs	r3, #0
{
 80028d2:	b573      	push	{r0, r1, r4, r5, r6, lr}
  __IO uint32_t wait_loop_index = 0U;
 80028d4:	9301      	str	r3, [sp, #4]
  if (ADC_IS_ENABLE(hadc) == RESET)
 80028d6:	6803      	ldr	r3, [r0, #0]
{
 80028d8:	4604      	mov	r4, r0
  if (ADC_IS_ENABLE(hadc) == RESET)
 80028da:	689a      	ldr	r2, [r3, #8]
 80028dc:	07d2      	lsls	r2, r2, #31
 80028de:	d502      	bpl.n	80028e6 <ADC_Enable+0x16>
  return HAL_OK;
 80028e0:	2000      	movs	r0, #0
}
 80028e2:	b002      	add	sp, #8
 80028e4:	bd70      	pop	{r4, r5, r6, pc}
    __HAL_ADC_ENABLE(hadc);
 80028e6:	689a      	ldr	r2, [r3, #8]
 80028e8:	f042 0201 	orr.w	r2, r2, #1
 80028ec:	609a      	str	r2, [r3, #8]
    wait_loop_index = (ADC_STAB_DELAY_US * (SystemCoreClock / 1000000U));
 80028ee:	4b12      	ldr	r3, [pc, #72]	; (8002938 <ADC_Enable+0x68>)
 80028f0:	4a12      	ldr	r2, [pc, #72]	; (800293c <ADC_Enable+0x6c>)
 80028f2:	681b      	ldr	r3, [r3, #0]
 80028f4:	fbb3 f3f2 	udiv	r3, r3, r2
      wait_loop_index--;
 80028f8:	9301      	str	r3, [sp, #4]
    while(wait_loop_index != 0U)
 80028fa:	9b01      	ldr	r3, [sp, #4]
 80028fc:	b9c3      	cbnz	r3, 8002930 <ADC_Enable+0x60>
    tickstart = HAL_GetTick();
 80028fe:	f7ff ff21 	bl	8002744 <HAL_GetTick>
 8002902:	4606      	mov	r6, r0
    while(ADC_IS_ENABLE(hadc) == RESET)
 8002904:	6823      	ldr	r3, [r4, #0]
 8002906:	689d      	ldr	r5, [r3, #8]
 8002908:	f015 0501 	ands.w	r5, r5, #1
 800290c:	d1e8      	bne.n	80028e0 <ADC_Enable+0x10>
      if((HAL_GetTick() - tickstart) > ADC_ENABLE_TIMEOUT)
 800290e:	f7ff ff19 	bl	8002744 <HAL_GetTick>
 8002912:	1b80      	subs	r0, r0, r6
 8002914:	2802      	cmp	r0, #2
 8002916:	d9f5      	bls.n	8002904 <ADC_Enable+0x34>
        SET_BIT(hadc->State, HAL_ADC_STATE_ERROR_INTERNAL);
 8002918:	6aa3      	ldr	r3, [r4, #40]	; 0x28
        __HAL_UNLOCK(hadc);
 800291a:	f884 5024 	strb.w	r5, [r4, #36]	; 0x24
        SET_BIT(hadc->State, HAL_ADC_STATE_ERROR_INTERNAL);
 800291e:	f043 0310 	orr.w	r3, r3, #16
 8002922:	62a3      	str	r3, [r4, #40]	; 0x28
        SET_BIT(hadc->ErrorCode, HAL_ADC_ERROR_INTERNAL);
 8002924:	6ae3      	ldr	r3, [r4, #44]	; 0x2c
        __HAL_UNLOCK(hadc);
 8002926:	2001      	movs	r0, #1
        SET_BIT(hadc->ErrorCode, HAL_ADC_ERROR_INTERNAL);
 8002928:	f043 0301 	orr.w	r3, r3, #1
 800292c:	62e3      	str	r3, [r4, #44]	; 0x2c
 800292e:	e7d8      	b.n	80028e2 <ADC_Enable+0x12>
      wait_loop_index--;
 8002930:	9b01      	ldr	r3, [sp, #4]
 8002932:	3b01      	subs	r3, #1
 8002934:	e7e0      	b.n	80028f8 <ADC_Enable+0x28>
 8002936:	bf00      	nop
 8002938:	20000004 	.word	0x20000004
 800293c:	000f4240 	.word	0x000f4240

08002940 <HAL_ADC_Start>:
  __HAL_LOCK(hadc);
 8002940:	f890 3024 	ldrb.w	r3, [r0, #36]	; 0x24
{
 8002944:	b510      	push	{r4, lr}
  __HAL_LOCK(hadc);
 8002946:	2b01      	cmp	r3, #1
{
 8002948:	4604      	mov	r4, r0
  __HAL_LOCK(hadc);
 800294a:	d054      	beq.n	80029f6 <HAL_ADC_Start+0xb6>
 800294c:	2301      	movs	r3, #1
 800294e:	f880 3024 	strb.w	r3, [r0, #36]	; 0x24
  tmp_hal_status = ADC_Enable(hadc);
 8002952:	f7ff ffbd 	bl	80028d0 <ADC_Enable>
  if (tmp_hal_status == HAL_OK)
 8002956:	2800      	cmp	r0, #0
 8002958:	d149      	bne.n	80029ee <HAL_ADC_Start+0xae>
    ADC_STATE_CLR_SET(hadc->State,
 800295a:	6aa3      	ldr	r3, [r4, #40]	; 0x28
    if (ADC_NONMULTIMODE_OR_MULTIMODEMASTER(hadc))
 800295c:	4a27      	ldr	r2, [pc, #156]	; (80029fc <HAL_ADC_Start+0xbc>)
    ADC_STATE_CLR_SET(hadc->State,
 800295e:	f423 7340 	bic.w	r3, r3, #768	; 0x300
 8002962:	f023 0301 	bic.w	r3, r3, #1
 8002966:	f443 7380 	orr.w	r3, r3, #256	; 0x100
 800296a:	62a3      	str	r3, [r4, #40]	; 0x28
    if (ADC_NONMULTIMODE_OR_MULTIMODEMASTER(hadc))
 800296c:	6823      	ldr	r3, [r4, #0]
 800296e:	4293      	cmp	r3, r2
 8002970:	d104      	bne.n	800297c <HAL_ADC_Start+0x3c>
 8002972:	4923      	ldr	r1, [pc, #140]	; (8002a00 <HAL_ADC_Start+0xc0>)
 8002974:	684a      	ldr	r2, [r1, #4]
 8002976:	f412 2f70 	tst.w	r2, #983040	; 0xf0000
 800297a:	d12e      	bne.n	80029da <HAL_ADC_Start+0x9a>
      CLEAR_BIT(hadc->State, HAL_ADC_STATE_MULTIMODE_SLAVE);
 800297c:	6aa2      	ldr	r2, [r4, #40]	; 0x28
 800297e:	f422 1280 	bic.w	r2, r2, #1048576	; 0x100000
 8002982:	62a2      	str	r2, [r4, #40]	; 0x28
      if (READ_BIT(hadc->Instance->CR1, ADC_CR1_JAUTO) != RESET)
 8002984:	685a      	ldr	r2, [r3, #4]
      if (ADC_MULTIMODE_AUTO_INJECTED(hadc))
 8002986:	0552      	lsls	r2, r2, #21
        ADC_STATE_CLR_SET(hadc->State, HAL_ADC_STATE_INJ_EOC, HAL_ADC_STATE_INJ_BUSY);
 8002988:	bf41      	itttt	mi
 800298a:	6aa2      	ldrmi	r2, [r4, #40]	; 0x28
 800298c:	f422 5240 	bicmi.w	r2, r2, #12288	; 0x3000
 8002990:	f442 5280 	orrmi.w	r2, r2, #4096	; 0x1000
 8002994:	62a2      	strmi	r2, [r4, #40]	; 0x28
    if (HAL_IS_BIT_SET(hadc->State, HAL_ADC_STATE_INJ_BUSY))
 8002996:	6aa2      	ldr	r2, [r4, #40]	; 0x28
 8002998:	f412 5280 	ands.w	r2, r2, #4096	; 0x1000
      CLEAR_BIT(hadc->ErrorCode, (HAL_ADC_ERROR_OVR | HAL_ADC_ERROR_DMA));         
 800299c:	bf1c      	itt	ne
 800299e:	6ae2      	ldrne	r2, [r4, #44]	; 0x2c
 80029a0:	f022 0206 	bicne.w	r2, r2, #6
      ADC_CLEAR_ERRORCODE(hadc);
 80029a4:	62e2      	str	r2, [r4, #44]	; 0x2c
    __HAL_UNLOCK(hadc);
 80029a6:	2200      	movs	r2, #0
 80029a8:	f884 2024 	strb.w	r2, [r4, #36]	; 0x24
    __HAL_ADC_CLEAR_FLAG(hadc, ADC_FLAG_EOC);
 80029ac:	f06f 0202 	mvn.w	r2, #2
 80029b0:	601a      	str	r2, [r3, #0]
    if (ADC_IS_SOFTWARE_START_REGULAR(hadc)      &&
 80029b2:	689a      	ldr	r2, [r3, #8]
 80029b4:	f402 2260 	and.w	r2, r2, #917504	; 0xe0000
 80029b8:	f5b2 2f60 	cmp.w	r2, #917504	; 0xe0000
 80029bc:	d113      	bne.n	80029e6 <HAL_ADC_Start+0xa6>
 80029be:	4a0f      	ldr	r2, [pc, #60]	; (80029fc <HAL_ADC_Start+0xbc>)
 80029c0:	4293      	cmp	r3, r2
 80029c2:	d105      	bne.n	80029d0 <HAL_ADC_Start+0x90>
        ADC_NONMULTIMODE_OR_MULTIMODEMASTER(hadc)  )
 80029c4:	f5a2 6280 	sub.w	r2, r2, #1024	; 0x400
 80029c8:	6852      	ldr	r2, [r2, #4]
    if (ADC_IS_SOFTWARE_START_REGULAR(hadc)      &&
 80029ca:	f412 2f70 	tst.w	r2, #983040	; 0xf0000
 80029ce:	d10a      	bne.n	80029e6 <HAL_ADC_Start+0xa6>
      SET_BIT(hadc->Instance->CR2, (ADC_CR2_SWSTART | ADC_CR2_EXTTRIG));
 80029d0:	689a      	ldr	r2, [r3, #8]
 80029d2:	f442 02a0 	orr.w	r2, r2, #5242880	; 0x500000
      SET_BIT(hadc->Instance->CR2, ADC_CR2_EXTTRIG);
 80029d6:	609a      	str	r2, [r3, #8]
 80029d8:	bd10      	pop	{r4, pc}
      SET_BIT(hadc->State, HAL_ADC_STATE_MULTIMODE_SLAVE);
 80029da:	6aa2      	ldr	r2, [r4, #40]	; 0x28
 80029dc:	f442 1280 	orr.w	r2, r2, #1048576	; 0x100000
 80029e0:	62a2      	str	r2, [r4, #40]	; 0x28
      if (ADC_MULTIMODE_AUTO_INJECTED(hadc))
 80029e2:	684a      	ldr	r2, [r1, #4]
 80029e4:	e7cf      	b.n	8002986 <HAL_ADC_Start+0x46>
      SET_BIT(hadc->Instance->CR2, ADC_CR2_EXTTRIG);
 80029e6:	689a      	ldr	r2, [r3, #8]
 80029e8:	f442 1280 	orr.w	r2, r2, #1048576	; 0x100000
 80029ec:	e7f3      	b.n	80029d6 <HAL_ADC_Start+0x96>
    __HAL_UNLOCK(hadc);
 80029ee:	2300      	movs	r3, #0
 80029f0:	f884 3024 	strb.w	r3, [r4, #36]	; 0x24
 80029f4:	bd10      	pop	{r4, pc}
  __HAL_LOCK(hadc);
 80029f6:	2002      	movs	r0, #2
}
 80029f8:	bd10      	pop	{r4, pc}
 80029fa:	bf00      	nop
 80029fc:	40012800 	.word	0x40012800
 8002a00:	40012400 	.word	0x40012400

08002a04 <HAL_ADC_Start_DMA>:
{
 8002a04:	e92d 41d8 	stmdb	sp!, {r3, r4, r6, r7, r8, lr}
 8002a08:	4690      	mov	r8, r2
  if(ADC_MULTIMODE_IS_ENABLE(hadc) == RESET)
 8002a0a:	4b40      	ldr	r3, [pc, #256]	; (8002b0c <HAL_ADC_Start_DMA+0x108>)
 8002a0c:	6802      	ldr	r2, [r0, #0]
{
 8002a0e:	4604      	mov	r4, r0
  if(ADC_MULTIMODE_IS_ENABLE(hadc) == RESET)
 8002a10:	429a      	cmp	r2, r3
{
 8002a12:	460f      	mov	r7, r1
  if(ADC_MULTIMODE_IS_ENABLE(hadc) == RESET)
 8002a14:	d002      	beq.n	8002a1c <HAL_ADC_Start_DMA+0x18>
 8002a16:	493e      	ldr	r1, [pc, #248]	; (8002b10 <HAL_ADC_Start_DMA+0x10c>)
 8002a18:	428a      	cmp	r2, r1
 8002a1a:	d103      	bne.n	8002a24 <HAL_ADC_Start_DMA+0x20>
 8002a1c:	685b      	ldr	r3, [r3, #4]
 8002a1e:	f413 2f70 	tst.w	r3, #983040	; 0xf0000
 8002a22:	d16e      	bne.n	8002b02 <HAL_ADC_Start_DMA+0xfe>
    __HAL_LOCK(hadc);
 8002a24:	f894 3024 	ldrb.w	r3, [r4, #36]	; 0x24
 8002a28:	2b01      	cmp	r3, #1
 8002a2a:	d06c      	beq.n	8002b06 <HAL_ADC_Start_DMA+0x102>
 8002a2c:	2301      	movs	r3, #1
    tmp_hal_status = ADC_Enable(hadc);
 8002a2e:	4620      	mov	r0, r4
    __HAL_LOCK(hadc);
 8002a30:	f884 3024 	strb.w	r3, [r4, #36]	; 0x24
    tmp_hal_status = ADC_Enable(hadc);
 8002a34:	f7ff ff4c 	bl	80028d0 <ADC_Enable>
    if (tmp_hal_status == HAL_OK)
 8002a38:	4606      	mov	r6, r0
 8002a3a:	2800      	cmp	r0, #0
 8002a3c:	d15d      	bne.n	8002afa <HAL_ADC_Start_DMA+0xf6>
      ADC_STATE_CLR_SET(hadc->State,
 8002a3e:	6aa0      	ldr	r0, [r4, #40]	; 0x28
    if (ADC_NONMULTIMODE_OR_MULTIMODEMASTER(hadc))
 8002a40:	6821      	ldr	r1, [r4, #0]
      ADC_STATE_CLR_SET(hadc->State,
 8002a42:	f420 6070 	bic.w	r0, r0, #3840	; 0xf00
    if (ADC_NONMULTIMODE_OR_MULTIMODEMASTER(hadc))
 8002a46:	4b32      	ldr	r3, [pc, #200]	; (8002b10 <HAL_ADC_Start_DMA+0x10c>)
      ADC_STATE_CLR_SET(hadc->State,
 8002a48:	f020 0001 	bic.w	r0, r0, #1
 8002a4c:	f440 7080 	orr.w	r0, r0, #256	; 0x100
    if (ADC_NONMULTIMODE_OR_MULTIMODEMASTER(hadc))
 8002a50:	4299      	cmp	r1, r3
      ADC_STATE_CLR_SET(hadc->State,
 8002a52:	62a0      	str	r0, [r4, #40]	; 0x28
    if (ADC_NONMULTIMODE_OR_MULTIMODEMASTER(hadc))
 8002a54:	d104      	bne.n	8002a60 <HAL_ADC_Start_DMA+0x5c>
 8002a56:	4a2d      	ldr	r2, [pc, #180]	; (8002b0c <HAL_ADC_Start_DMA+0x108>)
 8002a58:	6853      	ldr	r3, [r2, #4]
 8002a5a:	f413 2f70 	tst.w	r3, #983040	; 0xf0000
 8002a5e:	d13e      	bne.n	8002ade <HAL_ADC_Start_DMA+0xda>
      CLEAR_BIT(hadc->State, HAL_ADC_STATE_MULTIMODE_SLAVE);
 8002a60:	6aa3      	ldr	r3, [r4, #40]	; 0x28
 8002a62:	f423 1380 	bic.w	r3, r3, #1048576	; 0x100000
 8002a66:	62a3      	str	r3, [r4, #40]	; 0x28
      if (READ_BIT(hadc->Instance->CR1, ADC_CR1_JAUTO) != RESET)
 8002a68:	684b      	ldr	r3, [r1, #4]
 8002a6a:	055a      	lsls	r2, r3, #21
 8002a6c:	d505      	bpl.n	8002a7a <HAL_ADC_Start_DMA+0x76>
        ADC_STATE_CLR_SET(hadc->State, HAL_ADC_STATE_INJ_EOC, HAL_ADC_STATE_INJ_BUSY);  
 8002a6e:	6aa3      	ldr	r3, [r4, #40]	; 0x28
 8002a70:	f423 5340 	bic.w	r3, r3, #12288	; 0x3000
 8002a74:	f443 5380 	orr.w	r3, r3, #4096	; 0x1000
 8002a78:	62a3      	str	r3, [r4, #40]	; 0x28
      if (HAL_IS_BIT_SET(hadc->State, HAL_ADC_STATE_INJ_BUSY))
 8002a7a:	6aa3      	ldr	r3, [r4, #40]	; 0x28
      hadc->DMA_Handle->XferCpltCallback = ADC_DMAConvCplt;
 8002a7c:	6a20      	ldr	r0, [r4, #32]
      if (HAL_IS_BIT_SET(hadc->State, HAL_ADC_STATE_INJ_BUSY))
 8002a7e:	f413 5380 	ands.w	r3, r3, #4096	; 0x1000
        CLEAR_BIT(hadc->ErrorCode, (HAL_ADC_ERROR_OVR | HAL_ADC_ERROR_DMA));         
 8002a82:	bf18      	it	ne
 8002a84:	6ae3      	ldrne	r3, [r4, #44]	; 0x2c
      HAL_DMA_Start_IT(hadc->DMA_Handle, (uint32_t)&hadc->Instance->DR, (uint32_t)pData, Length);
 8002a86:	463a      	mov	r2, r7
        CLEAR_BIT(hadc->ErrorCode, (HAL_ADC_ERROR_OVR | HAL_ADC_ERROR_DMA));         
 8002a88:	bf18      	it	ne
 8002a8a:	f023 0306 	bicne.w	r3, r3, #6
        ADC_CLEAR_ERRORCODE(hadc);
 8002a8e:	62e3      	str	r3, [r4, #44]	; 0x2c
      __HAL_UNLOCK(hadc);
 8002a90:	2300      	movs	r3, #0
 8002a92:	f884 3024 	strb.w	r3, [r4, #36]	; 0x24
      hadc->DMA_Handle->XferCpltCallback = ADC_DMAConvCplt;
 8002a96:	4b1f      	ldr	r3, [pc, #124]	; (8002b14 <HAL_ADC_Start_DMA+0x110>)
      HAL_DMA_Start_IT(hadc->DMA_Handle, (uint32_t)&hadc->Instance->DR, (uint32_t)pData, Length);
 8002a98:	314c      	adds	r1, #76	; 0x4c
      hadc->DMA_Handle->XferCpltCallback = ADC_DMAConvCplt;
 8002a9a:	6283      	str	r3, [r0, #40]	; 0x28
      hadc->DMA_Handle->XferHalfCpltCallback = ADC_DMAHalfConvCplt;
 8002a9c:	4b1e      	ldr	r3, [pc, #120]	; (8002b18 <HAL_ADC_Start_DMA+0x114>)
 8002a9e:	62c3      	str	r3, [r0, #44]	; 0x2c
      hadc->DMA_Handle->XferErrorCallback = ADC_DMAError;
 8002aa0:	4b1e      	ldr	r3, [pc, #120]	; (8002b1c <HAL_ADC_Start_DMA+0x118>)
 8002aa2:	6303      	str	r3, [r0, #48]	; 0x30
      __HAL_ADC_CLEAR_FLAG(hadc, ADC_FLAG_EOC);
 8002aa4:	f06f 0302 	mvn.w	r3, #2
 8002aa8:	f841 3c4c 	str.w	r3, [r1, #-76]
      SET_BIT(hadc->Instance->CR2, ADC_CR2_DMA);
 8002aac:	f851 3c44 	ldr.w	r3, [r1, #-68]
 8002ab0:	f443 7380 	orr.w	r3, r3, #256	; 0x100
 8002ab4:	f841 3c44 	str.w	r3, [r1, #-68]
      HAL_DMA_Start_IT(hadc->DMA_Handle, (uint32_t)&hadc->Instance->DR, (uint32_t)pData, Length);
 8002ab8:	4643      	mov	r3, r8
 8002aba:	f000 f957 	bl	8002d6c <HAL_DMA_Start_IT>
      if (ADC_IS_SOFTWARE_START_REGULAR(hadc))
 8002abe:	6823      	ldr	r3, [r4, #0]
 8002ac0:	689a      	ldr	r2, [r3, #8]
 8002ac2:	f402 2260 	and.w	r2, r2, #917504	; 0xe0000
 8002ac6:	f5b2 2f60 	cmp.w	r2, #917504	; 0xe0000
        SET_BIT(hadc->Instance->CR2, (ADC_CR2_SWSTART | ADC_CR2_EXTTRIG));
 8002aca:	689a      	ldr	r2, [r3, #8]
 8002acc:	bf0c      	ite	eq
 8002ace:	f442 02a0 	orreq.w	r2, r2, #5242880	; 0x500000
        SET_BIT(hadc->Instance->CR2, ADC_CR2_EXTTRIG);
 8002ad2:	f442 1280 	orrne.w	r2, r2, #1048576	; 0x100000
 8002ad6:	609a      	str	r2, [r3, #8]
}
 8002ad8:	4630      	mov	r0, r6
 8002ada:	e8bd 81d8 	ldmia.w	sp!, {r3, r4, r6, r7, r8, pc}
      SET_BIT(hadc->State, HAL_ADC_STATE_MULTIMODE_SLAVE);
 8002ade:	6aa3      	ldr	r3, [r4, #40]	; 0x28
 8002ae0:	f443 1380 	orr.w	r3, r3, #1048576	; 0x100000
 8002ae4:	62a3      	str	r3, [r4, #40]	; 0x28
      if (ADC_MULTIMODE_AUTO_INJECTED(hadc))
 8002ae6:	6853      	ldr	r3, [r2, #4]
 8002ae8:	055b      	lsls	r3, r3, #21
        ADC_STATE_CLR_SET(hadc->State, HAL_ADC_STATE_INJ_EOC, HAL_ADC_STATE_INJ_BUSY);
 8002aea:	bf41      	itttt	mi
 8002aec:	6aa0      	ldrmi	r0, [r4, #40]	; 0x28
 8002aee:	f420 5040 	bicmi.w	r0, r0, #12288	; 0x3000
 8002af2:	f440 5080 	orrmi.w	r0, r0, #4096	; 0x1000
 8002af6:	62a0      	strmi	r0, [r4, #40]	; 0x28
 8002af8:	e7bf      	b.n	8002a7a <HAL_ADC_Start_DMA+0x76>
      __HAL_UNLOCK(hadc);
 8002afa:	2300      	movs	r3, #0
 8002afc:	f884 3024 	strb.w	r3, [r4, #36]	; 0x24
 8002b00:	e7ea      	b.n	8002ad8 <HAL_ADC_Start_DMA+0xd4>
    tmp_hal_status = HAL_ERROR;
 8002b02:	2601      	movs	r6, #1
 8002b04:	e7e8      	b.n	8002ad8 <HAL_ADC_Start_DMA+0xd4>
    __HAL_LOCK(hadc);
 8002b06:	2602      	movs	r6, #2
 8002b08:	e7e6      	b.n	8002ad8 <HAL_ADC_Start_DMA+0xd4>
 8002b0a:	bf00      	nop
 8002b0c:	40012400 	.word	0x40012400
 8002b10:	40012800 	.word	0x40012800
 8002b14:	08002753 	.word	0x08002753
 8002b18:	080027a3 	.word	0x080027a3
 8002b1c:	080027af 	.word	0x080027af

08002b20 <ADC_ConversionStop_Disable>:
{
 8002b20:	b538      	push	{r3, r4, r5, lr}
  if (ADC_IS_ENABLE(hadc) != RESET)
 8002b22:	6803      	ldr	r3, [r0, #0]
{
 8002b24:	4604      	mov	r4, r0
  if (ADC_IS_ENABLE(hadc) != RESET)
 8002b26:	689a      	ldr	r2, [r3, #8]
 8002b28:	07d2      	lsls	r2, r2, #31
 8002b2a:	d401      	bmi.n	8002b30 <ADC_ConversionStop_Disable+0x10>
  return HAL_OK;
 8002b2c:	2000      	movs	r0, #0
 8002b2e:	bd38      	pop	{r3, r4, r5, pc}
    __HAL_ADC_DISABLE(hadc);
 8002b30:	689a      	ldr	r2, [r3, #8]
 8002b32:	f022 0201 	bic.w	r2, r2, #1
 8002b36:	609a      	str	r2, [r3, #8]
    tickstart = HAL_GetTick();
 8002b38:	f7ff fe04 	bl	8002744 <HAL_GetTick>
 8002b3c:	4605      	mov	r5, r0
    while(ADC_IS_ENABLE(hadc) != RESET)
 8002b3e:	6823      	ldr	r3, [r4, #0]
 8002b40:	689b      	ldr	r3, [r3, #8]
 8002b42:	07db      	lsls	r3, r3, #31
 8002b44:	d5f2      	bpl.n	8002b2c <ADC_ConversionStop_Disable+0xc>
      if((HAL_GetTick() - tickstart) > ADC_DISABLE_TIMEOUT)
 8002b46:	f7ff fdfd 	bl	8002744 <HAL_GetTick>
 8002b4a:	1b40      	subs	r0, r0, r5
 8002b4c:	2802      	cmp	r0, #2
 8002b4e:	d9f6      	bls.n	8002b3e <ADC_ConversionStop_Disable+0x1e>
        SET_BIT(hadc->State, HAL_ADC_STATE_ERROR_INTERNAL);
 8002b50:	6aa3      	ldr	r3, [r4, #40]	; 0x28
        SET_BIT(hadc->ErrorCode, HAL_ADC_ERROR_INTERNAL);
 8002b52:	2001      	movs	r0, #1
        SET_BIT(hadc->State, HAL_ADC_STATE_ERROR_INTERNAL);
 8002b54:	f043 0310 	orr.w	r3, r3, #16
 8002b58:	62a3      	str	r3, [r4, #40]	; 0x28
        SET_BIT(hadc->ErrorCode, HAL_ADC_ERROR_INTERNAL);
 8002b5a:	6ae3      	ldr	r3, [r4, #44]	; 0x2c
 8002b5c:	f043 0301 	orr.w	r3, r3, #1
 8002b60:	62e3      	str	r3, [r4, #44]	; 0x2c
 8002b62:	bd38      	pop	{r3, r4, r5, pc}

08002b64 <HAL_ADC_Init>:
{
 8002b64:	b570      	push	{r4, r5, r6, lr}
  if(hadc == NULL)
 8002b66:	4604      	mov	r4, r0
 8002b68:	2800      	cmp	r0, #0
 8002b6a:	d071      	beq.n	8002c50 <HAL_ADC_Init+0xec>
  if (hadc->State == HAL_ADC_STATE_RESET)
 8002b6c:	6a83      	ldr	r3, [r0, #40]	; 0x28
 8002b6e:	b923      	cbnz	r3, 8002b7a <HAL_ADC_Init+0x16>
    ADC_CLEAR_ERRORCODE(hadc);
 8002b70:	62c3      	str	r3, [r0, #44]	; 0x2c
    hadc->Lock = HAL_UNLOCKED;
 8002b72:	f880 3024 	strb.w	r3, [r0, #36]	; 0x24
    HAL_ADC_MspInit(hadc);
 8002b76:	f7ff faf1 	bl	800215c <HAL_ADC_MspInit>
  tmp_hal_status = ADC_ConversionStop_Disable(hadc);
 8002b7a:	4620      	mov	r0, r4
 8002b7c:	f7ff ffd0 	bl	8002b20 <ADC_ConversionStop_Disable>
  if (HAL_IS_BIT_CLR(hadc->State, HAL_ADC_STATE_ERROR_INTERNAL) &&
 8002b80:	6aa3      	ldr	r3, [r4, #40]	; 0x28
 8002b82:	f013 0f10 	tst.w	r3, #16
    ADC_STATE_CLR_SET(hadc->State,
 8002b86:	6aa3      	ldr	r3, [r4, #40]	; 0x28
  if (HAL_IS_BIT_CLR(hadc->State, HAL_ADC_STATE_ERROR_INTERNAL) &&
 8002b88:	d164      	bne.n	8002c54 <HAL_ADC_Init+0xf0>
 8002b8a:	2800      	cmp	r0, #0
 8002b8c:	d162      	bne.n	8002c54 <HAL_ADC_Init+0xf0>
    tmp_cr2 |= (hadc->Init.DataAlign                                          |
 8002b8e:	69e1      	ldr	r1, [r4, #28]
    ADC_STATE_CLR_SET(hadc->State,
 8002b90:	f423 5388 	bic.w	r3, r3, #4352	; 0x1100
    tmp_cr2 |= (hadc->Init.DataAlign                                          |
 8002b94:	6862      	ldr	r2, [r4, #4]
    ADC_STATE_CLR_SET(hadc->State,
 8002b96:	f023 0302 	bic.w	r3, r3, #2
 8002b9a:	f043 0302 	orr.w	r3, r3, #2
    tmp_cr2 |= (hadc->Init.DataAlign                                          |
 8002b9e:	430a      	orrs	r2, r1
    tmp_cr1 |= (ADC_CR1_SCAN_SET(hadc->Init.ScanConvMode));
 8002ba0:	68a1      	ldr	r1, [r4, #8]
    ADC_STATE_CLR_SET(hadc->State,
 8002ba2:	62a3      	str	r3, [r4, #40]	; 0x28
                ADC_CR2_CONTINUOUS((uint32_t)hadc->Init.ContinuousConvMode)   );
 8002ba4:	7b23      	ldrb	r3, [r4, #12]
    tmp_cr1 |= (ADC_CR1_SCAN_SET(hadc->Init.ScanConvMode));
 8002ba6:	f5b1 7f80 	cmp.w	r1, #256	; 0x100
                ADC_CFGR_EXTSEL(hadc, hadc->Init.ExternalTrigConv)            |
 8002baa:	ea42 0243 	orr.w	r2, r2, r3, lsl #1
    tmp_cr1 |= (ADC_CR1_SCAN_SET(hadc->Init.ScanConvMode));
 8002bae:	d038      	beq.n	8002c22 <HAL_ADC_Init+0xbe>
 8002bb0:	2901      	cmp	r1, #1
 8002bb2:	bf14      	ite	ne
 8002bb4:	4606      	movne	r6, r0
 8002bb6:	f44f 7680 	moveq.w	r6, #256	; 0x100
    if (hadc->Init.DiscontinuousConvMode == ENABLE)
 8002bba:	7d25      	ldrb	r5, [r4, #20]
 8002bbc:	2d01      	cmp	r5, #1
 8002bbe:	d107      	bne.n	8002bd0 <HAL_ADC_Init+0x6c>
      if (hadc->Init.ContinuousConvMode == DISABLE)
 8002bc0:	2b00      	cmp	r3, #0
 8002bc2:	d130      	bne.n	8002c26 <HAL_ADC_Init+0xc2>
        SET_BIT(tmp_cr1, ADC_CR1_DISCEN                                            |
 8002bc4:	69a3      	ldr	r3, [r4, #24]
 8002bc6:	3b01      	subs	r3, #1
 8002bc8:	ea46 3543 	orr.w	r5, r6, r3, lsl #13
 8002bcc:	f445 6600 	orr.w	r6, r5, #2048	; 0x800
      MODIFY_REG(hadc->Instance->CR1,
 8002bd0:	6823      	ldr	r3, [r4, #0]
    if (ADC_CR1_SCAN_SET(hadc->Init.ScanConvMode) == ADC_SCAN_ENABLE)
 8002bd2:	f5b1 7f80 	cmp.w	r1, #256	; 0x100
      MODIFY_REG(hadc->Instance->CR1,
 8002bd6:	685d      	ldr	r5, [r3, #4]
 8002bd8:	f425 4569 	bic.w	r5, r5, #59648	; 0xe900
 8002bdc:	ea45 0506 	orr.w	r5, r5, r6
 8002be0:	605d      	str	r5, [r3, #4]
      MODIFY_REG(hadc->Instance->CR2,
 8002be2:	689e      	ldr	r6, [r3, #8]
 8002be4:	4d1d      	ldr	r5, [pc, #116]	; (8002c5c <HAL_ADC_Init+0xf8>)
 8002be6:	ea05 0506 	and.w	r5, r5, r6
 8002bea:	ea45 0502 	orr.w	r5, r5, r2
 8002bee:	609d      	str	r5, [r3, #8]
    if (ADC_CR1_SCAN_SET(hadc->Init.ScanConvMode) == ADC_SCAN_ENABLE)
 8002bf0:	d001      	beq.n	8002bf6 <HAL_ADC_Init+0x92>
 8002bf2:	2901      	cmp	r1, #1
 8002bf4:	d120      	bne.n	8002c38 <HAL_ADC_Init+0xd4>
      tmp_sqr1 = ADC_SQR1_L_SHIFT(hadc->Init.NbrOfConversion);
 8002bf6:	6921      	ldr	r1, [r4, #16]
 8002bf8:	3901      	subs	r1, #1
 8002bfa:	0509      	lsls	r1, r1, #20
    MODIFY_REG(hadc->Instance->SQR1,
 8002bfc:	6add      	ldr	r5, [r3, #44]	; 0x2c
 8002bfe:	f425 0570 	bic.w	r5, r5, #15728640	; 0xf00000
 8002c02:	4329      	orrs	r1, r5
 8002c04:	62d9      	str	r1, [r3, #44]	; 0x2c
    if (READ_BIT(hadc->Instance->CR2, ~(ADC_CR2_ADON | ADC_CR2_DMA |
 8002c06:	6899      	ldr	r1, [r3, #8]
 8002c08:	4b15      	ldr	r3, [pc, #84]	; (8002c60 <HAL_ADC_Init+0xfc>)
 8002c0a:	400b      	ands	r3, r1
 8002c0c:	429a      	cmp	r2, r3
 8002c0e:	d115      	bne.n	8002c3c <HAL_ADC_Init+0xd8>
      ADC_CLEAR_ERRORCODE(hadc);
 8002c10:	2300      	movs	r3, #0
 8002c12:	62e3      	str	r3, [r4, #44]	; 0x2c
      ADC_STATE_CLR_SET(hadc->State,
 8002c14:	6aa3      	ldr	r3, [r4, #40]	; 0x28
 8002c16:	f023 0303 	bic.w	r3, r3, #3
 8002c1a:	f043 0301 	orr.w	r3, r3, #1
 8002c1e:	62a3      	str	r3, [r4, #40]	; 0x28
 8002c20:	bd70      	pop	{r4, r5, r6, pc}
    tmp_cr1 |= (ADC_CR1_SCAN_SET(hadc->Init.ScanConvMode));
 8002c22:	460e      	mov	r6, r1
 8002c24:	e7c9      	b.n	8002bba <HAL_ADC_Init+0x56>
        SET_BIT(hadc->State, HAL_ADC_STATE_ERROR_CONFIG);
 8002c26:	6aa3      	ldr	r3, [r4, #40]	; 0x28
 8002c28:	f043 0320 	orr.w	r3, r3, #32
 8002c2c:	62a3      	str	r3, [r4, #40]	; 0x28
        SET_BIT(hadc->ErrorCode, HAL_ADC_ERROR_INTERNAL);
 8002c2e:	6ae3      	ldr	r3, [r4, #44]	; 0x2c
 8002c30:	f043 0301 	orr.w	r3, r3, #1
 8002c34:	62e3      	str	r3, [r4, #44]	; 0x2c
 8002c36:	e7cb      	b.n	8002bd0 <HAL_ADC_Init+0x6c>
  uint32_t tmp_sqr1 = 0U;
 8002c38:	2100      	movs	r1, #0
 8002c3a:	e7df      	b.n	8002bfc <HAL_ADC_Init+0x98>
      ADC_STATE_CLR_SET(hadc->State,
 8002c3c:	6aa3      	ldr	r3, [r4, #40]	; 0x28
 8002c3e:	f023 0312 	bic.w	r3, r3, #18
 8002c42:	f043 0310 	orr.w	r3, r3, #16
 8002c46:	62a3      	str	r3, [r4, #40]	; 0x28
      SET_BIT(hadc->ErrorCode, HAL_ADC_ERROR_INTERNAL);
 8002c48:	6ae3      	ldr	r3, [r4, #44]	; 0x2c
 8002c4a:	f043 0301 	orr.w	r3, r3, #1
 8002c4e:	62e3      	str	r3, [r4, #44]	; 0x2c
    return HAL_ERROR;
 8002c50:	2001      	movs	r0, #1
}
 8002c52:	bd70      	pop	{r4, r5, r6, pc}
    SET_BIT(hadc->State, HAL_ADC_STATE_ERROR_INTERNAL);
 8002c54:	f043 0310 	orr.w	r3, r3, #16
 8002c58:	62a3      	str	r3, [r4, #40]	; 0x28
 8002c5a:	e7f9      	b.n	8002c50 <HAL_ADC_Init+0xec>
 8002c5c:	ffe1f7fd 	.word	0xffe1f7fd
 8002c60:	ff1f0efe 	.word	0xff1f0efe

08002c64 <HAL_NVIC_SetPriorityGrouping>:
__STATIC_INLINE void __NVIC_SetPriorityGrouping(uint32_t PriorityGroup)
{
  uint32_t reg_value;
  uint32_t PriorityGroupTmp = (PriorityGroup & (uint32_t)0x07UL);             /* only values 0..7 are used          */

  reg_value  =  SCB->AIRCR;                                                   /* read old register configuration    */
 8002c64:	4a07      	ldr	r2, [pc, #28]	; (8002c84 <HAL_NVIC_SetPriorityGrouping+0x20>)
  reg_value &= ~((uint32_t)(SCB_AIRCR_VECTKEY_Msk | SCB_AIRCR_PRIGROUP_Msk)); /* clear bits to change               */
  reg_value  =  (reg_value                                   |
                ((uint32_t)0x5FAUL << SCB_AIRCR_VECTKEY_Pos) |
                (PriorityGroupTmp << SCB_AIRCR_PRIGROUP_Pos) );               /* Insert write key and priority group */
 8002c66:	0200      	lsls	r0, r0, #8
  reg_value  =  SCB->AIRCR;                                                   /* read old register configuration    */
 8002c68:	68d3      	ldr	r3, [r2, #12]
                (PriorityGroupTmp << SCB_AIRCR_PRIGROUP_Pos) );               /* Insert write key and priority group */
 8002c6a:	f400 60e0 	and.w	r0, r0, #1792	; 0x700
  reg_value &= ~((uint32_t)(SCB_AIRCR_VECTKEY_Msk | SCB_AIRCR_PRIGROUP_Msk)); /* clear bits to change               */
 8002c6e:	f423 63e0 	bic.w	r3, r3, #1792	; 0x700
 8002c72:	041b      	lsls	r3, r3, #16
 8002c74:	0c1b      	lsrs	r3, r3, #16
 8002c76:	f043 63bf 	orr.w	r3, r3, #100139008	; 0x5f80000
 8002c7a:	f443 3300 	orr.w	r3, r3, #131072	; 0x20000
  reg_value  =  (reg_value                                   |
 8002c7e:	4303      	orrs	r3, r0
  SCB->AIRCR =  reg_value;
 8002c80:	60d3      	str	r3, [r2, #12]
 8002c82:	4770      	bx	lr
 8002c84:	e000ed00 	.word	0xe000ed00

08002c88 <HAL_NVIC_SetPriority>:
  \details Reads the priority grouping field from the NVIC Interrupt Controller.
  \return                Priority grouping field (SCB->AIRCR [10:8] PRIGROUP field).
 */
__STATIC_INLINE uint32_t __NVIC_GetPriorityGrouping(void)
{
  return ((uint32_t)((SCB->AIRCR & SCB_AIRCR_PRIGROUP_Msk) >> SCB_AIRCR_PRIGROUP_Pos));
 8002c88:	4b17      	ldr	r3, [pc, #92]	; (8002ce8 <HAL_NVIC_SetPriority+0x60>)
  *         This parameter can be a value between 0 and 15
  *         A lower priority value indicates a higher priority.          
  * @retval None
  */
void HAL_NVIC_SetPriority(IRQn_Type IRQn, uint32_t PreemptPriority, uint32_t SubPriority)
{ 
 8002c8a:	b530      	push	{r4, r5, lr}
 8002c8c:	68dc      	ldr	r4, [r3, #12]
 8002c8e:	f3c4 2402 	ubfx	r4, r4, #8, #3
{
  uint32_t PriorityGroupTmp = (PriorityGroup & (uint32_t)0x07UL);   /* only values 0..7 are used          */
  uint32_t PreemptPriorityBits;
  uint32_t SubPriorityBits;

  PreemptPriorityBits = ((7UL - PriorityGroupTmp) > (uint32_t)(__NVIC_PRIO_BITS)) ? (uint32_t)(__NVIC_PRIO_BITS) : (uint32_t)(7UL - PriorityGroupTmp);
 8002c92:	f1c4 0307 	rsb	r3, r4, #7
  SubPriorityBits     = ((PriorityGroupTmp + (uint32_t)(__NVIC_PRIO_BITS)) < (uint32_t)7UL) ? (uint32_t)0UL : (uint32_t)((PriorityGroupTmp - 7UL) + (uint32_t)(__NVIC_PRIO_BITS));
 8002c96:	1d25      	adds	r5, r4, #4
  PreemptPriorityBits = ((7UL - PriorityGroupTmp) > (uint32_t)(__NVIC_PRIO_BITS)) ? (uint32_t)(__NVIC_PRIO_BITS) : (uint32_t)(7UL - PriorityGroupTmp);
 8002c98:	2b04      	cmp	r3, #4
 8002c9a:	bf28      	it	cs
 8002c9c:	2304      	movcs	r3, #4
  SubPriorityBits     = ((PriorityGroupTmp + (uint32_t)(__NVIC_PRIO_BITS)) < (uint32_t)7UL) ? (uint32_t)0UL : (uint32_t)((PriorityGroupTmp - 7UL) + (uint32_t)(__NVIC_PRIO_BITS));
 8002c9e:	2d06      	cmp	r5, #6

  return (
           ((PreemptPriority & (uint32_t)((1UL << (PreemptPriorityBits)) - 1UL)) << SubPriorityBits) |
 8002ca0:	f04f 0501 	mov.w	r5, #1
  SubPriorityBits     = ((PriorityGroupTmp + (uint32_t)(__NVIC_PRIO_BITS)) < (uint32_t)7UL) ? (uint32_t)0UL : (uint32_t)((PriorityGroupTmp - 7UL) + (uint32_t)(__NVIC_PRIO_BITS));
 8002ca4:	bf98      	it	ls
 8002ca6:	2400      	movls	r4, #0
           ((PreemptPriority & (uint32_t)((1UL << (PreemptPriorityBits)) - 1UL)) << SubPriorityBits) |
 8002ca8:	fa05 f303 	lsl.w	r3, r5, r3
 8002cac:	f103 33ff 	add.w	r3, r3, #4294967295
  SubPriorityBits     = ((PriorityGroupTmp + (uint32_t)(__NVIC_PRIO_BITS)) < (uint32_t)7UL) ? (uint32_t)0UL : (uint32_t)((PriorityGroupTmp - 7UL) + (uint32_t)(__NVIC_PRIO_BITS));
 8002cb0:	bf88      	it	hi
 8002cb2:	3c03      	subhi	r4, #3
           ((PreemptPriority & (uint32_t)((1UL << (PreemptPriorityBits)) - 1UL)) << SubPriorityBits) |
 8002cb4:	4019      	ands	r1, r3
 8002cb6:	40a1      	lsls	r1, r4
           ((SubPriority     & (uint32_t)((1UL << (SubPriorityBits    )) - 1UL)))
 8002cb8:	fa05 f404 	lsl.w	r4, r5, r4
 8002cbc:	3c01      	subs	r4, #1
 8002cbe:	4022      	ands	r2, r4
  if ((int32_t)(IRQn) >= 0)
 8002cc0:	2800      	cmp	r0, #0
           ((PreemptPriority & (uint32_t)((1UL << (PreemptPriorityBits)) - 1UL)) << SubPriorityBits) |
 8002cc2:	ea42 0201 	orr.w	r2, r2, r1
 8002cc6:	ea4f 1202 	mov.w	r2, r2, lsl #4
    NVIC->IP[((uint32_t)IRQn)]               = (uint8_t)((priority << (8U - __NVIC_PRIO_BITS)) & (uint32_t)0xFFUL);
 8002cca:	bfa9      	itett	ge
 8002ccc:	f100 4060 	addge.w	r0, r0, #3758096384	; 0xe0000000
    SCB->SHP[(((uint32_t)IRQn) & 0xFUL)-4UL] = (uint8_t)((priority << (8U - __NVIC_PRIO_BITS)) & (uint32_t)0xFFUL);
 8002cd0:	4b06      	ldrlt	r3, [pc, #24]	; (8002cec <HAL_NVIC_SetPriority+0x64>)
    NVIC->IP[((uint32_t)IRQn)]               = (uint8_t)((priority << (8U - __NVIC_PRIO_BITS)) & (uint32_t)0xFFUL);
 8002cd2:	b2d2      	uxtbge	r2, r2
 8002cd4:	f500 4061 	addge.w	r0, r0, #57600	; 0xe100
    SCB->SHP[(((uint32_t)IRQn) & 0xFUL)-4UL] = (uint8_t)((priority << (8U - __NVIC_PRIO_BITS)) & (uint32_t)0xFFUL);
 8002cd8:	bfbb      	ittet	lt
 8002cda:	f000 000f 	andlt.w	r0, r0, #15
 8002cde:	b2d2      	uxtblt	r2, r2
    NVIC->IP[((uint32_t)IRQn)]               = (uint8_t)((priority << (8U - __NVIC_PRIO_BITS)) & (uint32_t)0xFFUL);
 8002ce0:	f880 2300 	strbge.w	r2, [r0, #768]	; 0x300
    SCB->SHP[(((uint32_t)IRQn) & 0xFUL)-4UL] = (uint8_t)((priority << (8U - __NVIC_PRIO_BITS)) & (uint32_t)0xFFUL);
 8002ce4:	541a      	strblt	r2, [r3, r0]
 8002ce6:	bd30      	pop	{r4, r5, pc}
 8002ce8:	e000ed00 	.word	0xe000ed00
 8002cec:	e000ed14 	.word	0xe000ed14

08002cf0 <HAL_NVIC_EnableIRQ>:
  if ((int32_t)(IRQn) >= 0)
 8002cf0:	2800      	cmp	r0, #0
 8002cf2:	db08      	blt.n	8002d06 <HAL_NVIC_EnableIRQ+0x16>
    NVIC->ISER[(((uint32_t)IRQn) >> 5UL)] = (uint32_t)(1UL << (((uint32_t)IRQn) & 0x1FUL));
 8002cf4:	2301      	movs	r3, #1
 8002cf6:	0942      	lsrs	r2, r0, #5
 8002cf8:	f000 001f 	and.w	r0, r0, #31
 8002cfc:	fa03 f000 	lsl.w	r0, r3, r0
 8002d00:	4b01      	ldr	r3, [pc, #4]	; (8002d08 <HAL_NVIC_EnableIRQ+0x18>)
 8002d02:	f843 0022 	str.w	r0, [r3, r2, lsl #2]
 8002d06:	4770      	bx	lr
 8002d08:	e000e100 	.word	0xe000e100

08002d0c <HAL_DMA_Init>:
  * @param  hdma: Pointer to a DMA_HandleTypeDef structure that contains
  *               the configuration information for the specified DMA Channel.
  * @retval HAL status
  */
HAL_StatusTypeDef HAL_DMA_Init(DMA_HandleTypeDef *hdma)
{
 8002d0c:	b510      	push	{r4, lr}
  uint32_t tmp = 0U;

  /* Check the DMA handle allocation */
  if(hdma == NULL)
 8002d0e:	b330      	cbz	r0, 8002d5e <HAL_DMA_Init+0x52>
    hdma->ChannelIndex = (((uint32_t)hdma->Instance - (uint32_t)DMA2_Channel1) / ((uint32_t)DMA2_Channel2 - (uint32_t)DMA2_Channel1)) << 2;
    hdma->DmaBaseAddress = DMA2;
  }
#else
  /* DMA1 */
  hdma->ChannelIndex = (((uint32_t)hdma->Instance - (uint32_t)DMA1_Channel1) / ((uint32_t)DMA1_Channel2 - (uint32_t)DMA1_Channel1)) << 2;
 8002d10:	2214      	movs	r2, #20
 8002d12:	6801      	ldr	r1, [r0, #0]
 8002d14:	4b13      	ldr	r3, [pc, #76]	; (8002d64 <HAL_DMA_Init+0x58>)
  tmp &= ((uint32_t)~(DMA_CCR_PL    | DMA_CCR_MSIZE  | DMA_CCR_PSIZE  | \
                      DMA_CCR_MINC  | DMA_CCR_PINC   | DMA_CCR_CIRC   | \
                      DMA_CCR_DIR));

  /* Prepare the DMA Channel configuration */
  tmp |=  hdma->Init.Direction        |
 8002d16:	6884      	ldr	r4, [r0, #8]
  hdma->ChannelIndex = (((uint32_t)hdma->Instance - (uint32_t)DMA1_Channel1) / ((uint32_t)DMA1_Channel2 - (uint32_t)DMA1_Channel1)) << 2;
 8002d18:	440b      	add	r3, r1
 8002d1a:	fbb3 f3f2 	udiv	r3, r3, r2
 8002d1e:	009b      	lsls	r3, r3, #2
 8002d20:	6403      	str	r3, [r0, #64]	; 0x40
  hdma->DmaBaseAddress = DMA1;
 8002d22:	4b11      	ldr	r3, [pc, #68]	; (8002d68 <HAL_DMA_Init+0x5c>)
  tmp = hdma->Instance->CCR;
 8002d24:	680a      	ldr	r2, [r1, #0]
  hdma->DmaBaseAddress = DMA1;
 8002d26:	63c3      	str	r3, [r0, #60]	; 0x3c
  tmp |=  hdma->Init.Direction        |
 8002d28:	6843      	ldr	r3, [r0, #4]
  tmp &= ((uint32_t)~(DMA_CCR_PL    | DMA_CCR_MSIZE  | DMA_CCR_PSIZE  | \
 8002d2a:	f422 527f 	bic.w	r2, r2, #16320	; 0x3fc0
  tmp |=  hdma->Init.Direction        |
 8002d2e:	4323      	orrs	r3, r4
          hdma->Init.PeriphInc           | hdma->Init.MemInc           |
 8002d30:	68c4      	ldr	r4, [r0, #12]
  tmp &= ((uint32_t)~(DMA_CCR_PL    | DMA_CCR_MSIZE  | DMA_CCR_PSIZE  | \
 8002d32:	f022 0230 	bic.w	r2, r2, #48	; 0x30
          hdma->Init.PeriphInc           | hdma->Init.MemInc           |
 8002d36:	4323      	orrs	r3, r4
 8002d38:	6904      	ldr	r4, [r0, #16]
 8002d3a:	4323      	orrs	r3, r4
          hdma->Init.PeriphDataAlignment | hdma->Init.MemDataAlignment |
 8002d3c:	6944      	ldr	r4, [r0, #20]
 8002d3e:	4323      	orrs	r3, r4
 8002d40:	6984      	ldr	r4, [r0, #24]
 8002d42:	4323      	orrs	r3, r4
          hdma->Init.Mode                | hdma->Init.Priority;
 8002d44:	69c4      	ldr	r4, [r0, #28]
 8002d46:	4323      	orrs	r3, r4
  tmp |=  hdma->Init.Direction        |
 8002d48:	4313      	orrs	r3, r2

  /* Write to DMA Channel CR register */
  hdma->Instance->CCR = tmp;
 8002d4a:	600b      	str	r3, [r1, #0]

  /* Initialise the error code */
  hdma->ErrorCode = HAL_DMA_ERROR_NONE;

  /* Initialize the DMA state*/
  hdma->State = HAL_DMA_STATE_READY;
 8002d4c:	2201      	movs	r2, #1
  hdma->ErrorCode = HAL_DMA_ERROR_NONE;
 8002d4e:	2300      	movs	r3, #0
  hdma->State = HAL_DMA_STATE_READY;
 8002d50:	f880 2021 	strb.w	r2, [r0, #33]	; 0x21
  hdma->ErrorCode = HAL_DMA_ERROR_NONE;
 8002d54:	6383      	str	r3, [r0, #56]	; 0x38
  /* Allocate lock resource and initialize it */
  hdma->Lock = HAL_UNLOCKED;
 8002d56:	f880 3020 	strb.w	r3, [r0, #32]

  return HAL_OK;
 8002d5a:	4618      	mov	r0, r3
 8002d5c:	bd10      	pop	{r4, pc}
    return HAL_ERROR;
 8002d5e:	2001      	movs	r0, #1
}
 8002d60:	bd10      	pop	{r4, pc}
 8002d62:	bf00      	nop
 8002d64:	bffdfff8 	.word	0xbffdfff8
 8002d68:	40020000 	.word	0x40020000

08002d6c <HAL_DMA_Start_IT>:
  * @param  DstAddress: The destination memory Buffer address
  * @param  DataLength: The length of data to be transferred from source to destination
  * @retval HAL status
  */
HAL_StatusTypeDef HAL_DMA_Start_IT(DMA_HandleTypeDef *hdma, uint32_t SrcAddress, uint32_t DstAddress, uint32_t DataLength)
{
 8002d6c:	b5f0      	push	{r4, r5, r6, r7, lr}

  /* Check the parameters */
  assert_param(IS_DMA_BUFFER_SIZE(DataLength));

  /* Process locked */
  __HAL_LOCK(hdma);
 8002d6e:	f890 4020 	ldrb.w	r4, [r0, #32]
 8002d72:	2c01      	cmp	r4, #1
 8002d74:	d035      	beq.n	8002de2 <HAL_DMA_Start_IT+0x76>
 8002d76:	2401      	movs	r4, #1
  
  if(HAL_DMA_STATE_READY == hdma->State)
 8002d78:	f890 5021 	ldrb.w	r5, [r0, #33]	; 0x21
  __HAL_LOCK(hdma);
 8002d7c:	f880 4020 	strb.w	r4, [r0, #32]
  if(HAL_DMA_STATE_READY == hdma->State)
 8002d80:	42a5      	cmp	r5, r4
 8002d82:	f04f 0600 	mov.w	r6, #0
 8002d86:	f04f 0402 	mov.w	r4, #2
 8002d8a:	d128      	bne.n	8002dde <HAL_DMA_Start_IT+0x72>
  {
    /* Change DMA peripheral state */
    hdma->State = HAL_DMA_STATE_BUSY;
 8002d8c:	f880 4021 	strb.w	r4, [r0, #33]	; 0x21
    hdma->ErrorCode = HAL_DMA_ERROR_NONE;
    
    /* Disable the peripheral */
    __HAL_DMA_DISABLE(hdma);
 8002d90:	6804      	ldr	r4, [r0, #0]
    hdma->ErrorCode = HAL_DMA_ERROR_NONE;
 8002d92:	6386      	str	r6, [r0, #56]	; 0x38
    __HAL_DMA_DISABLE(hdma);
 8002d94:	6826      	ldr	r6, [r4, #0]
  * @retval HAL status
  */
static void DMA_SetConfig(DMA_HandleTypeDef *hdma, uint32_t SrcAddress, uint32_t DstAddress, uint32_t DataLength)
{
  /* Clear all flags */
  hdma->DmaBaseAddress->IFCR = (DMA_ISR_GIF1 << hdma->ChannelIndex);
 8002d96:	6c07      	ldr	r7, [r0, #64]	; 0x40
    __HAL_DMA_DISABLE(hdma);
 8002d98:	f026 0601 	bic.w	r6, r6, #1
 8002d9c:	6026      	str	r6, [r4, #0]
  hdma->DmaBaseAddress->IFCR = (DMA_ISR_GIF1 << hdma->ChannelIndex);
 8002d9e:	6bc6      	ldr	r6, [r0, #60]	; 0x3c
 8002da0:	40bd      	lsls	r5, r7
 8002da2:	6075      	str	r5, [r6, #4]

  /* Configure DMA Channel data length */
  hdma->Instance->CNDTR = DataLength;
 8002da4:	6063      	str	r3, [r4, #4]

  /* Memory to Peripheral */
  if((hdma->Init.Direction) == DMA_MEMORY_TO_PERIPH)
 8002da6:	6843      	ldr	r3, [r0, #4]
 8002da8:	6805      	ldr	r5, [r0, #0]
 8002daa:	2b10      	cmp	r3, #16
    if(NULL != hdma->XferHalfCpltCallback)
 8002dac:	6ac3      	ldr	r3, [r0, #44]	; 0x2c
  {
    /* Configure DMA Channel destination address */
    hdma->Instance->CPAR = DstAddress;
 8002dae:	bf0b      	itete	eq
 8002db0:	60a2      	streq	r2, [r4, #8]
  }
  /* Peripheral to Memory */
  else
  {
    /* Configure DMA Channel source address */
    hdma->Instance->CPAR = SrcAddress;
 8002db2:	60a1      	strne	r1, [r4, #8]
    hdma->Instance->CMAR = SrcAddress;
 8002db4:	60e1      	streq	r1, [r4, #12]

    /* Configure DMA Channel destination address */
    hdma->Instance->CMAR = DstAddress;
 8002db6:	60e2      	strne	r2, [r4, #12]
    if(NULL != hdma->XferHalfCpltCallback)
 8002db8:	b14b      	cbz	r3, 8002dce <HAL_DMA_Start_IT+0x62>
      __HAL_DMA_ENABLE_IT(hdma, (DMA_IT_TC | DMA_IT_HT | DMA_IT_TE));
 8002dba:	6823      	ldr	r3, [r4, #0]
 8002dbc:	f043 030e 	orr.w	r3, r3, #14
      __HAL_DMA_ENABLE_IT(hdma, (DMA_IT_TC | DMA_IT_TE));
 8002dc0:	6023      	str	r3, [r4, #0]
    __HAL_DMA_ENABLE(hdma);
 8002dc2:	682b      	ldr	r3, [r5, #0]
  HAL_StatusTypeDef status = HAL_OK;
 8002dc4:	2000      	movs	r0, #0
    __HAL_DMA_ENABLE(hdma);
 8002dc6:	f043 0301 	orr.w	r3, r3, #1
 8002dca:	602b      	str	r3, [r5, #0]
 8002dcc:	bdf0      	pop	{r4, r5, r6, r7, pc}
      __HAL_DMA_DISABLE_IT(hdma, DMA_IT_HT);
 8002dce:	6823      	ldr	r3, [r4, #0]
 8002dd0:	f023 0304 	bic.w	r3, r3, #4
 8002dd4:	6023      	str	r3, [r4, #0]
      __HAL_DMA_ENABLE_IT(hdma, (DMA_IT_TC | DMA_IT_TE));
 8002dd6:	6823      	ldr	r3, [r4, #0]
 8002dd8:	f043 030a 	orr.w	r3, r3, #10
 8002ddc:	e7f0      	b.n	8002dc0 <HAL_DMA_Start_IT+0x54>
    __HAL_UNLOCK(hdma); 
 8002dde:	f880 6020 	strb.w	r6, [r0, #32]
  __HAL_LOCK(hdma);
 8002de2:	2002      	movs	r0, #2
}
 8002de4:	bdf0      	pop	{r4, r5, r6, r7, pc}
	...

08002de8 <HAL_DMA_Abort_IT>:
  if(HAL_DMA_STATE_BUSY != hdma->State)
 8002de8:	f890 3021 	ldrb.w	r3, [r0, #33]	; 0x21
{  
 8002dec:	b510      	push	{r4, lr}
  if(HAL_DMA_STATE_BUSY != hdma->State)
 8002dee:	2b02      	cmp	r3, #2
 8002df0:	d003      	beq.n	8002dfa <HAL_DMA_Abort_IT+0x12>
    hdma->ErrorCode = HAL_DMA_ERROR_NO_XFER;
 8002df2:	2304      	movs	r3, #4
 8002df4:	6383      	str	r3, [r0, #56]	; 0x38
    status = HAL_ERROR;
 8002df6:	2001      	movs	r0, #1
 8002df8:	bd10      	pop	{r4, pc}
    __HAL_DMA_DISABLE_IT(hdma, (DMA_IT_TC | DMA_IT_HT | DMA_IT_TE));
 8002dfa:	6803      	ldr	r3, [r0, #0]
 8002dfc:	681a      	ldr	r2, [r3, #0]
 8002dfe:	f022 020e 	bic.w	r2, r2, #14
 8002e02:	601a      	str	r2, [r3, #0]
    __HAL_DMA_DISABLE(hdma);
 8002e04:	681a      	ldr	r2, [r3, #0]
 8002e06:	f022 0201 	bic.w	r2, r2, #1
 8002e0a:	601a      	str	r2, [r3, #0]
    __HAL_DMA_CLEAR_FLAG(hdma, __HAL_DMA_GET_GI_FLAG_INDEX(hdma));
 8002e0c:	4a18      	ldr	r2, [pc, #96]	; (8002e70 <HAL_DMA_Abort_IT+0x88>)
 8002e0e:	4293      	cmp	r3, r2
 8002e10:	d01f      	beq.n	8002e52 <HAL_DMA_Abort_IT+0x6a>
 8002e12:	3214      	adds	r2, #20
 8002e14:	4293      	cmp	r3, r2
 8002e16:	d01e      	beq.n	8002e56 <HAL_DMA_Abort_IT+0x6e>
 8002e18:	3214      	adds	r2, #20
 8002e1a:	4293      	cmp	r3, r2
 8002e1c:	d01d      	beq.n	8002e5a <HAL_DMA_Abort_IT+0x72>
 8002e1e:	3214      	adds	r2, #20
 8002e20:	4293      	cmp	r3, r2
 8002e22:	d01d      	beq.n	8002e60 <HAL_DMA_Abort_IT+0x78>
 8002e24:	3214      	adds	r2, #20
 8002e26:	4293      	cmp	r3, r2
 8002e28:	d01d      	beq.n	8002e66 <HAL_DMA_Abort_IT+0x7e>
 8002e2a:	3214      	adds	r2, #20
 8002e2c:	4293      	cmp	r3, r2
 8002e2e:	bf0c      	ite	eq
 8002e30:	f44f 1380 	moveq.w	r3, #1048576	; 0x100000
 8002e34:	f04f 7380 	movne.w	r3, #16777216	; 0x1000000
 8002e38:	4a0e      	ldr	r2, [pc, #56]	; (8002e74 <HAL_DMA_Abort_IT+0x8c>)
    __HAL_UNLOCK(hdma);
 8002e3a:	2400      	movs	r4, #0
    __HAL_DMA_CLEAR_FLAG(hdma, __HAL_DMA_GET_GI_FLAG_INDEX(hdma));
 8002e3c:	6053      	str	r3, [r2, #4]
    hdma->State = HAL_DMA_STATE_READY;
 8002e3e:	2301      	movs	r3, #1
 8002e40:	f880 3021 	strb.w	r3, [r0, #33]	; 0x21
    if(hdma->XferAbortCallback != NULL)
 8002e44:	6b43      	ldr	r3, [r0, #52]	; 0x34
    __HAL_UNLOCK(hdma);
 8002e46:	f880 4020 	strb.w	r4, [r0, #32]
    if(hdma->XferAbortCallback != NULL)
 8002e4a:	b17b      	cbz	r3, 8002e6c <HAL_DMA_Abort_IT+0x84>
      hdma->XferAbortCallback(hdma);
 8002e4c:	4798      	blx	r3
  HAL_StatusTypeDef status = HAL_OK;
 8002e4e:	4620      	mov	r0, r4
 8002e50:	bd10      	pop	{r4, pc}
    __HAL_DMA_CLEAR_FLAG(hdma, __HAL_DMA_GET_GI_FLAG_INDEX(hdma));
 8002e52:	2301      	movs	r3, #1
 8002e54:	e7f0      	b.n	8002e38 <HAL_DMA_Abort_IT+0x50>
 8002e56:	2310      	movs	r3, #16
 8002e58:	e7ee      	b.n	8002e38 <HAL_DMA_Abort_IT+0x50>
 8002e5a:	f44f 7380 	mov.w	r3, #256	; 0x100
 8002e5e:	e7eb      	b.n	8002e38 <HAL_DMA_Abort_IT+0x50>
 8002e60:	f44f 5380 	mov.w	r3, #4096	; 0x1000
 8002e64:	e7e8      	b.n	8002e38 <HAL_DMA_Abort_IT+0x50>
 8002e66:	f44f 3380 	mov.w	r3, #65536	; 0x10000
 8002e6a:	e7e5      	b.n	8002e38 <HAL_DMA_Abort_IT+0x50>
  HAL_StatusTypeDef status = HAL_OK;
 8002e6c:	4618      	mov	r0, r3
}
 8002e6e:	bd10      	pop	{r4, pc}
 8002e70:	40020008 	.word	0x40020008
 8002e74:	40020000 	.word	0x40020000

08002e78 <HAL_DMA_IRQHandler>:
{
 8002e78:	b470      	push	{r4, r5, r6}
  if (((flag_it & (DMA_FLAG_HT1 << hdma->ChannelIndex)) != RESET) && ((source_it & DMA_IT_HT) != RESET))
 8002e7a:	2504      	movs	r5, #4
  uint32_t flag_it = hdma->DmaBaseAddress->ISR;
 8002e7c:	6bc6      	ldr	r6, [r0, #60]	; 0x3c
  if (((flag_it & (DMA_FLAG_HT1 << hdma->ChannelIndex)) != RESET) && ((source_it & DMA_IT_HT) != RESET))
 8002e7e:	6c02      	ldr	r2, [r0, #64]	; 0x40
  uint32_t flag_it = hdma->DmaBaseAddress->ISR;
 8002e80:	6834      	ldr	r4, [r6, #0]
  uint32_t source_it = hdma->Instance->CCR;
 8002e82:	6803      	ldr	r3, [r0, #0]
  if (((flag_it & (DMA_FLAG_HT1 << hdma->ChannelIndex)) != RESET) && ((source_it & DMA_IT_HT) != RESET))
 8002e84:	4095      	lsls	r5, r2
 8002e86:	4225      	tst	r5, r4
  uint32_t source_it = hdma->Instance->CCR;
 8002e88:	6819      	ldr	r1, [r3, #0]
  if (((flag_it & (DMA_FLAG_HT1 << hdma->ChannelIndex)) != RESET) && ((source_it & DMA_IT_HT) != RESET))
 8002e8a:	d032      	beq.n	8002ef2 <HAL_DMA_IRQHandler+0x7a>
 8002e8c:	074d      	lsls	r5, r1, #29
 8002e8e:	d530      	bpl.n	8002ef2 <HAL_DMA_IRQHandler+0x7a>
    if((hdma->Instance->CCR & DMA_CCR_CIRC) == 0U)
 8002e90:	681a      	ldr	r2, [r3, #0]
 8002e92:	0696      	lsls	r6, r2, #26
      __HAL_DMA_DISABLE_IT(hdma, DMA_IT_HT);
 8002e94:	bf5e      	ittt	pl
 8002e96:	681a      	ldrpl	r2, [r3, #0]
 8002e98:	f022 0204 	bicpl.w	r2, r2, #4
 8002e9c:	601a      	strpl	r2, [r3, #0]
    __HAL_DMA_CLEAR_FLAG(hdma, __HAL_DMA_GET_HT_FLAG_INDEX(hdma));
 8002e9e:	4a3e      	ldr	r2, [pc, #248]	; (8002f98 <HAL_DMA_IRQHandler+0x120>)
 8002ea0:	4293      	cmp	r3, r2
 8002ea2:	d019      	beq.n	8002ed8 <HAL_DMA_IRQHandler+0x60>
 8002ea4:	3214      	adds	r2, #20
 8002ea6:	4293      	cmp	r3, r2
 8002ea8:	d018      	beq.n	8002edc <HAL_DMA_IRQHandler+0x64>
 8002eaa:	3214      	adds	r2, #20
 8002eac:	4293      	cmp	r3, r2
 8002eae:	d017      	beq.n	8002ee0 <HAL_DMA_IRQHandler+0x68>
 8002eb0:	3214      	adds	r2, #20
 8002eb2:	4293      	cmp	r3, r2
 8002eb4:	d017      	beq.n	8002ee6 <HAL_DMA_IRQHandler+0x6e>
 8002eb6:	3214      	adds	r2, #20
 8002eb8:	4293      	cmp	r3, r2
 8002eba:	d017      	beq.n	8002eec <HAL_DMA_IRQHandler+0x74>
 8002ebc:	3214      	adds	r2, #20
 8002ebe:	4293      	cmp	r3, r2
 8002ec0:	bf0c      	ite	eq
 8002ec2:	f44f 0380 	moveq.w	r3, #4194304	; 0x400000
 8002ec6:	f04f 6380 	movne.w	r3, #67108864	; 0x4000000
 8002eca:	4a34      	ldr	r2, [pc, #208]	; (8002f9c <HAL_DMA_IRQHandler+0x124>)
 8002ecc:	6053      	str	r3, [r2, #4]
    if(hdma->XferHalfCpltCallback != NULL)
 8002ece:	6ac3      	ldr	r3, [r0, #44]	; 0x2c
    if (hdma->XferErrorCallback != NULL)
 8002ed0:	2b00      	cmp	r3, #0
 8002ed2:	d05e      	beq.n	8002f92 <HAL_DMA_IRQHandler+0x11a>
}
 8002ed4:	bc70      	pop	{r4, r5, r6}
      hdma->XferErrorCallback(hdma);
 8002ed6:	4718      	bx	r3
    __HAL_DMA_CLEAR_FLAG(hdma, __HAL_DMA_GET_HT_FLAG_INDEX(hdma));
 8002ed8:	2304      	movs	r3, #4
 8002eda:	e7f6      	b.n	8002eca <HAL_DMA_IRQHandler+0x52>
 8002edc:	2340      	movs	r3, #64	; 0x40
 8002ede:	e7f4      	b.n	8002eca <HAL_DMA_IRQHandler+0x52>
 8002ee0:	f44f 6380 	mov.w	r3, #1024	; 0x400
 8002ee4:	e7f1      	b.n	8002eca <HAL_DMA_IRQHandler+0x52>
 8002ee6:	f44f 4380 	mov.w	r3, #16384	; 0x4000
 8002eea:	e7ee      	b.n	8002eca <HAL_DMA_IRQHandler+0x52>
 8002eec:	f44f 2380 	mov.w	r3, #262144	; 0x40000
 8002ef0:	e7eb      	b.n	8002eca <HAL_DMA_IRQHandler+0x52>
  else if (((flag_it & (DMA_FLAG_TC1 << hdma->ChannelIndex)) != RESET) && ((source_it & DMA_IT_TC) != RESET))
 8002ef2:	2502      	movs	r5, #2
 8002ef4:	4095      	lsls	r5, r2
 8002ef6:	4225      	tst	r5, r4
 8002ef8:	d035      	beq.n	8002f66 <HAL_DMA_IRQHandler+0xee>
 8002efa:	078d      	lsls	r5, r1, #30
 8002efc:	d533      	bpl.n	8002f66 <HAL_DMA_IRQHandler+0xee>
    if((hdma->Instance->CCR & DMA_CCR_CIRC) == 0U)
 8002efe:	681a      	ldr	r2, [r3, #0]
 8002f00:	0694      	lsls	r4, r2, #26
 8002f02:	d406      	bmi.n	8002f12 <HAL_DMA_IRQHandler+0x9a>
      __HAL_DMA_DISABLE_IT(hdma, DMA_IT_TE | DMA_IT_TC);  
 8002f04:	681a      	ldr	r2, [r3, #0]
 8002f06:	f022 020a 	bic.w	r2, r2, #10
 8002f0a:	601a      	str	r2, [r3, #0]
      hdma->State = HAL_DMA_STATE_READY;
 8002f0c:	2201      	movs	r2, #1
 8002f0e:	f880 2021 	strb.w	r2, [r0, #33]	; 0x21
      __HAL_DMA_CLEAR_FLAG(hdma, __HAL_DMA_GET_TC_FLAG_INDEX(hdma));
 8002f12:	4a21      	ldr	r2, [pc, #132]	; (8002f98 <HAL_DMA_IRQHandler+0x120>)
 8002f14:	4293      	cmp	r3, r2
 8002f16:	d019      	beq.n	8002f4c <HAL_DMA_IRQHandler+0xd4>
 8002f18:	3214      	adds	r2, #20
 8002f1a:	4293      	cmp	r3, r2
 8002f1c:	d018      	beq.n	8002f50 <HAL_DMA_IRQHandler+0xd8>
 8002f1e:	3214      	adds	r2, #20
 8002f20:	4293      	cmp	r3, r2
 8002f22:	d017      	beq.n	8002f54 <HAL_DMA_IRQHandler+0xdc>
 8002f24:	3214      	adds	r2, #20
 8002f26:	4293      	cmp	r3, r2
 8002f28:	d017      	beq.n	8002f5a <HAL_DMA_IRQHandler+0xe2>
 8002f2a:	3214      	adds	r2, #20
 8002f2c:	4293      	cmp	r3, r2
 8002f2e:	d017      	beq.n	8002f60 <HAL_DMA_IRQHandler+0xe8>
 8002f30:	3214      	adds	r2, #20
 8002f32:	4293      	cmp	r3, r2
 8002f34:	bf0c      	ite	eq
 8002f36:	f44f 1300 	moveq.w	r3, #2097152	; 0x200000
 8002f3a:	f04f 7300 	movne.w	r3, #33554432	; 0x2000000
 8002f3e:	4a17      	ldr	r2, [pc, #92]	; (8002f9c <HAL_DMA_IRQHandler+0x124>)
 8002f40:	6053      	str	r3, [r2, #4]
    __HAL_UNLOCK(hdma);
 8002f42:	2300      	movs	r3, #0
 8002f44:	f880 3020 	strb.w	r3, [r0, #32]
    if(hdma->XferCpltCallback != NULL)
 8002f48:	6a83      	ldr	r3, [r0, #40]	; 0x28
 8002f4a:	e7c1      	b.n	8002ed0 <HAL_DMA_IRQHandler+0x58>
      __HAL_DMA_CLEAR_FLAG(hdma, __HAL_DMA_GET_TC_FLAG_INDEX(hdma));
 8002f4c:	2302      	movs	r3, #2
 8002f4e:	e7f6      	b.n	8002f3e <HAL_DMA_IRQHandler+0xc6>
 8002f50:	2320      	movs	r3, #32
 8002f52:	e7f4      	b.n	8002f3e <HAL_DMA_IRQHandler+0xc6>
 8002f54:	f44f 7300 	mov.w	r3, #512	; 0x200
 8002f58:	e7f1      	b.n	8002f3e <HAL_DMA_IRQHandler+0xc6>
 8002f5a:	f44f 5300 	mov.w	r3, #8192	; 0x2000
 8002f5e:	e7ee      	b.n	8002f3e <HAL_DMA_IRQHandler+0xc6>
 8002f60:	f44f 3300 	mov.w	r3, #131072	; 0x20000
 8002f64:	e7eb      	b.n	8002f3e <HAL_DMA_IRQHandler+0xc6>
  else if (( RESET != (flag_it & (DMA_FLAG_TE1 << hdma->ChannelIndex))) && (RESET != (source_it & DMA_IT_TE)))
 8002f66:	2508      	movs	r5, #8
 8002f68:	4095      	lsls	r5, r2
 8002f6a:	4225      	tst	r5, r4
 8002f6c:	d011      	beq.n	8002f92 <HAL_DMA_IRQHandler+0x11a>
 8002f6e:	0709      	lsls	r1, r1, #28
 8002f70:	d50f      	bpl.n	8002f92 <HAL_DMA_IRQHandler+0x11a>
    __HAL_DMA_DISABLE_IT(hdma, (DMA_IT_TC | DMA_IT_HT | DMA_IT_TE));
 8002f72:	6819      	ldr	r1, [r3, #0]
 8002f74:	f021 010e 	bic.w	r1, r1, #14
 8002f78:	6019      	str	r1, [r3, #0]
    hdma->DmaBaseAddress->IFCR = (DMA_ISR_GIF1 << hdma->ChannelIndex);
 8002f7a:	2301      	movs	r3, #1
 8002f7c:	fa03 f202 	lsl.w	r2, r3, r2
 8002f80:	6072      	str	r2, [r6, #4]
    hdma->ErrorCode = HAL_DMA_ERROR_TE;
 8002f82:	6383      	str	r3, [r0, #56]	; 0x38
    hdma->State = HAL_DMA_STATE_READY;
 8002f84:	f880 3021 	strb.w	r3, [r0, #33]	; 0x21
    __HAL_UNLOCK(hdma);
 8002f88:	2300      	movs	r3, #0
 8002f8a:	f880 3020 	strb.w	r3, [r0, #32]
    if (hdma->XferErrorCallback != NULL)
 8002f8e:	6b03      	ldr	r3, [r0, #48]	; 0x30
 8002f90:	e79e      	b.n	8002ed0 <HAL_DMA_IRQHandler+0x58>
}
 8002f92:	bc70      	pop	{r4, r5, r6}
 8002f94:	4770      	bx	lr
 8002f96:	bf00      	nop
 8002f98:	40020008 	.word	0x40020008
 8002f9c:	40020000 	.word	0x40020000

08002fa0 <HAL_GPIO_Init>:
  * @param  GPIO_Init: pointer to a GPIO_InitTypeDef structure that contains
  *         the configuration information for the specified GPIO peripheral.
  * @retval None
  */
void HAL_GPIO_Init(GPIO_TypeDef  *GPIOx, GPIO_InitTypeDef *GPIO_Init)
{
 8002fa0:	e92d 4ff7 	stmdb	sp!, {r0, r1, r2, r4, r5, r6, r7, r8, r9, sl, fp, lr}
  uint32_t position = 0x00u;
  uint32_t ioposition;
  uint32_t iocurrent;
  uint32_t temp;
  uint32_t config = 0x00u;
 8002fa4:	2400      	movs	r4, #0
  uint32_t position = 0x00u;
 8002fa6:	4626      	mov	r6, r4
 8002fa8:	4b66      	ldr	r3, [pc, #408]	; (8003144 <HAL_GPIO_Init+0x1a4>)
    {
      /* Check the Alternate function parameters */
      assert_param(IS_GPIO_AF_INSTANCE(GPIOx));

      /* Based on the required mode, filling config variable with MODEy[1:0] and CNFy[3:2] corresponding bits */
      switch (GPIO_Init->Mode)
 8002faa:	f8df e1a8 	ldr.w	lr, [pc, #424]	; 8003154 <HAL_GPIO_Init+0x1b4>
 8002fae:	f8df c1a8 	ldr.w	ip, [pc, #424]	; 8003158 <HAL_GPIO_Init+0x1b8>
  while (((GPIO_Init->Pin) >> position) != 0x00u)
 8002fb2:	680a      	ldr	r2, [r1, #0]
 8002fb4:	fa32 f506 	lsrs.w	r5, r2, r6
 8002fb8:	d102      	bne.n	8002fc0 <HAL_GPIO_Init+0x20>
      }
    }

	position++;
  }
}
 8002fba:	b003      	add	sp, #12
 8002fbc:	e8bd 8ff0 	ldmia.w	sp!, {r4, r5, r6, r7, r8, r9, sl, fp, pc}
    ioposition = (0x01uL << position);
 8002fc0:	f04f 0801 	mov.w	r8, #1
 8002fc4:	fa08 f806 	lsl.w	r8, r8, r6
    iocurrent = (uint32_t)(GPIO_Init->Pin) & ioposition;
 8002fc8:	ea02 0208 	and.w	r2, r2, r8
    if (iocurrent == ioposition)
 8002fcc:	4590      	cmp	r8, r2
 8002fce:	d17f      	bne.n	80030d0 <HAL_GPIO_Init+0x130>
      switch (GPIO_Init->Mode)
 8002fd0:	684d      	ldr	r5, [r1, #4]
 8002fd2:	2d12      	cmp	r5, #18
 8002fd4:	f000 80aa 	beq.w	800312c <HAL_GPIO_Init+0x18c>
 8002fd8:	f200 8083 	bhi.w	80030e2 <HAL_GPIO_Init+0x142>
 8002fdc:	2d02      	cmp	r5, #2
 8002fde:	f000 80a2 	beq.w	8003126 <HAL_GPIO_Init+0x186>
 8002fe2:	d877      	bhi.n	80030d4 <HAL_GPIO_Init+0x134>
 8002fe4:	2d00      	cmp	r5, #0
 8002fe6:	f000 8089 	beq.w	80030fc <HAL_GPIO_Init+0x15c>
 8002fea:	2d01      	cmp	r5, #1
 8002fec:	f000 8099 	beq.w	8003122 <HAL_GPIO_Init+0x182>
      MODIFY_REG((*configregister), ((GPIO_CRL_MODE0 | GPIO_CRL_CNF0) << registeroffset), (config << registeroffset));
 8002ff0:	f04f 090f 	mov.w	r9, #15
      configregister = (iocurrent < GPIO_PIN_8) ? &GPIOx->CRL     : &GPIOx->CRH;
 8002ff4:	2aff      	cmp	r2, #255	; 0xff
 8002ff6:	bf93      	iteet	ls
 8002ff8:	4682      	movls	sl, r0
 8002ffa:	f106 4580 	addhi.w	r5, r6, #1073741824	; 0x40000000
 8002ffe:	3d08      	subhi	r5, #8
 8003000:	f8d0 b000 	ldrls.w	fp, [r0]
 8003004:	bf92      	itee	ls
 8003006:	00b5      	lslls	r5, r6, #2
 8003008:	f8d0 b004 	ldrhi.w	fp, [r0, #4]
 800300c:	00ad      	lslhi	r5, r5, #2
      MODIFY_REG((*configregister), ((GPIO_CRL_MODE0 | GPIO_CRL_CNF0) << registeroffset), (config << registeroffset));
 800300e:	fa09 f805 	lsl.w	r8, r9, r5
 8003012:	ea2b 0808 	bic.w	r8, fp, r8
 8003016:	fa04 f505 	lsl.w	r5, r4, r5
      configregister = (iocurrent < GPIO_PIN_8) ? &GPIOx->CRL     : &GPIOx->CRH;
 800301a:	bf88      	it	hi
 800301c:	f100 0a04 	addhi.w	sl, r0, #4
      MODIFY_REG((*configregister), ((GPIO_CRL_MODE0 | GPIO_CRL_CNF0) << registeroffset), (config << registeroffset));
 8003020:	ea48 0505 	orr.w	r5, r8, r5
 8003024:	f8ca 5000 	str.w	r5, [sl]
      if ((GPIO_Init->Mode & EXTI_MODE) == EXTI_MODE)
 8003028:	f8d1 a004 	ldr.w	sl, [r1, #4]
 800302c:	f01a 5f80 	tst.w	sl, #268435456	; 0x10000000
 8003030:	d04e      	beq.n	80030d0 <HAL_GPIO_Init+0x130>
        __HAL_RCC_AFIO_CLK_ENABLE();
 8003032:	4d45      	ldr	r5, [pc, #276]	; (8003148 <HAL_GPIO_Init+0x1a8>)
 8003034:	4f44      	ldr	r7, [pc, #272]	; (8003148 <HAL_GPIO_Init+0x1a8>)
 8003036:	69ad      	ldr	r5, [r5, #24]
 8003038:	f026 0803 	bic.w	r8, r6, #3
 800303c:	f045 0501 	orr.w	r5, r5, #1
 8003040:	61bd      	str	r5, [r7, #24]
 8003042:	69bd      	ldr	r5, [r7, #24]
 8003044:	f108 4880 	add.w	r8, r8, #1073741824	; 0x40000000
 8003048:	f005 0501 	and.w	r5, r5, #1
 800304c:	9501      	str	r5, [sp, #4]
 800304e:	f508 3880 	add.w	r8, r8, #65536	; 0x10000
        CLEAR_BIT(temp, (0x0Fu) << (4u * (position & 0x03u)));
 8003052:	f006 0b03 	and.w	fp, r6, #3
        __HAL_RCC_AFIO_CLK_ENABLE();
 8003056:	9d01      	ldr	r5, [sp, #4]
        CLEAR_BIT(temp, (0x0Fu) << (4u * (position & 0x03u)));
 8003058:	ea4f 0b8b 	mov.w	fp, fp, lsl #2
        temp = AFIO->EXTICR[position >> 2u];
 800305c:	f8d8 5008 	ldr.w	r5, [r8, #8]
        CLEAR_BIT(temp, (0x0Fu) << (4u * (position & 0x03u)));
 8003060:	fa09 f90b 	lsl.w	r9, r9, fp
 8003064:	ea25 0909 	bic.w	r9, r5, r9
        SET_BIT(temp, (GPIO_GET_INDEX(GPIOx)) << (4u * (position & 0x03u)));
 8003068:	4d38      	ldr	r5, [pc, #224]	; (800314c <HAL_GPIO_Init+0x1ac>)
 800306a:	42a8      	cmp	r0, r5
 800306c:	d063      	beq.n	8003136 <HAL_GPIO_Init+0x196>
 800306e:	f505 6580 	add.w	r5, r5, #1024	; 0x400
 8003072:	42a8      	cmp	r0, r5
 8003074:	d061      	beq.n	800313a <HAL_GPIO_Init+0x19a>
 8003076:	f505 6580 	add.w	r5, r5, #1024	; 0x400
 800307a:	42a8      	cmp	r0, r5
 800307c:	d05f      	beq.n	800313e <HAL_GPIO_Init+0x19e>
 800307e:	f505 6580 	add.w	r5, r5, #1024	; 0x400
 8003082:	42a8      	cmp	r0, r5
 8003084:	bf0c      	ite	eq
 8003086:	2503      	moveq	r5, #3
 8003088:	2504      	movne	r5, #4
 800308a:	fa05 f50b 	lsl.w	r5, r5, fp
 800308e:	ea45 0509 	orr.w	r5, r5, r9
        AFIO->EXTICR[position >> 2u] = temp;
 8003092:	f8c8 5008 	str.w	r5, [r8, #8]
          SET_BIT(EXTI->IMR, iocurrent);
 8003096:	681d      	ldr	r5, [r3, #0]
        if ((GPIO_Init->Mode & GPIO_MODE_IT) == GPIO_MODE_IT)
 8003098:	f41a 3f80 	tst.w	sl, #65536	; 0x10000
          SET_BIT(EXTI->IMR, iocurrent);
 800309c:	bf14      	ite	ne
 800309e:	4315      	orrne	r5, r2
          CLEAR_BIT(EXTI->IMR, iocurrent);
 80030a0:	4395      	biceq	r5, r2
 80030a2:	601d      	str	r5, [r3, #0]
          SET_BIT(EXTI->EMR, iocurrent);
 80030a4:	685d      	ldr	r5, [r3, #4]
        if ((GPIO_Init->Mode & GPIO_MODE_EVT) == GPIO_MODE_EVT)
 80030a6:	f41a 3f00 	tst.w	sl, #131072	; 0x20000
          SET_BIT(EXTI->EMR, iocurrent);
 80030aa:	bf14      	ite	ne
 80030ac:	4315      	orrne	r5, r2
          CLEAR_BIT(EXTI->EMR, iocurrent);
 80030ae:	4395      	biceq	r5, r2
 80030b0:	605d      	str	r5, [r3, #4]
          SET_BIT(EXTI->RTSR, iocurrent);
 80030b2:	689d      	ldr	r5, [r3, #8]
        if ((GPIO_Init->Mode & RISING_EDGE) == RISING_EDGE)
 80030b4:	f41a 1f80 	tst.w	sl, #1048576	; 0x100000
          SET_BIT(EXTI->RTSR, iocurrent);
 80030b8:	bf14      	ite	ne
 80030ba:	4315      	orrne	r5, r2
          CLEAR_BIT(EXTI->RTSR, iocurrent);
 80030bc:	4395      	biceq	r5, r2
 80030be:	609d      	str	r5, [r3, #8]
          SET_BIT(EXTI->FTSR, iocurrent);
 80030c0:	68dd      	ldr	r5, [r3, #12]
        if ((GPIO_Init->Mode & FALLING_EDGE) == FALLING_EDGE)
 80030c2:	f41a 1f00 	tst.w	sl, #2097152	; 0x200000
          SET_BIT(EXTI->FTSR, iocurrent);
 80030c6:	bf14      	ite	ne
 80030c8:	432a      	orrne	r2, r5
          CLEAR_BIT(EXTI->FTSR, iocurrent);
 80030ca:	ea25 0202 	biceq.w	r2, r5, r2
 80030ce:	60da      	str	r2, [r3, #12]
	position++;
 80030d0:	3601      	adds	r6, #1
 80030d2:	e76e      	b.n	8002fb2 <HAL_GPIO_Init+0x12>
      switch (GPIO_Init->Mode)
 80030d4:	2d03      	cmp	r5, #3
 80030d6:	d022      	beq.n	800311e <HAL_GPIO_Init+0x17e>
 80030d8:	2d11      	cmp	r5, #17
 80030da:	d189      	bne.n	8002ff0 <HAL_GPIO_Init+0x50>
          config = GPIO_Init->Speed + GPIO_CR_CNF_GP_OUTPUT_OD;
 80030dc:	68cc      	ldr	r4, [r1, #12]
 80030de:	3404      	adds	r4, #4
          break;
 80030e0:	e786      	b.n	8002ff0 <HAL_GPIO_Init+0x50>
      switch (GPIO_Init->Mode)
 80030e2:	4f1b      	ldr	r7, [pc, #108]	; (8003150 <HAL_GPIO_Init+0x1b0>)
 80030e4:	42bd      	cmp	r5, r7
 80030e6:	d009      	beq.n	80030fc <HAL_GPIO_Init+0x15c>
 80030e8:	d812      	bhi.n	8003110 <HAL_GPIO_Init+0x170>
 80030ea:	f8df 9070 	ldr.w	r9, [pc, #112]	; 800315c <HAL_GPIO_Init+0x1bc>
 80030ee:	454d      	cmp	r5, r9
 80030f0:	d004      	beq.n	80030fc <HAL_GPIO_Init+0x15c>
 80030f2:	f509 3980 	add.w	r9, r9, #65536	; 0x10000
 80030f6:	454d      	cmp	r5, r9
 80030f8:	f47f af7a 	bne.w	8002ff0 <HAL_GPIO_Init+0x50>
          if (GPIO_Init->Pull == GPIO_NOPULL)
 80030fc:	688c      	ldr	r4, [r1, #8]
 80030fe:	b1c4      	cbz	r4, 8003132 <HAL_GPIO_Init+0x192>
          else if (GPIO_Init->Pull == GPIO_PULLUP)
 8003100:	2c01      	cmp	r4, #1
            GPIOx->BSRR = ioposition;
 8003102:	bf0c      	ite	eq
 8003104:	f8c0 8010 	streq.w	r8, [r0, #16]
            GPIOx->BRR = ioposition;
 8003108:	f8c0 8014 	strne.w	r8, [r0, #20]
            config = GPIO_CR_MODE_INPUT + GPIO_CR_CNF_INPUT_PU_PD;
 800310c:	2408      	movs	r4, #8
 800310e:	e76f      	b.n	8002ff0 <HAL_GPIO_Init+0x50>
      switch (GPIO_Init->Mode)
 8003110:	4575      	cmp	r5, lr
 8003112:	d0f3      	beq.n	80030fc <HAL_GPIO_Init+0x15c>
 8003114:	4565      	cmp	r5, ip
 8003116:	d0f1      	beq.n	80030fc <HAL_GPIO_Init+0x15c>
 8003118:	f8df 9044 	ldr.w	r9, [pc, #68]	; 8003160 <HAL_GPIO_Init+0x1c0>
 800311c:	e7eb      	b.n	80030f6 <HAL_GPIO_Init+0x156>
          config = GPIO_CR_MODE_INPUT + GPIO_CR_CNF_ANALOG;
 800311e:	2400      	movs	r4, #0
 8003120:	e766      	b.n	8002ff0 <HAL_GPIO_Init+0x50>
          config = GPIO_Init->Speed + GPIO_CR_CNF_GP_OUTPUT_PP;
 8003122:	68cc      	ldr	r4, [r1, #12]
          break;
 8003124:	e764      	b.n	8002ff0 <HAL_GPIO_Init+0x50>
          config = GPIO_Init->Speed + GPIO_CR_CNF_AF_OUTPUT_PP;
 8003126:	68cc      	ldr	r4, [r1, #12]
 8003128:	3408      	adds	r4, #8
          break;
 800312a:	e761      	b.n	8002ff0 <HAL_GPIO_Init+0x50>
          config = GPIO_Init->Speed + GPIO_CR_CNF_AF_OUTPUT_OD;
 800312c:	68cc      	ldr	r4, [r1, #12]
 800312e:	340c      	adds	r4, #12
          break;
 8003130:	e75e      	b.n	8002ff0 <HAL_GPIO_Init+0x50>
            config = GPIO_CR_MODE_INPUT + GPIO_CR_CNF_INPUT_FLOATING;
 8003132:	2404      	movs	r4, #4
 8003134:	e75c      	b.n	8002ff0 <HAL_GPIO_Init+0x50>
        SET_BIT(temp, (GPIO_GET_INDEX(GPIOx)) << (4u * (position & 0x03u)));
 8003136:	2500      	movs	r5, #0
 8003138:	e7a7      	b.n	800308a <HAL_GPIO_Init+0xea>
 800313a:	2501      	movs	r5, #1
 800313c:	e7a5      	b.n	800308a <HAL_GPIO_Init+0xea>
 800313e:	2502      	movs	r5, #2
 8003140:	e7a3      	b.n	800308a <HAL_GPIO_Init+0xea>
 8003142:	bf00      	nop
 8003144:	40010400 	.word	0x40010400
 8003148:	40021000 	.word	0x40021000
 800314c:	40010800 	.word	0x40010800
 8003150:	10210000 	.word	0x10210000
 8003154:	10310000 	.word	0x10310000
 8003158:	10320000 	.word	0x10320000
 800315c:	10110000 	.word	0x10110000
 8003160:	10220000 	.word	0x10220000

08003164 <HAL_GPIO_WritePin>:
{
  /* Check the parameters */
  assert_param(IS_GPIO_PIN(GPIO_Pin));
  assert_param(IS_GPIO_PIN_ACTION(PinState));

  if (PinState != GPIO_PIN_RESET)
 8003164:	b10a      	cbz	r2, 800316a <HAL_GPIO_WritePin+0x6>
  {
    GPIOx->BSRR = GPIO_Pin;
  }
  else
  {
    GPIOx->BSRR = (uint32_t)GPIO_Pin << 16u;
 8003166:	6101      	str	r1, [r0, #16]
 8003168:	4770      	bx	lr
 800316a:	0409      	lsls	r1, r1, #16
 800316c:	e7fb      	b.n	8003166 <HAL_GPIO_WritePin+0x2>

0800316e <HAL_GPIO_TogglePin>:

  /* Check the parameters */
  assert_param(IS_GPIO_PIN(GPIO_Pin));

  /* get current Ouput Data Register value */
  odr = GPIOx->ODR;
 800316e:	68c3      	ldr	r3, [r0, #12]

  /* Set selected pins that were at low level, and reset ones that were high */
  GPIOx->BSRR = ((odr & GPIO_Pin) << GPIO_NUMBER) | (~odr & GPIO_Pin);
 8003170:	ea03 0201 	and.w	r2, r3, r1
 8003174:	ea21 0103 	bic.w	r1, r1, r3
 8003178:	ea41 4102 	orr.w	r1, r1, r2, lsl #16
 800317c:	6101      	str	r1, [r0, #16]
 800317e:	4770      	bx	lr

08003180 <HAL_GPIO_EXTI_Callback>:
  * @brief  EXTI line detection callbacks.
  * @param  GPIO_Pin: Specifies the pins connected EXTI line
  * @retval None
  */
__weak void HAL_GPIO_EXTI_Callback(uint16_t GPIO_Pin)
{
 8003180:	4770      	bx	lr
	...

08003184 <HAL_GPIO_EXTI_IRQHandler>:
{
 8003184:	b508      	push	{r3, lr}
  if (__HAL_GPIO_EXTI_GET_IT(GPIO_Pin) != 0x00u)
 8003186:	4b04      	ldr	r3, [pc, #16]	; (8003198 <HAL_GPIO_EXTI_IRQHandler+0x14>)
 8003188:	6959      	ldr	r1, [r3, #20]
 800318a:	4201      	tst	r1, r0
 800318c:	d002      	beq.n	8003194 <HAL_GPIO_EXTI_IRQHandler+0x10>
    __HAL_GPIO_EXTI_CLEAR_IT(GPIO_Pin);
 800318e:	6158      	str	r0, [r3, #20]
    HAL_GPIO_EXTI_Callback(GPIO_Pin);
 8003190:	f7ff fff6 	bl	8003180 <HAL_GPIO_EXTI_Callback>
 8003194:	bd08      	pop	{r3, pc}
 8003196:	bf00      	nop
 8003198:	40010400 	.word	0x40010400

0800319c <HAL_RCC_OscConfig>:
  *         supported by this macro. User should request a transition to HSE Off
  *         first and then HSE On or HSE Bypass.
  * @retval HAL status
  */
HAL_StatusTypeDef HAL_RCC_OscConfig(RCC_OscInitTypeDef  *RCC_OscInitStruct)
{
 800319c:	e92d 41f3 	stmdb	sp!, {r0, r1, r4, r5, r6, r7, r8, lr}
  uint32_t tickstart;
  uint32_t pll_config;

  /* Check Null pointer */
  if (RCC_OscInitStruct == NULL)
 80031a0:	4605      	mov	r5, r0
 80031a2:	b908      	cbnz	r0, 80031a8 <HAL_RCC_OscConfig+0xc>
    else
    {
      /* Check if there is a request to disable the PLL used as System clock source */
      if ((RCC_OscInitStruct->PLL.PLLState) == RCC_PLL_OFF)
      {
        return HAL_ERROR;
 80031a4:	2001      	movs	r0, #1
 80031a6:	e03c      	b.n	8003222 <HAL_RCC_OscConfig+0x86>
  if (((RCC_OscInitStruct->OscillatorType) & RCC_OSCILLATORTYPE_HSE) == RCC_OSCILLATORTYPE_HSE)
 80031a8:	6803      	ldr	r3, [r0, #0]
 80031aa:	07db      	lsls	r3, r3, #31
 80031ac:	d410      	bmi.n	80031d0 <HAL_RCC_OscConfig+0x34>
  if (((RCC_OscInitStruct->OscillatorType) & RCC_OSCILLATORTYPE_HSI) == RCC_OSCILLATORTYPE_HSI)
 80031ae:	682b      	ldr	r3, [r5, #0]
 80031b0:	079f      	lsls	r7, r3, #30
 80031b2:	d45d      	bmi.n	8003270 <HAL_RCC_OscConfig+0xd4>
  if (((RCC_OscInitStruct->OscillatorType) & RCC_OSCILLATORTYPE_LSI) == RCC_OSCILLATORTYPE_LSI)
 80031b4:	682b      	ldr	r3, [r5, #0]
 80031b6:	0719      	lsls	r1, r3, #28
 80031b8:	f100 8094 	bmi.w	80032e4 <HAL_RCC_OscConfig+0x148>
  if (((RCC_OscInitStruct->OscillatorType) & RCC_OSCILLATORTYPE_LSE) == RCC_OSCILLATORTYPE_LSE)
 80031bc:	682b      	ldr	r3, [r5, #0]
 80031be:	075a      	lsls	r2, r3, #29
 80031c0:	f100 80be 	bmi.w	8003340 <HAL_RCC_OscConfig+0x1a4>
  if ((RCC_OscInitStruct->PLL.PLLState) != RCC_PLL_NONE)
 80031c4:	69e8      	ldr	r0, [r5, #28]
 80031c6:	2800      	cmp	r0, #0
 80031c8:	f040 812c 	bne.w	8003424 <HAL_RCC_OscConfig+0x288>
        }
      }
    }
  }

  return HAL_OK;
 80031cc:	2000      	movs	r0, #0
 80031ce:	e028      	b.n	8003222 <HAL_RCC_OscConfig+0x86>
    if ((__HAL_RCC_GET_SYSCLK_SOURCE() == RCC_SYSCLKSOURCE_STATUS_HSE)
 80031d0:	4c8f      	ldr	r4, [pc, #572]	; (8003410 <HAL_RCC_OscConfig+0x274>)
 80031d2:	6863      	ldr	r3, [r4, #4]
 80031d4:	f003 030c 	and.w	r3, r3, #12
 80031d8:	2b04      	cmp	r3, #4
 80031da:	d007      	beq.n	80031ec <HAL_RCC_OscConfig+0x50>
        || ((__HAL_RCC_GET_SYSCLK_SOURCE() == RCC_SYSCLKSOURCE_STATUS_PLLCLK) && (__HAL_RCC_GET_PLL_OSCSOURCE() == RCC_PLLSOURCE_HSE)))
 80031dc:	6863      	ldr	r3, [r4, #4]
 80031de:	f003 030c 	and.w	r3, r3, #12
 80031e2:	2b08      	cmp	r3, #8
 80031e4:	d109      	bne.n	80031fa <HAL_RCC_OscConfig+0x5e>
 80031e6:	6863      	ldr	r3, [r4, #4]
 80031e8:	03de      	lsls	r6, r3, #15
 80031ea:	d506      	bpl.n	80031fa <HAL_RCC_OscConfig+0x5e>
      if ((__HAL_RCC_GET_FLAG(RCC_FLAG_HSERDY) != RESET) && (RCC_OscInitStruct->HSEState == RCC_HSE_OFF))
 80031ec:	6823      	ldr	r3, [r4, #0]
 80031ee:	039c      	lsls	r4, r3, #14
 80031f0:	d5dd      	bpl.n	80031ae <HAL_RCC_OscConfig+0x12>
 80031f2:	686b      	ldr	r3, [r5, #4]
 80031f4:	2b00      	cmp	r3, #0
 80031f6:	d1da      	bne.n	80031ae <HAL_RCC_OscConfig+0x12>
 80031f8:	e7d4      	b.n	80031a4 <HAL_RCC_OscConfig+0x8>
      __HAL_RCC_HSE_CONFIG(RCC_OscInitStruct->HSEState);
 80031fa:	686b      	ldr	r3, [r5, #4]
 80031fc:	f5b3 3f80 	cmp.w	r3, #65536	; 0x10000
 8003200:	d112      	bne.n	8003228 <HAL_RCC_OscConfig+0x8c>
 8003202:	6823      	ldr	r3, [r4, #0]
 8003204:	f443 3380 	orr.w	r3, r3, #65536	; 0x10000
 8003208:	6023      	str	r3, [r4, #0]
        tickstart = HAL_GetTick();
 800320a:	f7ff fa9b 	bl	8002744 <HAL_GetTick>
 800320e:	4606      	mov	r6, r0
        while (__HAL_RCC_GET_FLAG(RCC_FLAG_HSERDY) == RESET)
 8003210:	6823      	ldr	r3, [r4, #0]
 8003212:	0398      	lsls	r0, r3, #14
 8003214:	d4cb      	bmi.n	80031ae <HAL_RCC_OscConfig+0x12>
          if ((HAL_GetTick() - tickstart) > HSE_TIMEOUT_VALUE)
 8003216:	f7ff fa95 	bl	8002744 <HAL_GetTick>
 800321a:	1b80      	subs	r0, r0, r6
 800321c:	2864      	cmp	r0, #100	; 0x64
 800321e:	d9f7      	bls.n	8003210 <HAL_RCC_OscConfig+0x74>
            return HAL_TIMEOUT;
 8003220:	2003      	movs	r0, #3
}
 8003222:	b002      	add	sp, #8
 8003224:	e8bd 81f0 	ldmia.w	sp!, {r4, r5, r6, r7, r8, pc}
      __HAL_RCC_HSE_CONFIG(RCC_OscInitStruct->HSEState);
 8003228:	b99b      	cbnz	r3, 8003252 <HAL_RCC_OscConfig+0xb6>
 800322a:	6823      	ldr	r3, [r4, #0]
 800322c:	f423 3380 	bic.w	r3, r3, #65536	; 0x10000
 8003230:	6023      	str	r3, [r4, #0]
 8003232:	6823      	ldr	r3, [r4, #0]
 8003234:	f423 2380 	bic.w	r3, r3, #262144	; 0x40000
 8003238:	6023      	str	r3, [r4, #0]
        tickstart = HAL_GetTick();
 800323a:	f7ff fa83 	bl	8002744 <HAL_GetTick>
 800323e:	4606      	mov	r6, r0
        while (__HAL_RCC_GET_FLAG(RCC_FLAG_HSERDY) != RESET)
 8003240:	6823      	ldr	r3, [r4, #0]
 8003242:	0399      	lsls	r1, r3, #14
 8003244:	d5b3      	bpl.n	80031ae <HAL_RCC_OscConfig+0x12>
          if ((HAL_GetTick() - tickstart) > HSE_TIMEOUT_VALUE)
 8003246:	f7ff fa7d 	bl	8002744 <HAL_GetTick>
 800324a:	1b80      	subs	r0, r0, r6
 800324c:	2864      	cmp	r0, #100	; 0x64
 800324e:	d9f7      	bls.n	8003240 <HAL_RCC_OscConfig+0xa4>
 8003250:	e7e6      	b.n	8003220 <HAL_RCC_OscConfig+0x84>
      __HAL_RCC_HSE_CONFIG(RCC_OscInitStruct->HSEState);
 8003252:	f5b3 2fa0 	cmp.w	r3, #327680	; 0x50000
 8003256:	6823      	ldr	r3, [r4, #0]
 8003258:	d103      	bne.n	8003262 <HAL_RCC_OscConfig+0xc6>
 800325a:	f443 2380 	orr.w	r3, r3, #262144	; 0x40000
 800325e:	6023      	str	r3, [r4, #0]
 8003260:	e7cf      	b.n	8003202 <HAL_RCC_OscConfig+0x66>
 8003262:	f423 3380 	bic.w	r3, r3, #65536	; 0x10000
 8003266:	6023      	str	r3, [r4, #0]
 8003268:	6823      	ldr	r3, [r4, #0]
 800326a:	f423 2380 	bic.w	r3, r3, #262144	; 0x40000
 800326e:	e7cb      	b.n	8003208 <HAL_RCC_OscConfig+0x6c>
    if ((__HAL_RCC_GET_SYSCLK_SOURCE() == RCC_SYSCLKSOURCE_STATUS_HSI)
 8003270:	4c67      	ldr	r4, [pc, #412]	; (8003410 <HAL_RCC_OscConfig+0x274>)
 8003272:	6863      	ldr	r3, [r4, #4]
 8003274:	f013 0f0c 	tst.w	r3, #12
 8003278:	d007      	beq.n	800328a <HAL_RCC_OscConfig+0xee>
        || ((__HAL_RCC_GET_SYSCLK_SOURCE() == RCC_SYSCLKSOURCE_STATUS_PLLCLK) && (__HAL_RCC_GET_PLL_OSCSOURCE() == RCC_PLLSOURCE_HSI_DIV2)))
 800327a:	6863      	ldr	r3, [r4, #4]
 800327c:	f003 030c 	and.w	r3, r3, #12
 8003280:	2b08      	cmp	r3, #8
 8003282:	d110      	bne.n	80032a6 <HAL_RCC_OscConfig+0x10a>
 8003284:	6863      	ldr	r3, [r4, #4]
 8003286:	03da      	lsls	r2, r3, #15
 8003288:	d40d      	bmi.n	80032a6 <HAL_RCC_OscConfig+0x10a>
      if ((__HAL_RCC_GET_FLAG(RCC_FLAG_HSIRDY) != RESET) && (RCC_OscInitStruct->HSIState != RCC_HSI_ON))
 800328a:	6823      	ldr	r3, [r4, #0]
 800328c:	079b      	lsls	r3, r3, #30
 800328e:	d502      	bpl.n	8003296 <HAL_RCC_OscConfig+0xfa>
 8003290:	692b      	ldr	r3, [r5, #16]
 8003292:	2b01      	cmp	r3, #1
 8003294:	d186      	bne.n	80031a4 <HAL_RCC_OscConfig+0x8>
        __HAL_RCC_HSI_CALIBRATIONVALUE_ADJUST(RCC_OscInitStruct->HSICalibrationValue);
 8003296:	6823      	ldr	r3, [r4, #0]
 8003298:	696a      	ldr	r2, [r5, #20]
 800329a:	f023 03f8 	bic.w	r3, r3, #248	; 0xf8
 800329e:	ea43 03c2 	orr.w	r3, r3, r2, lsl #3
 80032a2:	6023      	str	r3, [r4, #0]
 80032a4:	e786      	b.n	80031b4 <HAL_RCC_OscConfig+0x18>
      if (RCC_OscInitStruct->HSIState != RCC_HSI_OFF)
 80032a6:	692a      	ldr	r2, [r5, #16]
 80032a8:	4b5a      	ldr	r3, [pc, #360]	; (8003414 <HAL_RCC_OscConfig+0x278>)
 80032aa:	b16a      	cbz	r2, 80032c8 <HAL_RCC_OscConfig+0x12c>
        __HAL_RCC_HSI_ENABLE();
 80032ac:	2201      	movs	r2, #1
 80032ae:	601a      	str	r2, [r3, #0]
        tickstart = HAL_GetTick();
 80032b0:	f7ff fa48 	bl	8002744 <HAL_GetTick>
 80032b4:	4606      	mov	r6, r0
        while (__HAL_RCC_GET_FLAG(RCC_FLAG_HSIRDY) == RESET)
 80032b6:	6823      	ldr	r3, [r4, #0]
 80032b8:	079f      	lsls	r7, r3, #30
 80032ba:	d4ec      	bmi.n	8003296 <HAL_RCC_OscConfig+0xfa>
          if ((HAL_GetTick() - tickstart) > HSI_TIMEOUT_VALUE)
 80032bc:	f7ff fa42 	bl	8002744 <HAL_GetTick>
 80032c0:	1b80      	subs	r0, r0, r6
 80032c2:	2802      	cmp	r0, #2
 80032c4:	d9f7      	bls.n	80032b6 <HAL_RCC_OscConfig+0x11a>
 80032c6:	e7ab      	b.n	8003220 <HAL_RCC_OscConfig+0x84>
        __HAL_RCC_HSI_DISABLE();
 80032c8:	601a      	str	r2, [r3, #0]
        tickstart = HAL_GetTick();
 80032ca:	f7ff fa3b 	bl	8002744 <HAL_GetTick>
 80032ce:	4606      	mov	r6, r0
        while (__HAL_RCC_GET_FLAG(RCC_FLAG_HSIRDY) != RESET)
 80032d0:	6823      	ldr	r3, [r4, #0]
 80032d2:	0798      	lsls	r0, r3, #30
 80032d4:	f57f af6e 	bpl.w	80031b4 <HAL_RCC_OscConfig+0x18>
          if ((HAL_GetTick() - tickstart) > HSI_TIMEOUT_VALUE)
 80032d8:	f7ff fa34 	bl	8002744 <HAL_GetTick>
 80032dc:	1b80      	subs	r0, r0, r6
 80032de:	2802      	cmp	r0, #2
 80032e0:	d9f6      	bls.n	80032d0 <HAL_RCC_OscConfig+0x134>
 80032e2:	e79d      	b.n	8003220 <HAL_RCC_OscConfig+0x84>
    if (RCC_OscInitStruct->LSIState != RCC_LSI_OFF)
 80032e4:	69aa      	ldr	r2, [r5, #24]
 80032e6:	4c4a      	ldr	r4, [pc, #296]	; (8003410 <HAL_RCC_OscConfig+0x274>)
 80032e8:	4b4b      	ldr	r3, [pc, #300]	; (8003418 <HAL_RCC_OscConfig+0x27c>)
 80032ea:	b1da      	cbz	r2, 8003324 <HAL_RCC_OscConfig+0x188>
      __HAL_RCC_LSI_ENABLE();
 80032ec:	2201      	movs	r2, #1
 80032ee:	601a      	str	r2, [r3, #0]
      tickstart = HAL_GetTick();
 80032f0:	f7ff fa28 	bl	8002744 <HAL_GetTick>
 80032f4:	4606      	mov	r6, r0
      while (__HAL_RCC_GET_FLAG(RCC_FLAG_LSIRDY) == RESET)
 80032f6:	6a63      	ldr	r3, [r4, #36]	; 0x24
 80032f8:	079b      	lsls	r3, r3, #30
 80032fa:	d50d      	bpl.n	8003318 <HAL_RCC_OscConfig+0x17c>
  * @param  mdelay: specifies the delay time length, in milliseconds.
  * @retval None
  */
static void RCC_Delay(uint32_t mdelay)
{
  __IO uint32_t Delay = mdelay * (SystemCoreClock / 8U / 1000U);
 80032fc:	f44f 52fa 	mov.w	r2, #8000	; 0x1f40
 8003300:	4b46      	ldr	r3, [pc, #280]	; (800341c <HAL_RCC_OscConfig+0x280>)
 8003302:	681b      	ldr	r3, [r3, #0]
 8003304:	fbb3 f3f2 	udiv	r3, r3, r2
 8003308:	9301      	str	r3, [sp, #4]
  do
  {
    __NOP();
 800330a:	bf00      	nop
  }
  while (Delay --);
 800330c:	9b01      	ldr	r3, [sp, #4]
 800330e:	1e5a      	subs	r2, r3, #1
 8003310:	9201      	str	r2, [sp, #4]
 8003312:	2b00      	cmp	r3, #0
 8003314:	d1f9      	bne.n	800330a <HAL_RCC_OscConfig+0x16e>
 8003316:	e751      	b.n	80031bc <HAL_RCC_OscConfig+0x20>
        if ((HAL_GetTick() - tickstart) > LSI_TIMEOUT_VALUE)
 8003318:	f7ff fa14 	bl	8002744 <HAL_GetTick>
 800331c:	1b80      	subs	r0, r0, r6
 800331e:	2802      	cmp	r0, #2
 8003320:	d9e9      	bls.n	80032f6 <HAL_RCC_OscConfig+0x15a>
 8003322:	e77d      	b.n	8003220 <HAL_RCC_OscConfig+0x84>
      __HAL_RCC_LSI_DISABLE();
 8003324:	601a      	str	r2, [r3, #0]
      tickstart = HAL_GetTick();
 8003326:	f7ff fa0d 	bl	8002744 <HAL_GetTick>
 800332a:	4606      	mov	r6, r0
      while (__HAL_RCC_GET_FLAG(RCC_FLAG_LSIRDY) != RESET)
 800332c:	6a63      	ldr	r3, [r4, #36]	; 0x24
 800332e:	079f      	lsls	r7, r3, #30
 8003330:	f57f af44 	bpl.w	80031bc <HAL_RCC_OscConfig+0x20>
        if ((HAL_GetTick() - tickstart) > LSI_TIMEOUT_VALUE)
 8003334:	f7ff fa06 	bl	8002744 <HAL_GetTick>
 8003338:	1b80      	subs	r0, r0, r6
 800333a:	2802      	cmp	r0, #2
 800333c:	d9f6      	bls.n	800332c <HAL_RCC_OscConfig+0x190>
 800333e:	e76f      	b.n	8003220 <HAL_RCC_OscConfig+0x84>
    if (__HAL_RCC_PWR_IS_CLK_DISABLED())
 8003340:	4c33      	ldr	r4, [pc, #204]	; (8003410 <HAL_RCC_OscConfig+0x274>)
 8003342:	69e3      	ldr	r3, [r4, #28]
 8003344:	00d8      	lsls	r0, r3, #3
 8003346:	d424      	bmi.n	8003392 <HAL_RCC_OscConfig+0x1f6>
      pwrclkchanged = SET;
 8003348:	2701      	movs	r7, #1
      __HAL_RCC_PWR_CLK_ENABLE();
 800334a:	69e3      	ldr	r3, [r4, #28]
 800334c:	f043 5380 	orr.w	r3, r3, #268435456	; 0x10000000
 8003350:	61e3      	str	r3, [r4, #28]
 8003352:	69e3      	ldr	r3, [r4, #28]
 8003354:	f003 5380 	and.w	r3, r3, #268435456	; 0x10000000
 8003358:	9300      	str	r3, [sp, #0]
 800335a:	9b00      	ldr	r3, [sp, #0]
    if (HAL_IS_BIT_CLR(PWR->CR, PWR_CR_DBP))
 800335c:	4e30      	ldr	r6, [pc, #192]	; (8003420 <HAL_RCC_OscConfig+0x284>)
 800335e:	6833      	ldr	r3, [r6, #0]
 8003360:	05d9      	lsls	r1, r3, #23
 8003362:	d518      	bpl.n	8003396 <HAL_RCC_OscConfig+0x1fa>
    __HAL_RCC_LSE_CONFIG(RCC_OscInitStruct->LSEState);
 8003364:	68eb      	ldr	r3, [r5, #12]
 8003366:	2b01      	cmp	r3, #1
 8003368:	d126      	bne.n	80033b8 <HAL_RCC_OscConfig+0x21c>
 800336a:	6a23      	ldr	r3, [r4, #32]
 800336c:	f043 0301 	orr.w	r3, r3, #1
 8003370:	6223      	str	r3, [r4, #32]
      tickstart = HAL_GetTick();
 8003372:	f7ff f9e7 	bl	8002744 <HAL_GetTick>
        if ((HAL_GetTick() - tickstart) > RCC_LSE_TIMEOUT_VALUE)
 8003376:	f241 3688 	movw	r6, #5000	; 0x1388
      tickstart = HAL_GetTick();
 800337a:	4680      	mov	r8, r0
      while (__HAL_RCC_GET_FLAG(RCC_FLAG_LSERDY) == RESET)
 800337c:	6a23      	ldr	r3, [r4, #32]
 800337e:	079b      	lsls	r3, r3, #30
 8003380:	d53f      	bpl.n	8003402 <HAL_RCC_OscConfig+0x266>
    if (pwrclkchanged == SET)
 8003382:	2f00      	cmp	r7, #0
 8003384:	f43f af1e 	beq.w	80031c4 <HAL_RCC_OscConfig+0x28>
      __HAL_RCC_PWR_CLK_DISABLE();
 8003388:	69e3      	ldr	r3, [r4, #28]
 800338a:	f023 5380 	bic.w	r3, r3, #268435456	; 0x10000000
 800338e:	61e3      	str	r3, [r4, #28]
 8003390:	e718      	b.n	80031c4 <HAL_RCC_OscConfig+0x28>
    FlagStatus       pwrclkchanged = RESET;
 8003392:	2700      	movs	r7, #0
 8003394:	e7e2      	b.n	800335c <HAL_RCC_OscConfig+0x1c0>
      SET_BIT(PWR->CR, PWR_CR_DBP);
 8003396:	6833      	ldr	r3, [r6, #0]
 8003398:	f443 7380 	orr.w	r3, r3, #256	; 0x100
 800339c:	6033      	str	r3, [r6, #0]
      tickstart = HAL_GetTick();
 800339e:	f7ff f9d1 	bl	8002744 <HAL_GetTick>
 80033a2:	4680      	mov	r8, r0
      while (HAL_IS_BIT_CLR(PWR->CR, PWR_CR_DBP))
 80033a4:	6833      	ldr	r3, [r6, #0]
 80033a6:	05da      	lsls	r2, r3, #23
 80033a8:	d4dc      	bmi.n	8003364 <HAL_RCC_OscConfig+0x1c8>
        if ((HAL_GetTick() - tickstart) > RCC_DBP_TIMEOUT_VALUE)
 80033aa:	f7ff f9cb 	bl	8002744 <HAL_GetTick>
 80033ae:	eba0 0008 	sub.w	r0, r0, r8
 80033b2:	2864      	cmp	r0, #100	; 0x64
 80033b4:	d9f6      	bls.n	80033a4 <HAL_RCC_OscConfig+0x208>
 80033b6:	e733      	b.n	8003220 <HAL_RCC_OscConfig+0x84>
    __HAL_RCC_LSE_CONFIG(RCC_OscInitStruct->LSEState);
 80033b8:	b9ab      	cbnz	r3, 80033e6 <HAL_RCC_OscConfig+0x24a>
 80033ba:	6a23      	ldr	r3, [r4, #32]
        if ((HAL_GetTick() - tickstart) > RCC_LSE_TIMEOUT_VALUE)
 80033bc:	f241 3888 	movw	r8, #5000	; 0x1388
    __HAL_RCC_LSE_CONFIG(RCC_OscInitStruct->LSEState);
 80033c0:	f023 0301 	bic.w	r3, r3, #1
 80033c4:	6223      	str	r3, [r4, #32]
 80033c6:	6a23      	ldr	r3, [r4, #32]
 80033c8:	f023 0304 	bic.w	r3, r3, #4
 80033cc:	6223      	str	r3, [r4, #32]
      tickstart = HAL_GetTick();
 80033ce:	f7ff f9b9 	bl	8002744 <HAL_GetTick>
 80033d2:	4606      	mov	r6, r0
      while (__HAL_RCC_GET_FLAG(RCC_FLAG_LSERDY) != RESET)
 80033d4:	6a23      	ldr	r3, [r4, #32]
 80033d6:	0798      	lsls	r0, r3, #30
 80033d8:	d5d3      	bpl.n	8003382 <HAL_RCC_OscConfig+0x1e6>
        if ((HAL_GetTick() - tickstart) > RCC_LSE_TIMEOUT_VALUE)
 80033da:	f7ff f9b3 	bl	8002744 <HAL_GetTick>
 80033de:	1b80      	subs	r0, r0, r6
 80033e0:	4540      	cmp	r0, r8
 80033e2:	d9f7      	bls.n	80033d4 <HAL_RCC_OscConfig+0x238>
 80033e4:	e71c      	b.n	8003220 <HAL_RCC_OscConfig+0x84>
    __HAL_RCC_LSE_CONFIG(RCC_OscInitStruct->LSEState);
 80033e6:	2b05      	cmp	r3, #5
 80033e8:	6a23      	ldr	r3, [r4, #32]
 80033ea:	d103      	bne.n	80033f4 <HAL_RCC_OscConfig+0x258>
 80033ec:	f043 0304 	orr.w	r3, r3, #4
 80033f0:	6223      	str	r3, [r4, #32]
 80033f2:	e7ba      	b.n	800336a <HAL_RCC_OscConfig+0x1ce>
 80033f4:	f023 0301 	bic.w	r3, r3, #1
 80033f8:	6223      	str	r3, [r4, #32]
 80033fa:	6a23      	ldr	r3, [r4, #32]
 80033fc:	f023 0304 	bic.w	r3, r3, #4
 8003400:	e7b6      	b.n	8003370 <HAL_RCC_OscConfig+0x1d4>
        if ((HAL_GetTick() - tickstart) > RCC_LSE_TIMEOUT_VALUE)
 8003402:	f7ff f99f 	bl	8002744 <HAL_GetTick>
 8003406:	eba0 0008 	sub.w	r0, r0, r8
 800340a:	42b0      	cmp	r0, r6
 800340c:	d9b6      	bls.n	800337c <HAL_RCC_OscConfig+0x1e0>
 800340e:	e707      	b.n	8003220 <HAL_RCC_OscConfig+0x84>
 8003410:	40021000 	.word	0x40021000
 8003414:	42420000 	.word	0x42420000
 8003418:	42420480 	.word	0x42420480
 800341c:	20000004 	.word	0x20000004
 8003420:	40007000 	.word	0x40007000
    if (__HAL_RCC_GET_SYSCLK_SOURCE() != RCC_SYSCLKSOURCE_STATUS_PLLCLK)
 8003424:	4b2a      	ldr	r3, [pc, #168]	; (80034d0 <HAL_RCC_OscConfig+0x334>)
 8003426:	685a      	ldr	r2, [r3, #4]
 8003428:	461c      	mov	r4, r3
 800342a:	f002 020c 	and.w	r2, r2, #12
 800342e:	2a08      	cmp	r2, #8
 8003430:	d03d      	beq.n	80034ae <HAL_RCC_OscConfig+0x312>
 8003432:	2300      	movs	r3, #0
 8003434:	4e27      	ldr	r6, [pc, #156]	; (80034d4 <HAL_RCC_OscConfig+0x338>)
      if ((RCC_OscInitStruct->PLL.PLLState) == RCC_PLL_ON)
 8003436:	2802      	cmp	r0, #2
        __HAL_RCC_PLL_DISABLE();
 8003438:	6033      	str	r3, [r6, #0]
      if ((RCC_OscInitStruct->PLL.PLLState) == RCC_PLL_ON)
 800343a:	d12b      	bne.n	8003494 <HAL_RCC_OscConfig+0x2f8>
        tickstart = HAL_GetTick();
 800343c:	f7ff f982 	bl	8002744 <HAL_GetTick>
 8003440:	4607      	mov	r7, r0
        while (__HAL_RCC_GET_FLAG(RCC_FLAG_PLLRDY)  != RESET)
 8003442:	6823      	ldr	r3, [r4, #0]
 8003444:	0199      	lsls	r1, r3, #6
 8003446:	d41f      	bmi.n	8003488 <HAL_RCC_OscConfig+0x2ec>
        if (RCC_OscInitStruct->PLL.PLLSource == RCC_PLLSOURCE_HSE)
 8003448:	6a2b      	ldr	r3, [r5, #32]
 800344a:	f5b3 3f80 	cmp.w	r3, #65536	; 0x10000
 800344e:	d105      	bne.n	800345c <HAL_RCC_OscConfig+0x2c0>
          __HAL_RCC_HSE_PREDIV_CONFIG(RCC_OscInitStruct->HSEPredivValue);
 8003450:	6862      	ldr	r2, [r4, #4]
 8003452:	68a9      	ldr	r1, [r5, #8]
 8003454:	f422 3200 	bic.w	r2, r2, #131072	; 0x20000
 8003458:	430a      	orrs	r2, r1
 800345a:	6062      	str	r2, [r4, #4]
        __HAL_RCC_PLL_CONFIG(RCC_OscInitStruct->PLL.PLLSource,
 800345c:	6a69      	ldr	r1, [r5, #36]	; 0x24
 800345e:	6862      	ldr	r2, [r4, #4]
 8003460:	430b      	orrs	r3, r1
 8003462:	f422 1274 	bic.w	r2, r2, #3997696	; 0x3d0000
 8003466:	4313      	orrs	r3, r2
 8003468:	6063      	str	r3, [r4, #4]
        __HAL_RCC_PLL_ENABLE();
 800346a:	2301      	movs	r3, #1
 800346c:	6033      	str	r3, [r6, #0]
        tickstart = HAL_GetTick();
 800346e:	f7ff f969 	bl	8002744 <HAL_GetTick>
 8003472:	4605      	mov	r5, r0
        while (__HAL_RCC_GET_FLAG(RCC_FLAG_PLLRDY)  == RESET)
 8003474:	6823      	ldr	r3, [r4, #0]
 8003476:	019a      	lsls	r2, r3, #6
 8003478:	f53f aea8 	bmi.w	80031cc <HAL_RCC_OscConfig+0x30>
          if ((HAL_GetTick() - tickstart) > PLL_TIMEOUT_VALUE)
 800347c:	f7ff f962 	bl	8002744 <HAL_GetTick>
 8003480:	1b40      	subs	r0, r0, r5
 8003482:	2802      	cmp	r0, #2
 8003484:	d9f6      	bls.n	8003474 <HAL_RCC_OscConfig+0x2d8>
 8003486:	e6cb      	b.n	8003220 <HAL_RCC_OscConfig+0x84>
          if ((HAL_GetTick() - tickstart) > PLL_TIMEOUT_VALUE)
 8003488:	f7ff f95c 	bl	8002744 <HAL_GetTick>
 800348c:	1bc0      	subs	r0, r0, r7
 800348e:	2802      	cmp	r0, #2
 8003490:	d9d7      	bls.n	8003442 <HAL_RCC_OscConfig+0x2a6>
 8003492:	e6c5      	b.n	8003220 <HAL_RCC_OscConfig+0x84>
        tickstart = HAL_GetTick();
 8003494:	f7ff f956 	bl	8002744 <HAL_GetTick>
 8003498:	4605      	mov	r5, r0
        while (__HAL_RCC_GET_FLAG(RCC_FLAG_PLLRDY)  != RESET)
 800349a:	6823      	ldr	r3, [r4, #0]
 800349c:	019b      	lsls	r3, r3, #6
 800349e:	f57f ae95 	bpl.w	80031cc <HAL_RCC_OscConfig+0x30>
          if ((HAL_GetTick() - tickstart) > PLL_TIMEOUT_VALUE)
 80034a2:	f7ff f94f 	bl	8002744 <HAL_GetTick>
 80034a6:	1b40      	subs	r0, r0, r5
 80034a8:	2802      	cmp	r0, #2
 80034aa:	d9f6      	bls.n	800349a <HAL_RCC_OscConfig+0x2fe>
 80034ac:	e6b8      	b.n	8003220 <HAL_RCC_OscConfig+0x84>
      if ((RCC_OscInitStruct->PLL.PLLState) == RCC_PLL_OFF)
 80034ae:	2801      	cmp	r0, #1
 80034b0:	f43f aeb7 	beq.w	8003222 <HAL_RCC_OscConfig+0x86>
        pll_config = RCC->CFGR;
 80034b4:	6858      	ldr	r0, [r3, #4]
        if ((READ_BIT(pll_config, RCC_CFGR_PLLSRC) != RCC_OscInitStruct->PLL.PLLSource) ||
 80034b6:	6a2b      	ldr	r3, [r5, #32]
 80034b8:	f400 3280 	and.w	r2, r0, #65536	; 0x10000
 80034bc:	429a      	cmp	r2, r3
 80034be:	f47f ae71 	bne.w	80031a4 <HAL_RCC_OscConfig+0x8>
 80034c2:	6a6b      	ldr	r3, [r5, #36]	; 0x24
            (READ_BIT(pll_config, RCC_CFGR_PLLMULL) != RCC_OscInitStruct->PLL.PLLMUL))
 80034c4:	f400 1070 	and.w	r0, r0, #3932160	; 0x3c0000
    return HAL_ERROR;
 80034c8:	1ac0      	subs	r0, r0, r3
 80034ca:	bf18      	it	ne
 80034cc:	2001      	movne	r0, #1
 80034ce:	e6a8      	b.n	8003222 <HAL_RCC_OscConfig+0x86>
 80034d0:	40021000 	.word	0x40021000
 80034d4:	42420060 	.word	0x42420060

080034d8 <HAL_RCC_GetSysClockFreq>:
{
 80034d8:	b530      	push	{r4, r5, lr}
  const uint8_t aPLLMULFactorTable[16] = {2, 3, 4, 5, 6, 7, 8, 9, 10, 11, 12, 13, 14, 15, 16, 16};
 80034da:	4b19      	ldr	r3, [pc, #100]	; (8003540 <HAL_RCC_GetSysClockFreq+0x68>)
{
 80034dc:	b087      	sub	sp, #28
  const uint8_t aPLLMULFactorTable[16] = {2, 3, 4, 5, 6, 7, 8, 9, 10, 11, 12, 13, 14, 15, 16, 16};
 80034de:	ac02      	add	r4, sp, #8
 80034e0:	f103 0510 	add.w	r5, r3, #16
 80034e4:	4622      	mov	r2, r4
 80034e6:	6818      	ldr	r0, [r3, #0]
 80034e8:	6859      	ldr	r1, [r3, #4]
 80034ea:	3308      	adds	r3, #8
 80034ec:	c203      	stmia	r2!, {r0, r1}
 80034ee:	42ab      	cmp	r3, r5
 80034f0:	4614      	mov	r4, r2
 80034f2:	d1f7      	bne.n	80034e4 <HAL_RCC_GetSysClockFreq+0xc>
  const uint8_t aPredivFactorTable[2] = {1, 2};
 80034f4:	2301      	movs	r3, #1
 80034f6:	f88d 3004 	strb.w	r3, [sp, #4]
 80034fa:	2302      	movs	r3, #2
  tmpreg = RCC->CFGR;
 80034fc:	4911      	ldr	r1, [pc, #68]	; (8003544 <HAL_RCC_GetSysClockFreq+0x6c>)
  const uint8_t aPredivFactorTable[2] = {1, 2};
 80034fe:	f88d 3005 	strb.w	r3, [sp, #5]
  tmpreg = RCC->CFGR;
 8003502:	684b      	ldr	r3, [r1, #4]
  switch (tmpreg & RCC_CFGR_SWS)
 8003504:	f003 020c 	and.w	r2, r3, #12
 8003508:	2a08      	cmp	r2, #8
 800350a:	d117      	bne.n	800353c <HAL_RCC_GetSysClockFreq+0x64>
      pllmul = aPLLMULFactorTable[(uint32_t)(tmpreg & RCC_CFGR_PLLMULL) >> RCC_CFGR_PLLMULL_Pos];
 800350c:	f3c3 4283 	ubfx	r2, r3, #18, #4
 8003510:	a806      	add	r0, sp, #24
 8003512:	4402      	add	r2, r0
      if ((tmpreg & RCC_CFGR_PLLSRC) != RCC_PLLSOURCE_HSI_DIV2)
 8003514:	03db      	lsls	r3, r3, #15
      pllmul = aPLLMULFactorTable[(uint32_t)(tmpreg & RCC_CFGR_PLLMULL) >> RCC_CFGR_PLLMULL_Pos];
 8003516:	f812 2c10 	ldrb.w	r2, [r2, #-16]
      if ((tmpreg & RCC_CFGR_PLLSRC) != RCC_PLLSOURCE_HSI_DIV2)
 800351a:	d50c      	bpl.n	8003536 <HAL_RCC_GetSysClockFreq+0x5e>
        prediv = aPredivFactorTable[(uint32_t)(RCC->CFGR & RCC_CFGR_PLLXTPRE) >> RCC_CFGR_PLLXTPRE_Pos];
 800351c:	684b      	ldr	r3, [r1, #4]
        pllclk = (uint32_t)((HSE_VALUE  * pllmul) / prediv);
 800351e:	480a      	ldr	r0, [pc, #40]	; (8003548 <HAL_RCC_GetSysClockFreq+0x70>)
        prediv = aPredivFactorTable[(uint32_t)(RCC->CFGR & RCC_CFGR_PLLXTPRE) >> RCC_CFGR_PLLXTPRE_Pos];
 8003520:	f3c3 4340 	ubfx	r3, r3, #17, #1
        pllclk = (uint32_t)((HSE_VALUE  * pllmul) / prediv);
 8003524:	4350      	muls	r0, r2
        prediv = aPredivFactorTable[(uint32_t)(RCC->CFGR & RCC_CFGR_PLLXTPRE) >> RCC_CFGR_PLLXTPRE_Pos];
 8003526:	aa06      	add	r2, sp, #24
 8003528:	4413      	add	r3, r2
 800352a:	f813 3c14 	ldrb.w	r3, [r3, #-20]
        pllclk = (uint32_t)((HSE_VALUE  * pllmul) / prediv);
 800352e:	fbb0 f0f3 	udiv	r0, r0, r3
}
 8003532:	b007      	add	sp, #28
 8003534:	bd30      	pop	{r4, r5, pc}
        pllclk = (uint32_t)((HSI_VALUE >> 1) * pllmul);
 8003536:	4805      	ldr	r0, [pc, #20]	; (800354c <HAL_RCC_GetSysClockFreq+0x74>)
 8003538:	4350      	muls	r0, r2
 800353a:	e7fa      	b.n	8003532 <HAL_RCC_GetSysClockFreq+0x5a>
      sysclockfreq = HSE_VALUE;
 800353c:	4802      	ldr	r0, [pc, #8]	; (8003548 <HAL_RCC_GetSysClockFreq+0x70>)
  return sysclockfreq;
 800353e:	e7f8      	b.n	8003532 <HAL_RCC_GetSysClockFreq+0x5a>
 8003540:	080058ec 	.word	0x080058ec
 8003544:	40021000 	.word	0x40021000
 8003548:	007a1200 	.word	0x007a1200
 800354c:	003d0900 	.word	0x003d0900

08003550 <HAL_RCC_ClockConfig>:
{
 8003550:	e92d 41f0 	stmdb	sp!, {r4, r5, r6, r7, r8, lr}
 8003554:	460d      	mov	r5, r1
  if (RCC_ClkInitStruct == NULL)
 8003556:	4604      	mov	r4, r0
 8003558:	b910      	cbnz	r0, 8003560 <HAL_RCC_ClockConfig+0x10>
    return HAL_ERROR;
 800355a:	2001      	movs	r0, #1
 800355c:	e8bd 81f0 	ldmia.w	sp!, {r4, r5, r6, r7, r8, pc}
  if (FLatency > __HAL_FLASH_GET_LATENCY())
 8003560:	4a45      	ldr	r2, [pc, #276]	; (8003678 <HAL_RCC_ClockConfig+0x128>)
 8003562:	6813      	ldr	r3, [r2, #0]
 8003564:	f003 0307 	and.w	r3, r3, #7
 8003568:	428b      	cmp	r3, r1
 800356a:	d329      	bcc.n	80035c0 <HAL_RCC_ClockConfig+0x70>
if (((RCC_ClkInitStruct->ClockType) & RCC_CLOCKTYPE_HCLK) == RCC_CLOCKTYPE_HCLK)
 800356c:	6821      	ldr	r1, [r4, #0]
 800356e:	078e      	lsls	r6, r1, #30
 8003570:	d431      	bmi.n	80035d6 <HAL_RCC_ClockConfig+0x86>
  if (((RCC_ClkInitStruct->ClockType) & RCC_CLOCKTYPE_SYSCLK) == RCC_CLOCKTYPE_SYSCLK)
 8003572:	07ca      	lsls	r2, r1, #31
 8003574:	d444      	bmi.n	8003600 <HAL_RCC_ClockConfig+0xb0>
  if (FLatency < __HAL_FLASH_GET_LATENCY())
 8003576:	4a40      	ldr	r2, [pc, #256]	; (8003678 <HAL_RCC_ClockConfig+0x128>)
 8003578:	6813      	ldr	r3, [r2, #0]
 800357a:	f003 0307 	and.w	r3, r3, #7
 800357e:	429d      	cmp	r5, r3
 8003580:	d367      	bcc.n	8003652 <HAL_RCC_ClockConfig+0x102>
if (((RCC_ClkInitStruct->ClockType) & RCC_CLOCKTYPE_PCLK1) == RCC_CLOCKTYPE_PCLK1)
 8003582:	6822      	ldr	r2, [r4, #0]
 8003584:	4d3d      	ldr	r5, [pc, #244]	; (800367c <HAL_RCC_ClockConfig+0x12c>)
 8003586:	f012 0f04 	tst.w	r2, #4
 800358a:	d16e      	bne.n	800366a <HAL_RCC_ClockConfig+0x11a>
  if (((RCC_ClkInitStruct->ClockType) & RCC_CLOCKTYPE_PCLK2) == RCC_CLOCKTYPE_PCLK2)
 800358c:	0713      	lsls	r3, r2, #28
 800358e:	d506      	bpl.n	800359e <HAL_RCC_ClockConfig+0x4e>
    MODIFY_REG(RCC->CFGR, RCC_CFGR_PPRE2, ((RCC_ClkInitStruct->APB2CLKDivider) << 3));
 8003590:	686b      	ldr	r3, [r5, #4]
 8003592:	6922      	ldr	r2, [r4, #16]
 8003594:	f423 5360 	bic.w	r3, r3, #14336	; 0x3800
 8003598:	ea43 03c2 	orr.w	r3, r3, r2, lsl #3
 800359c:	606b      	str	r3, [r5, #4]
  SystemCoreClock = HAL_RCC_GetSysClockFreq() >> AHBPrescTable[(RCC->CFGR & RCC_CFGR_HPRE) >> RCC_CFGR_HPRE_Pos];
 800359e:	f7ff ff9b 	bl	80034d8 <HAL_RCC_GetSysClockFreq>
 80035a2:	686b      	ldr	r3, [r5, #4]
 80035a4:	4a36      	ldr	r2, [pc, #216]	; (8003680 <HAL_RCC_ClockConfig+0x130>)
 80035a6:	f3c3 1303 	ubfx	r3, r3, #4, #4
 80035aa:	5cd3      	ldrb	r3, [r2, r3]
 80035ac:	40d8      	lsrs	r0, r3
 80035ae:	4b35      	ldr	r3, [pc, #212]	; (8003684 <HAL_RCC_ClockConfig+0x134>)
 80035b0:	6018      	str	r0, [r3, #0]
  HAL_InitTick(uwTickPrio);
 80035b2:	4b35      	ldr	r3, [pc, #212]	; (8003688 <HAL_RCC_ClockConfig+0x138>)
 80035b4:	6818      	ldr	r0, [r3, #0]
 80035b6:	f7fe ff93 	bl	80024e0 <HAL_InitTick>
  return HAL_OK;
 80035ba:	2000      	movs	r0, #0
 80035bc:	e8bd 81f0 	ldmia.w	sp!, {r4, r5, r6, r7, r8, pc}
    __HAL_FLASH_SET_LATENCY(FLatency);
 80035c0:	6813      	ldr	r3, [r2, #0]
 80035c2:	f023 0307 	bic.w	r3, r3, #7
 80035c6:	430b      	orrs	r3, r1
 80035c8:	6013      	str	r3, [r2, #0]
    if (__HAL_FLASH_GET_LATENCY() != FLatency)
 80035ca:	6813      	ldr	r3, [r2, #0]
 80035cc:	f003 0307 	and.w	r3, r3, #7
 80035d0:	4299      	cmp	r1, r3
 80035d2:	d1c2      	bne.n	800355a <HAL_RCC_ClockConfig+0xa>
 80035d4:	e7ca      	b.n	800356c <HAL_RCC_ClockConfig+0x1c>
 80035d6:	4b29      	ldr	r3, [pc, #164]	; (800367c <HAL_RCC_ClockConfig+0x12c>)
    if (((RCC_ClkInitStruct->ClockType) & RCC_CLOCKTYPE_PCLK1) == RCC_CLOCKTYPE_PCLK1)
 80035d8:	f011 0f04 	tst.w	r1, #4
      MODIFY_REG(RCC->CFGR, RCC_CFGR_PPRE1, RCC_HCLK_DIV16);
 80035dc:	bf1e      	ittt	ne
 80035de:	685a      	ldrne	r2, [r3, #4]
 80035e0:	f442 62e0 	orrne.w	r2, r2, #1792	; 0x700
 80035e4:	605a      	strne	r2, [r3, #4]
    if (((RCC_ClkInitStruct->ClockType) & RCC_CLOCKTYPE_PCLK2) == RCC_CLOCKTYPE_PCLK2)
 80035e6:	0708      	lsls	r0, r1, #28
      MODIFY_REG(RCC->CFGR, RCC_CFGR_PPRE2, (RCC_HCLK_DIV16 << 3));
 80035e8:	bf42      	ittt	mi
 80035ea:	685a      	ldrmi	r2, [r3, #4]
 80035ec:	f442 5260 	orrmi.w	r2, r2, #14336	; 0x3800
 80035f0:	605a      	strmi	r2, [r3, #4]
    MODIFY_REG(RCC->CFGR, RCC_CFGR_HPRE, RCC_ClkInitStruct->AHBCLKDivider);
 80035f2:	685a      	ldr	r2, [r3, #4]
 80035f4:	68a0      	ldr	r0, [r4, #8]
 80035f6:	f022 02f0 	bic.w	r2, r2, #240	; 0xf0
 80035fa:	4302      	orrs	r2, r0
 80035fc:	605a      	str	r2, [r3, #4]
 80035fe:	e7b8      	b.n	8003572 <HAL_RCC_ClockConfig+0x22>
    if (RCC_ClkInitStruct->SYSCLKSource == RCC_SYSCLKSOURCE_HSE)
 8003600:	6862      	ldr	r2, [r4, #4]
 8003602:	4e1e      	ldr	r6, [pc, #120]	; (800367c <HAL_RCC_ClockConfig+0x12c>)
 8003604:	2a01      	cmp	r2, #1
      if (__HAL_RCC_GET_FLAG(RCC_FLAG_HSERDY) == RESET)
 8003606:	6833      	ldr	r3, [r6, #0]
    if (RCC_ClkInitStruct->SYSCLKSource == RCC_SYSCLKSOURCE_HSE)
 8003608:	d11b      	bne.n	8003642 <HAL_RCC_ClockConfig+0xf2>
      if (__HAL_RCC_GET_FLAG(RCC_FLAG_HSERDY) == RESET)
 800360a:	f413 3f00 	tst.w	r3, #131072	; 0x20000
      if (__HAL_RCC_GET_FLAG(RCC_FLAG_HSIRDY) == RESET)
 800360e:	d0a4      	beq.n	800355a <HAL_RCC_ClockConfig+0xa>
    __HAL_RCC_SYSCLK_CONFIG(RCC_ClkInitStruct->SYSCLKSource);
 8003610:	6873      	ldr	r3, [r6, #4]
      if ((HAL_GetTick() - tickstart) > CLOCKSWITCH_TIMEOUT_VALUE)
 8003612:	f241 3888 	movw	r8, #5000	; 0x1388
    __HAL_RCC_SYSCLK_CONFIG(RCC_ClkInitStruct->SYSCLKSource);
 8003616:	f023 0303 	bic.w	r3, r3, #3
 800361a:	4313      	orrs	r3, r2
 800361c:	6073      	str	r3, [r6, #4]
    tickstart = HAL_GetTick();
 800361e:	f7ff f891 	bl	8002744 <HAL_GetTick>
 8003622:	4607      	mov	r7, r0
    while (__HAL_RCC_GET_SYSCLK_SOURCE() != (RCC_ClkInitStruct->SYSCLKSource << RCC_CFGR_SWS_Pos))
 8003624:	6873      	ldr	r3, [r6, #4]
 8003626:	6862      	ldr	r2, [r4, #4]
 8003628:	f003 030c 	and.w	r3, r3, #12
 800362c:	ebb3 0f82 	cmp.w	r3, r2, lsl #2
 8003630:	d0a1      	beq.n	8003576 <HAL_RCC_ClockConfig+0x26>
      if ((HAL_GetTick() - tickstart) > CLOCKSWITCH_TIMEOUT_VALUE)
 8003632:	f7ff f887 	bl	8002744 <HAL_GetTick>
 8003636:	1bc0      	subs	r0, r0, r7
 8003638:	4540      	cmp	r0, r8
 800363a:	d9f3      	bls.n	8003624 <HAL_RCC_ClockConfig+0xd4>
        return HAL_TIMEOUT;
 800363c:	2003      	movs	r0, #3
}
 800363e:	e8bd 81f0 	ldmia.w	sp!, {r4, r5, r6, r7, r8, pc}
    else if (RCC_ClkInitStruct->SYSCLKSource == RCC_SYSCLKSOURCE_PLLCLK)
 8003642:	2a02      	cmp	r2, #2
 8003644:	d102      	bne.n	800364c <HAL_RCC_ClockConfig+0xfc>
      if (__HAL_RCC_GET_FLAG(RCC_FLAG_PLLRDY) == RESET)
 8003646:	f013 7f00 	tst.w	r3, #33554432	; 0x2000000
 800364a:	e7e0      	b.n	800360e <HAL_RCC_ClockConfig+0xbe>
      if (__HAL_RCC_GET_FLAG(RCC_FLAG_HSIRDY) == RESET)
 800364c:	f013 0f02 	tst.w	r3, #2
 8003650:	e7dd      	b.n	800360e <HAL_RCC_ClockConfig+0xbe>
    __HAL_FLASH_SET_LATENCY(FLatency);
 8003652:	6813      	ldr	r3, [r2, #0]
 8003654:	f023 0307 	bic.w	r3, r3, #7
 8003658:	432b      	orrs	r3, r5
 800365a:	6013      	str	r3, [r2, #0]
    if (__HAL_FLASH_GET_LATENCY() != FLatency)
 800365c:	6813      	ldr	r3, [r2, #0]
 800365e:	f003 0307 	and.w	r3, r3, #7
 8003662:	429d      	cmp	r5, r3
 8003664:	f47f af79 	bne.w	800355a <HAL_RCC_ClockConfig+0xa>
 8003668:	e78b      	b.n	8003582 <HAL_RCC_ClockConfig+0x32>
    MODIFY_REG(RCC->CFGR, RCC_CFGR_PPRE1, RCC_ClkInitStruct->APB1CLKDivider);
 800366a:	686b      	ldr	r3, [r5, #4]
 800366c:	68e1      	ldr	r1, [r4, #12]
 800366e:	f423 63e0 	bic.w	r3, r3, #1792	; 0x700
 8003672:	430b      	orrs	r3, r1
 8003674:	606b      	str	r3, [r5, #4]
 8003676:	e789      	b.n	800358c <HAL_RCC_ClockConfig+0x3c>
 8003678:	40022000 	.word	0x40022000
 800367c:	40021000 	.word	0x40021000
 8003680:	08005923 	.word	0x08005923
 8003684:	20000004 	.word	0x20000004
 8003688:	2000000c 	.word	0x2000000c

0800368c <HAL_RCC_GetPCLK1Freq>:
  return (HAL_RCC_GetHCLKFreq() >> APBPrescTable[(RCC->CFGR & RCC_CFGR_PPRE1) >> RCC_CFGR_PPRE1_Pos]);
 800368c:	4b04      	ldr	r3, [pc, #16]	; (80036a0 <HAL_RCC_GetPCLK1Freq+0x14>)
 800368e:	4a05      	ldr	r2, [pc, #20]	; (80036a4 <HAL_RCC_GetPCLK1Freq+0x18>)
 8003690:	685b      	ldr	r3, [r3, #4]
 8003692:	f3c3 2302 	ubfx	r3, r3, #8, #3
 8003696:	5cd3      	ldrb	r3, [r2, r3]
 8003698:	4a03      	ldr	r2, [pc, #12]	; (80036a8 <HAL_RCC_GetPCLK1Freq+0x1c>)
 800369a:	6810      	ldr	r0, [r2, #0]
}
 800369c:	40d8      	lsrs	r0, r3
 800369e:	4770      	bx	lr
 80036a0:	40021000 	.word	0x40021000
 80036a4:	08005933 	.word	0x08005933
 80036a8:	20000004 	.word	0x20000004

080036ac <HAL_RCC_GetPCLK2Freq>:
  return (HAL_RCC_GetHCLKFreq() >> APBPrescTable[(RCC->CFGR & RCC_CFGR_PPRE2) >> RCC_CFGR_PPRE2_Pos]);
 80036ac:	4b04      	ldr	r3, [pc, #16]	; (80036c0 <HAL_RCC_GetPCLK2Freq+0x14>)
 80036ae:	4a05      	ldr	r2, [pc, #20]	; (80036c4 <HAL_RCC_GetPCLK2Freq+0x18>)
 80036b0:	685b      	ldr	r3, [r3, #4]
 80036b2:	f3c3 23c2 	ubfx	r3, r3, #11, #3
 80036b6:	5cd3      	ldrb	r3, [r2, r3]
 80036b8:	4a03      	ldr	r2, [pc, #12]	; (80036c8 <HAL_RCC_GetPCLK2Freq+0x1c>)
 80036ba:	6810      	ldr	r0, [r2, #0]
}
 80036bc:	40d8      	lsrs	r0, r3
 80036be:	4770      	bx	lr
 80036c0:	40021000 	.word	0x40021000
 80036c4:	08005933 	.word	0x08005933
 80036c8:	20000004 	.word	0x20000004

080036cc <HAL_RCC_GetClockConfig>:
  RCC_ClkInitStruct->ClockType = RCC_CLOCKTYPE_SYSCLK | RCC_CLOCKTYPE_HCLK | RCC_CLOCKTYPE_PCLK1 | RCC_CLOCKTYPE_PCLK2;
 80036cc:	230f      	movs	r3, #15
 80036ce:	6003      	str	r3, [r0, #0]
  RCC_ClkInitStruct->SYSCLKSource = (uint32_t)(RCC->CFGR & RCC_CFGR_SW);
 80036d0:	4b0b      	ldr	r3, [pc, #44]	; (8003700 <HAL_RCC_GetClockConfig+0x34>)
 80036d2:	685a      	ldr	r2, [r3, #4]
 80036d4:	f002 0203 	and.w	r2, r2, #3
 80036d8:	6042      	str	r2, [r0, #4]
  RCC_ClkInitStruct->AHBCLKDivider = (uint32_t)(RCC->CFGR & RCC_CFGR_HPRE);
 80036da:	685a      	ldr	r2, [r3, #4]
 80036dc:	f002 02f0 	and.w	r2, r2, #240	; 0xf0
 80036e0:	6082      	str	r2, [r0, #8]
  RCC_ClkInitStruct->APB1CLKDivider = (uint32_t)(RCC->CFGR & RCC_CFGR_PPRE1);
 80036e2:	685a      	ldr	r2, [r3, #4]
 80036e4:	f402 62e0 	and.w	r2, r2, #1792	; 0x700
 80036e8:	60c2      	str	r2, [r0, #12]
  RCC_ClkInitStruct->APB2CLKDivider = (uint32_t)((RCC->CFGR & RCC_CFGR_PPRE2) >> 3);
 80036ea:	685b      	ldr	r3, [r3, #4]
 80036ec:	08db      	lsrs	r3, r3, #3
 80036ee:	f403 63e0 	and.w	r3, r3, #1792	; 0x700
 80036f2:	6103      	str	r3, [r0, #16]
  *pFLatency = (uint32_t)(FLASH->ACR & FLASH_ACR_LATENCY);
 80036f4:	4b03      	ldr	r3, [pc, #12]	; (8003704 <HAL_RCC_GetClockConfig+0x38>)
 80036f6:	681b      	ldr	r3, [r3, #0]
 80036f8:	f003 0307 	and.w	r3, r3, #7
 80036fc:	600b      	str	r3, [r1, #0]
 80036fe:	4770      	bx	lr
 8003700:	40021000 	.word	0x40021000
 8003704:	40022000 	.word	0x40022000

08003708 <HAL_RCCEx_PeriphCLKConfig>:

  /* Check the parameters */
  assert_param(IS_RCC_PERIPHCLOCK(PeriphClkInit->PeriphClockSelection));

  /*------------------------------- RTC/LCD Configuration ------------------------*/
  if ((((PeriphClkInit->PeriphClockSelection) & RCC_PERIPHCLK_RTC) == RCC_PERIPHCLK_RTC))
 8003708:	6803      	ldr	r3, [r0, #0]
{
 800370a:	e92d 41f3 	stmdb	sp!, {r0, r1, r4, r5, r6, r7, r8, lr}
  if ((((PeriphClkInit->PeriphClockSelection) & RCC_PERIPHCLK_RTC) == RCC_PERIPHCLK_RTC))
 800370e:	07d9      	lsls	r1, r3, #31
{
 8003710:	4605      	mov	r5, r0
  if ((((PeriphClkInit->PeriphClockSelection) & RCC_PERIPHCLK_RTC) == RCC_PERIPHCLK_RTC))
 8003712:	d520      	bpl.n	8003756 <HAL_RCCEx_PeriphCLKConfig+0x4e>
    FlagStatus       pwrclkchanged = RESET;

    /* As soon as function is called to change RTC clock source, activation of the
       power domain is done. */
    /* Requires to enable write access to Backup Domain of necessary */
    if (__HAL_RCC_PWR_IS_CLK_DISABLED())
 8003714:	4c35      	ldr	r4, [pc, #212]	; (80037ec <HAL_RCCEx_PeriphCLKConfig+0xe4>)
 8003716:	69e3      	ldr	r3, [r4, #28]
 8003718:	00da      	lsls	r2, r3, #3
 800371a:	d432      	bmi.n	8003782 <HAL_RCCEx_PeriphCLKConfig+0x7a>
    {
      __HAL_RCC_PWR_CLK_ENABLE();
      pwrclkchanged = SET;
 800371c:	2701      	movs	r7, #1
      __HAL_RCC_PWR_CLK_ENABLE();
 800371e:	69e3      	ldr	r3, [r4, #28]
 8003720:	f043 5380 	orr.w	r3, r3, #268435456	; 0x10000000
 8003724:	61e3      	str	r3, [r4, #28]
 8003726:	69e3      	ldr	r3, [r4, #28]
 8003728:	f003 5380 	and.w	r3, r3, #268435456	; 0x10000000
 800372c:	9301      	str	r3, [sp, #4]
 800372e:	9b01      	ldr	r3, [sp, #4]
    }

    if (HAL_IS_BIT_CLR(PWR->CR, PWR_CR_DBP))
 8003730:	4e2f      	ldr	r6, [pc, #188]	; (80037f0 <HAL_RCCEx_PeriphCLKConfig+0xe8>)
 8003732:	6833      	ldr	r3, [r6, #0]
 8003734:	05db      	lsls	r3, r3, #23
 8003736:	d526      	bpl.n	8003786 <HAL_RCCEx_PeriphCLKConfig+0x7e>
        }
      }
    }

    /* Reset the Backup domain only if the RTC Clock source selection is modified from reset value */
    temp_reg = (RCC->BDCR & RCC_BDCR_RTCSEL);
 8003738:	6a23      	ldr	r3, [r4, #32]
    if ((temp_reg != 0x00000000U) && (temp_reg != (PeriphClkInit->RTCClockSelection & RCC_BDCR_RTCSEL)))
 800373a:	f413 7340 	ands.w	r3, r3, #768	; 0x300
 800373e:	d136      	bne.n	80037ae <HAL_RCCEx_PeriphCLKConfig+0xa6>
            return HAL_TIMEOUT;
          }
        }
      }
    }
    __HAL_RCC_RTC_CONFIG(PeriphClkInit->RTCClockSelection);
 8003740:	6a23      	ldr	r3, [r4, #32]
 8003742:	686a      	ldr	r2, [r5, #4]
 8003744:	f423 7340 	bic.w	r3, r3, #768	; 0x300
 8003748:	4313      	orrs	r3, r2
 800374a:	6223      	str	r3, [r4, #32]

    /* Require to disable power clock if necessary */
    if (pwrclkchanged == SET)
 800374c:	b11f      	cbz	r7, 8003756 <HAL_RCCEx_PeriphCLKConfig+0x4e>
    {
      __HAL_RCC_PWR_CLK_DISABLE();
 800374e:	69e3      	ldr	r3, [r4, #28]
 8003750:	f023 5380 	bic.w	r3, r3, #268435456	; 0x10000000
 8003754:	61e3      	str	r3, [r4, #28]
    }
  }

  /*------------------------------ ADC clock Configuration ------------------*/
  if (((PeriphClkInit->PeriphClockSelection) & RCC_PERIPHCLK_ADC) == RCC_PERIPHCLK_ADC)
 8003756:	6828      	ldr	r0, [r5, #0]
 8003758:	0783      	lsls	r3, r0, #30
 800375a:	d506      	bpl.n	800376a <HAL_RCCEx_PeriphCLKConfig+0x62>
  {
    /* Check the parameters */
    assert_param(IS_RCC_ADCPLLCLK_DIV(PeriphClkInit->AdcClockSelection));

    /* Configure the ADC clock source */
    __HAL_RCC_ADC_CONFIG(PeriphClkInit->AdcClockSelection);
 800375c:	4a23      	ldr	r2, [pc, #140]	; (80037ec <HAL_RCCEx_PeriphCLKConfig+0xe4>)
 800375e:	68a9      	ldr	r1, [r5, #8]
 8003760:	6853      	ldr	r3, [r2, #4]
 8003762:	f423 4340 	bic.w	r3, r3, #49152	; 0xc000
 8003766:	430b      	orrs	r3, r1
 8003768:	6053      	str	r3, [r2, #4]

#if defined(STM32F102x6) || defined(STM32F102xB) || defined(STM32F103x6)\
 || defined(STM32F103xB) || defined(STM32F103xE) || defined(STM32F103xG)\
 || defined(STM32F105xC) || defined(STM32F107xC)
  /*------------------------------ USB clock Configuration ------------------*/
  if (((PeriphClkInit->PeriphClockSelection) & RCC_PERIPHCLK_USB) == RCC_PERIPHCLK_USB)
 800376a:	f010 0010 	ands.w	r0, r0, #16
 800376e:	d01b      	beq.n	80037a8 <HAL_RCCEx_PeriphCLKConfig+0xa0>
  {
    /* Check the parameters */
    assert_param(IS_RCC_USBPLLCLK_DIV(PeriphClkInit->UsbClockSelection));

    /* Configure the USB clock source */
    __HAL_RCC_USB_CONFIG(PeriphClkInit->UsbClockSelection);
 8003770:	4a1e      	ldr	r2, [pc, #120]	; (80037ec <HAL_RCCEx_PeriphCLKConfig+0xe4>)
 8003772:	68e9      	ldr	r1, [r5, #12]
 8003774:	6853      	ldr	r3, [r2, #4]
  }
#endif /* STM32F102x6 || STM32F102xB || STM32F103x6 || STM32F103xB || STM32F103xE || STM32F103xG || STM32F105xC || STM32F107xC */

  return HAL_OK;
 8003776:	2000      	movs	r0, #0
    __HAL_RCC_USB_CONFIG(PeriphClkInit->UsbClockSelection);
 8003778:	f423 0380 	bic.w	r3, r3, #4194304	; 0x400000
 800377c:	430b      	orrs	r3, r1
 800377e:	6053      	str	r3, [r2, #4]
 8003780:	e012      	b.n	80037a8 <HAL_RCCEx_PeriphCLKConfig+0xa0>
    FlagStatus       pwrclkchanged = RESET;
 8003782:	2700      	movs	r7, #0
 8003784:	e7d4      	b.n	8003730 <HAL_RCCEx_PeriphCLKConfig+0x28>
      SET_BIT(PWR->CR, PWR_CR_DBP);
 8003786:	6833      	ldr	r3, [r6, #0]
 8003788:	f443 7380 	orr.w	r3, r3, #256	; 0x100
 800378c:	6033      	str	r3, [r6, #0]
      tickstart = HAL_GetTick();
 800378e:	f7fe ffd9 	bl	8002744 <HAL_GetTick>
 8003792:	4680      	mov	r8, r0
      while (HAL_IS_BIT_CLR(PWR->CR, PWR_CR_DBP))
 8003794:	6833      	ldr	r3, [r6, #0]
 8003796:	05d8      	lsls	r0, r3, #23
 8003798:	d4ce      	bmi.n	8003738 <HAL_RCCEx_PeriphCLKConfig+0x30>
        if ((HAL_GetTick() - tickstart) > RCC_DBP_TIMEOUT_VALUE)
 800379a:	f7fe ffd3 	bl	8002744 <HAL_GetTick>
 800379e:	eba0 0008 	sub.w	r0, r0, r8
 80037a2:	2864      	cmp	r0, #100	; 0x64
 80037a4:	d9f6      	bls.n	8003794 <HAL_RCCEx_PeriphCLKConfig+0x8c>
          return HAL_TIMEOUT;
 80037a6:	2003      	movs	r0, #3
}
 80037a8:	b002      	add	sp, #8
 80037aa:	e8bd 81f0 	ldmia.w	sp!, {r4, r5, r6, r7, r8, pc}
    if ((temp_reg != 0x00000000U) && (temp_reg != (PeriphClkInit->RTCClockSelection & RCC_BDCR_RTCSEL)))
 80037ae:	686a      	ldr	r2, [r5, #4]
 80037b0:	f402 7240 	and.w	r2, r2, #768	; 0x300
 80037b4:	4293      	cmp	r3, r2
 80037b6:	d0c3      	beq.n	8003740 <HAL_RCCEx_PeriphCLKConfig+0x38>
      __HAL_RCC_BACKUPRESET_FORCE();
 80037b8:	2001      	movs	r0, #1
 80037ba:	4a0e      	ldr	r2, [pc, #56]	; (80037f4 <HAL_RCCEx_PeriphCLKConfig+0xec>)
      temp_reg = (RCC->BDCR & ~(RCC_BDCR_RTCSEL));
 80037bc:	6a23      	ldr	r3, [r4, #32]
      __HAL_RCC_BACKUPRESET_FORCE();
 80037be:	6010      	str	r0, [r2, #0]
      __HAL_RCC_BACKUPRESET_RELEASE();
 80037c0:	2000      	movs	r0, #0
      temp_reg = (RCC->BDCR & ~(RCC_BDCR_RTCSEL));
 80037c2:	f423 7140 	bic.w	r1, r3, #768	; 0x300
      __HAL_RCC_BACKUPRESET_RELEASE();
 80037c6:	6010      	str	r0, [r2, #0]
      RCC->BDCR = temp_reg;
 80037c8:	6221      	str	r1, [r4, #32]
      if (HAL_IS_BIT_SET(temp_reg, RCC_BDCR_LSEON))
 80037ca:	07d9      	lsls	r1, r3, #31
 80037cc:	d5b8      	bpl.n	8003740 <HAL_RCCEx_PeriphCLKConfig+0x38>
        tickstart = HAL_GetTick();
 80037ce:	f7fe ffb9 	bl	8002744 <HAL_GetTick>
          if ((HAL_GetTick() - tickstart) > RCC_LSE_TIMEOUT_VALUE)
 80037d2:	f241 3888 	movw	r8, #5000	; 0x1388
        tickstart = HAL_GetTick();
 80037d6:	4606      	mov	r6, r0
        while (__HAL_RCC_GET_FLAG(RCC_FLAG_LSERDY) == RESET)
 80037d8:	6a23      	ldr	r3, [r4, #32]
 80037da:	079a      	lsls	r2, r3, #30
 80037dc:	d4b0      	bmi.n	8003740 <HAL_RCCEx_PeriphCLKConfig+0x38>
          if ((HAL_GetTick() - tickstart) > RCC_LSE_TIMEOUT_VALUE)
 80037de:	f7fe ffb1 	bl	8002744 <HAL_GetTick>
 80037e2:	1b80      	subs	r0, r0, r6
 80037e4:	4540      	cmp	r0, r8
 80037e6:	d9f7      	bls.n	80037d8 <HAL_RCCEx_PeriphCLKConfig+0xd0>
 80037e8:	e7dd      	b.n	80037a6 <HAL_RCCEx_PeriphCLKConfig+0x9e>
 80037ea:	bf00      	nop
 80037ec:	40021000 	.word	0x40021000
 80037f0:	40007000 	.word	0x40007000
 80037f4:	42420440 	.word	0x42420440

080037f8 <HAL_TIM_Base_Start>:

  /* Check the parameters */
  assert_param(IS_TIM_INSTANCE(htim->Instance));

  /* Check the TIM state */
  if (htim->State != HAL_TIM_STATE_READY)
 80037f8:	f890 303d 	ldrb.w	r3, [r0, #61]	; 0x3d
 80037fc:	2b01      	cmp	r3, #1
 80037fe:	d11c      	bne.n	800383a <HAL_TIM_Base_Start+0x42>
  {
    return HAL_ERROR;
  }

  /* Set the TIM state */
  htim->State = HAL_TIM_STATE_BUSY;
 8003800:	2302      	movs	r3, #2

  /* Enable the Peripheral, except in trigger mode where enable is automatically done with trigger */
  if (IS_TIM_SLAVE_INSTANCE(htim->Instance))
 8003802:	4a0f      	ldr	r2, [pc, #60]	; (8003840 <HAL_TIM_Base_Start+0x48>)
  htim->State = HAL_TIM_STATE_BUSY;
 8003804:	f880 303d 	strb.w	r3, [r0, #61]	; 0x3d
  if (IS_TIM_SLAVE_INSTANCE(htim->Instance))
 8003808:	6803      	ldr	r3, [r0, #0]
 800380a:	4293      	cmp	r3, r2
 800380c:	d00a      	beq.n	8003824 <HAL_TIM_Base_Start+0x2c>
 800380e:	f1b3 4f80 	cmp.w	r3, #1073741824	; 0x40000000
 8003812:	d007      	beq.n	8003824 <HAL_TIM_Base_Start+0x2c>
 8003814:	f5a2 3294 	sub.w	r2, r2, #75776	; 0x12800
 8003818:	4293      	cmp	r3, r2
 800381a:	d003      	beq.n	8003824 <HAL_TIM_Base_Start+0x2c>
 800381c:	f502 6280 	add.w	r2, r2, #1024	; 0x400
 8003820:	4293      	cmp	r3, r2
 8003822:	d104      	bne.n	800382e <HAL_TIM_Base_Start+0x36>
  {
    tmpsmcr = htim->Instance->SMCR & TIM_SMCR_SMS;
 8003824:	689a      	ldr	r2, [r3, #8]
 8003826:	f002 0207 	and.w	r2, r2, #7
    if (!IS_TIM_SLAVEMODE_TRIGGER_ENABLED(tmpsmcr))
 800382a:	2a06      	cmp	r2, #6
 800382c:	d003      	beq.n	8003836 <HAL_TIM_Base_Start+0x3e>
      __HAL_TIM_ENABLE(htim);
    }
  }
  else
  {
    __HAL_TIM_ENABLE(htim);
 800382e:	681a      	ldr	r2, [r3, #0]
 8003830:	f042 0201 	orr.w	r2, r2, #1
 8003834:	601a      	str	r2, [r3, #0]
  }

  /* Return function status */
  return HAL_OK;
 8003836:	2000      	movs	r0, #0
}
 8003838:	4770      	bx	lr
    return HAL_ERROR;
 800383a:	2001      	movs	r0, #1
 800383c:	4770      	bx	lr
 800383e:	bf00      	nop
 8003840:	40012c00 	.word	0x40012c00

08003844 <HAL_TIM_Base_Start_IT>:

  /* Check the parameters */
  assert_param(IS_TIM_INSTANCE(htim->Instance));

  /* Check the TIM state */
  if (htim->State != HAL_TIM_STATE_READY)
 8003844:	f890 303d 	ldrb.w	r3, [r0, #61]	; 0x3d
 8003848:	2b01      	cmp	r3, #1
 800384a:	d120      	bne.n	800388e <HAL_TIM_Base_Start_IT+0x4a>
  {
    return HAL_ERROR;
  }

  /* Set the TIM state */
  htim->State = HAL_TIM_STATE_BUSY;
 800384c:	2302      	movs	r3, #2
 800384e:	f880 303d 	strb.w	r3, [r0, #61]	; 0x3d

  /* Enable the TIM Update interrupt */
  __HAL_TIM_ENABLE_IT(htim, TIM_IT_UPDATE);
 8003852:	6803      	ldr	r3, [r0, #0]
 8003854:	68da      	ldr	r2, [r3, #12]
 8003856:	f042 0201 	orr.w	r2, r2, #1
 800385a:	60da      	str	r2, [r3, #12]

  /* Enable the Peripheral, except in trigger mode where enable is automatically done with trigger */
  if (IS_TIM_SLAVE_INSTANCE(htim->Instance))
 800385c:	4a0d      	ldr	r2, [pc, #52]	; (8003894 <HAL_TIM_Base_Start_IT+0x50>)
 800385e:	4293      	cmp	r3, r2
 8003860:	d00a      	beq.n	8003878 <HAL_TIM_Base_Start_IT+0x34>
 8003862:	f1b3 4f80 	cmp.w	r3, #1073741824	; 0x40000000
 8003866:	d007      	beq.n	8003878 <HAL_TIM_Base_Start_IT+0x34>
 8003868:	f5a2 3294 	sub.w	r2, r2, #75776	; 0x12800
 800386c:	4293      	cmp	r3, r2
 800386e:	d003      	beq.n	8003878 <HAL_TIM_Base_Start_IT+0x34>
 8003870:	f502 6280 	add.w	r2, r2, #1024	; 0x400
 8003874:	4293      	cmp	r3, r2
 8003876:	d104      	bne.n	8003882 <HAL_TIM_Base_Start_IT+0x3e>
  {
    tmpsmcr = htim->Instance->SMCR & TIM_SMCR_SMS;
 8003878:	689a      	ldr	r2, [r3, #8]
 800387a:	f002 0207 	and.w	r2, r2, #7
    if (!IS_TIM_SLAVEMODE_TRIGGER_ENABLED(tmpsmcr))
 800387e:	2a06      	cmp	r2, #6
 8003880:	d003      	beq.n	800388a <HAL_TIM_Base_Start_IT+0x46>
      __HAL_TIM_ENABLE(htim);
    }
  }
  else
  {
    __HAL_TIM_ENABLE(htim);
 8003882:	681a      	ldr	r2, [r3, #0]
 8003884:	f042 0201 	orr.w	r2, r2, #1
 8003888:	601a      	str	r2, [r3, #0]
  }

  /* Return function status */
  return HAL_OK;
 800388a:	2000      	movs	r0, #0
}
 800388c:	4770      	bx	lr
    return HAL_ERROR;
 800388e:	2001      	movs	r0, #1
 8003890:	4770      	bx	lr
 8003892:	bf00      	nop
 8003894:	40012c00 	.word	0x40012c00

08003898 <HAL_TIM_Base_Stop_IT>:
{
  /* Check the parameters */
  assert_param(IS_TIM_INSTANCE(htim->Instance));

  /* Disable the TIM Update interrupt */
  __HAL_TIM_DISABLE_IT(htim, TIM_IT_UPDATE);
 8003898:	6803      	ldr	r3, [r0, #0]
 800389a:	68da      	ldr	r2, [r3, #12]
 800389c:	f022 0201 	bic.w	r2, r2, #1
 80038a0:	60da      	str	r2, [r3, #12]

  /* Disable the Peripheral */
  __HAL_TIM_DISABLE(htim);
 80038a2:	f241 1211 	movw	r2, #4369	; 0x1111
 80038a6:	6a19      	ldr	r1, [r3, #32]
 80038a8:	4211      	tst	r1, r2
 80038aa:	d108      	bne.n	80038be <HAL_TIM_Base_Stop_IT+0x26>
 80038ac:	f240 4244 	movw	r2, #1092	; 0x444
 80038b0:	6a19      	ldr	r1, [r3, #32]
 80038b2:	4211      	tst	r1, r2
 80038b4:	bf02      	ittt	eq
 80038b6:	681a      	ldreq	r2, [r3, #0]
 80038b8:	f022 0201 	biceq.w	r2, r2, #1
 80038bc:	601a      	streq	r2, [r3, #0]

  /* Set the TIM state */
  htim->State = HAL_TIM_STATE_READY;
 80038be:	2301      	movs	r3, #1
 80038c0:	f880 303d 	strb.w	r3, [r0, #61]	; 0x3d

  /* Return function status */
  return HAL_OK;
}
 80038c4:	2000      	movs	r0, #0
 80038c6:	4770      	bx	lr

080038c8 <HAL_TIM_OC_DelayElapsedCallback>:
 80038c8:	4770      	bx	lr

080038ca <HAL_TIM_IC_CaptureCallback>:
 80038ca:	4770      	bx	lr

080038cc <HAL_TIM_PWM_PulseFinishedCallback>:
 80038cc:	4770      	bx	lr

080038ce <HAL_TIM_TriggerCallback>:
 80038ce:	4770      	bx	lr

080038d0 <HAL_TIM_IRQHandler>:
  * @retval None
  */
void HAL_TIM_IRQHandler(TIM_HandleTypeDef *htim)
{
  /* Capture compare 1 event */
  if (__HAL_TIM_GET_FLAG(htim, TIM_FLAG_CC1) != RESET)
 80038d0:	6803      	ldr	r3, [r0, #0]
{
 80038d2:	b510      	push	{r4, lr}
  if (__HAL_TIM_GET_FLAG(htim, TIM_FLAG_CC1) != RESET)
 80038d4:	691a      	ldr	r2, [r3, #16]
{
 80038d6:	4604      	mov	r4, r0
  if (__HAL_TIM_GET_FLAG(htim, TIM_FLAG_CC1) != RESET)
 80038d8:	0791      	lsls	r1, r2, #30
 80038da:	d50e      	bpl.n	80038fa <HAL_TIM_IRQHandler+0x2a>
  {
    if (__HAL_TIM_GET_IT_SOURCE(htim, TIM_IT_CC1) != RESET)
 80038dc:	68da      	ldr	r2, [r3, #12]
 80038de:	0792      	lsls	r2, r2, #30
 80038e0:	d50b      	bpl.n	80038fa <HAL_TIM_IRQHandler+0x2a>
    {
      {
        __HAL_TIM_CLEAR_IT(htim, TIM_IT_CC1);
 80038e2:	f06f 0202 	mvn.w	r2, #2
 80038e6:	611a      	str	r2, [r3, #16]
        htim->Channel = HAL_TIM_ACTIVE_CHANNEL_1;
 80038e8:	2201      	movs	r2, #1

        /* Input capture event */
        if ((htim->Instance->CCMR1 & TIM_CCMR1_CC1S) != 0x00U)
 80038ea:	699b      	ldr	r3, [r3, #24]
        htim->Channel = HAL_TIM_ACTIVE_CHANNEL_1;
 80038ec:	7702      	strb	r2, [r0, #28]
        if ((htim->Instance->CCMR1 & TIM_CCMR1_CC1S) != 0x00U)
 80038ee:	079b      	lsls	r3, r3, #30
 80038f0:	d077      	beq.n	80039e2 <HAL_TIM_IRQHandler+0x112>
        {
#if (USE_HAL_TIM_REGISTER_CALLBACKS == 1)
          htim->IC_CaptureCallback(htim);
#else
          HAL_TIM_IC_CaptureCallback(htim);
 80038f2:	f7ff ffea 	bl	80038ca <HAL_TIM_IC_CaptureCallback>
#else
          HAL_TIM_OC_DelayElapsedCallback(htim);
          HAL_TIM_PWM_PulseFinishedCallback(htim);
#endif /* USE_HAL_TIM_REGISTER_CALLBACKS */
        }
        htim->Channel = HAL_TIM_ACTIVE_CHANNEL_CLEARED;
 80038f6:	2300      	movs	r3, #0
 80038f8:	7723      	strb	r3, [r4, #28]
      }
    }
  }
  /* Capture compare 2 event */
  if (__HAL_TIM_GET_FLAG(htim, TIM_FLAG_CC2) != RESET)
 80038fa:	6823      	ldr	r3, [r4, #0]
 80038fc:	691a      	ldr	r2, [r3, #16]
 80038fe:	0750      	lsls	r0, r2, #29
 8003900:	d510      	bpl.n	8003924 <HAL_TIM_IRQHandler+0x54>
  {
    if (__HAL_TIM_GET_IT_SOURCE(htim, TIM_IT_CC2) != RESET)
 8003902:	68da      	ldr	r2, [r3, #12]
 8003904:	0751      	lsls	r1, r2, #29
 8003906:	d50d      	bpl.n	8003924 <HAL_TIM_IRQHandler+0x54>
    {
      __HAL_TIM_CLEAR_IT(htim, TIM_IT_CC2);
 8003908:	f06f 0204 	mvn.w	r2, #4
 800390c:	611a      	str	r2, [r3, #16]
      htim->Channel = HAL_TIM_ACTIVE_CHANNEL_2;
 800390e:	2202      	movs	r2, #2
      /* Input capture event */
      if ((htim->Instance->CCMR1 & TIM_CCMR1_CC2S) != 0x00U)
 8003910:	699b      	ldr	r3, [r3, #24]
      htim->Channel = HAL_TIM_ACTIVE_CHANNEL_2;
 8003912:	7722      	strb	r2, [r4, #28]
      if ((htim->Instance->CCMR1 & TIM_CCMR1_CC2S) != 0x00U)
 8003914:	f413 7f40 	tst.w	r3, #768	; 0x300
      {
#if (USE_HAL_TIM_REGISTER_CALLBACKS == 1)
        htim->IC_CaptureCallback(htim);
#else
        HAL_TIM_IC_CaptureCallback(htim);
 8003918:	4620      	mov	r0, r4
      if ((htim->Instance->CCMR1 & TIM_CCMR1_CC2S) != 0x00U)
 800391a:	d068      	beq.n	80039ee <HAL_TIM_IRQHandler+0x11e>
        HAL_TIM_IC_CaptureCallback(htim);
 800391c:	f7ff ffd5 	bl	80038ca <HAL_TIM_IC_CaptureCallback>
#else
        HAL_TIM_OC_DelayElapsedCallback(htim);
        HAL_TIM_PWM_PulseFinishedCallback(htim);
#endif /* USE_HAL_TIM_REGISTER_CALLBACKS */
      }
      htim->Channel = HAL_TIM_ACTIVE_CHANNEL_CLEARED;
 8003920:	2300      	movs	r3, #0
 8003922:	7723      	strb	r3, [r4, #28]
    }
  }
  /* Capture compare 3 event */
  if (__HAL_TIM_GET_FLAG(htim, TIM_FLAG_CC3) != RESET)
 8003924:	6823      	ldr	r3, [r4, #0]
 8003926:	691a      	ldr	r2, [r3, #16]
 8003928:	0712      	lsls	r2, r2, #28
 800392a:	d50f      	bpl.n	800394c <HAL_TIM_IRQHandler+0x7c>
  {
    if (__HAL_TIM_GET_IT_SOURCE(htim, TIM_IT_CC3) != RESET)
 800392c:	68da      	ldr	r2, [r3, #12]
 800392e:	0710      	lsls	r0, r2, #28
 8003930:	d50c      	bpl.n	800394c <HAL_TIM_IRQHandler+0x7c>
    {
      __HAL_TIM_CLEAR_IT(htim, TIM_IT_CC3);
 8003932:	f06f 0208 	mvn.w	r2, #8
 8003936:	611a      	str	r2, [r3, #16]
      htim->Channel = HAL_TIM_ACTIVE_CHANNEL_3;
 8003938:	2204      	movs	r2, #4
      /* Input capture event */
      if ((htim->Instance->CCMR2 & TIM_CCMR2_CC3S) != 0x00U)
 800393a:	69db      	ldr	r3, [r3, #28]
      htim->Channel = HAL_TIM_ACTIVE_CHANNEL_3;
 800393c:	7722      	strb	r2, [r4, #28]
      if ((htim->Instance->CCMR2 & TIM_CCMR2_CC3S) != 0x00U)
 800393e:	0799      	lsls	r1, r3, #30
      {
#if (USE_HAL_TIM_REGISTER_CALLBACKS == 1)
        htim->IC_CaptureCallback(htim);
#else
        HAL_TIM_IC_CaptureCallback(htim);
 8003940:	4620      	mov	r0, r4
      if ((htim->Instance->CCMR2 & TIM_CCMR2_CC3S) != 0x00U)
 8003942:	d05a      	beq.n	80039fa <HAL_TIM_IRQHandler+0x12a>
        HAL_TIM_IC_CaptureCallback(htim);
 8003944:	f7ff ffc1 	bl	80038ca <HAL_TIM_IC_CaptureCallback>
#else
        HAL_TIM_OC_DelayElapsedCallback(htim);
        HAL_TIM_PWM_PulseFinishedCallback(htim);
#endif /* USE_HAL_TIM_REGISTER_CALLBACKS */
      }
      htim->Channel = HAL_TIM_ACTIVE_CHANNEL_CLEARED;
 8003948:	2300      	movs	r3, #0
 800394a:	7723      	strb	r3, [r4, #28]
    }
  }
  /* Capture compare 4 event */
  if (__HAL_TIM_GET_FLAG(htim, TIM_FLAG_CC4) != RESET)
 800394c:	6823      	ldr	r3, [r4, #0]
 800394e:	691a      	ldr	r2, [r3, #16]
 8003950:	06d2      	lsls	r2, r2, #27
 8003952:	d510      	bpl.n	8003976 <HAL_TIM_IRQHandler+0xa6>
  {
    if (__HAL_TIM_GET_IT_SOURCE(htim, TIM_IT_CC4) != RESET)
 8003954:	68da      	ldr	r2, [r3, #12]
 8003956:	06d0      	lsls	r0, r2, #27
 8003958:	d50d      	bpl.n	8003976 <HAL_TIM_IRQHandler+0xa6>
    {
      __HAL_TIM_CLEAR_IT(htim, TIM_IT_CC4);
 800395a:	f06f 0210 	mvn.w	r2, #16
 800395e:	611a      	str	r2, [r3, #16]
      htim->Channel = HAL_TIM_ACTIVE_CHANNEL_4;
 8003960:	2208      	movs	r2, #8
      /* Input capture event */
      if ((htim->Instance->CCMR2 & TIM_CCMR2_CC4S) != 0x00U)
 8003962:	69db      	ldr	r3, [r3, #28]
      htim->Channel = HAL_TIM_ACTIVE_CHANNEL_4;
 8003964:	7722      	strb	r2, [r4, #28]
      if ((htim->Instance->CCMR2 & TIM_CCMR2_CC4S) != 0x00U)
 8003966:	f413 7f40 	tst.w	r3, #768	; 0x300
      {
#if (USE_HAL_TIM_REGISTER_CALLBACKS == 1)
        htim->IC_CaptureCallback(htim);
#else
        HAL_TIM_IC_CaptureCallback(htim);
 800396a:	4620      	mov	r0, r4
      if ((htim->Instance->CCMR2 & TIM_CCMR2_CC4S) != 0x00U)
 800396c:	d04b      	beq.n	8003a06 <HAL_TIM_IRQHandler+0x136>
        HAL_TIM_IC_CaptureCallback(htim);
 800396e:	f7ff ffac 	bl	80038ca <HAL_TIM_IC_CaptureCallback>
#else
        HAL_TIM_OC_DelayElapsedCallback(htim);
        HAL_TIM_PWM_PulseFinishedCallback(htim);
#endif /* USE_HAL_TIM_REGISTER_CALLBACKS */
      }
      htim->Channel = HAL_TIM_ACTIVE_CHANNEL_CLEARED;
 8003972:	2300      	movs	r3, #0
 8003974:	7723      	strb	r3, [r4, #28]
    }
  }
  /* TIM Update event */
  if (__HAL_TIM_GET_FLAG(htim, TIM_FLAG_UPDATE) != RESET)
 8003976:	6823      	ldr	r3, [r4, #0]
 8003978:	691a      	ldr	r2, [r3, #16]
 800397a:	07d1      	lsls	r1, r2, #31
 800397c:	d508      	bpl.n	8003990 <HAL_TIM_IRQHandler+0xc0>
  {
    if (__HAL_TIM_GET_IT_SOURCE(htim, TIM_IT_UPDATE) != RESET)
 800397e:	68da      	ldr	r2, [r3, #12]
 8003980:	07d2      	lsls	r2, r2, #31
 8003982:	d505      	bpl.n	8003990 <HAL_TIM_IRQHandler+0xc0>
    {
      __HAL_TIM_CLEAR_IT(htim, TIM_IT_UPDATE);
 8003984:	f06f 0201 	mvn.w	r2, #1
#if (USE_HAL_TIM_REGISTER_CALLBACKS == 1)
      htim->PeriodElapsedCallback(htim);
#else
      HAL_TIM_PeriodElapsedCallback(htim);
 8003988:	4620      	mov	r0, r4
      __HAL_TIM_CLEAR_IT(htim, TIM_IT_UPDATE);
 800398a:	611a      	str	r2, [r3, #16]
      HAL_TIM_PeriodElapsedCallback(htim);
 800398c:	f7fe f834 	bl	80019f8 <HAL_TIM_PeriodElapsedCallback>
#endif /* USE_HAL_TIM_REGISTER_CALLBACKS */
    }
  }
  /* TIM Break input event */
  if (__HAL_TIM_GET_FLAG(htim, TIM_FLAG_BREAK) != RESET)
 8003990:	6823      	ldr	r3, [r4, #0]
 8003992:	691a      	ldr	r2, [r3, #16]
 8003994:	0610      	lsls	r0, r2, #24
 8003996:	d508      	bpl.n	80039aa <HAL_TIM_IRQHandler+0xda>
  {
    if (__HAL_TIM_GET_IT_SOURCE(htim, TIM_IT_BREAK) != RESET)
 8003998:	68da      	ldr	r2, [r3, #12]
 800399a:	0611      	lsls	r1, r2, #24
 800399c:	d505      	bpl.n	80039aa <HAL_TIM_IRQHandler+0xda>
    {
      __HAL_TIM_CLEAR_IT(htim, TIM_IT_BREAK);
 800399e:	f06f 0280 	mvn.w	r2, #128	; 0x80
#if (USE_HAL_TIM_REGISTER_CALLBACKS == 1)
      htim->BreakCallback(htim);
#else
      HAL_TIMEx_BreakCallback(htim);
 80039a2:	4620      	mov	r0, r4
      __HAL_TIM_CLEAR_IT(htim, TIM_IT_BREAK);
 80039a4:	611a      	str	r2, [r3, #16]
      HAL_TIMEx_BreakCallback(htim);
 80039a6:	f000 f96a 	bl	8003c7e <HAL_TIMEx_BreakCallback>
#endif /* USE_HAL_TIM_REGISTER_CALLBACKS */
    }
  }
  /* TIM Trigger detection event */
  if (__HAL_TIM_GET_FLAG(htim, TIM_FLAG_TRIGGER) != RESET)
 80039aa:	6823      	ldr	r3, [r4, #0]
 80039ac:	691a      	ldr	r2, [r3, #16]
 80039ae:	0652      	lsls	r2, r2, #25
 80039b0:	d508      	bpl.n	80039c4 <HAL_TIM_IRQHandler+0xf4>
  {
    if (__HAL_TIM_GET_IT_SOURCE(htim, TIM_IT_TRIGGER) != RESET)
 80039b2:	68da      	ldr	r2, [r3, #12]
 80039b4:	0650      	lsls	r0, r2, #25
 80039b6:	d505      	bpl.n	80039c4 <HAL_TIM_IRQHandler+0xf4>
    {
      __HAL_TIM_CLEAR_IT(htim, TIM_IT_TRIGGER);
 80039b8:	f06f 0240 	mvn.w	r2, #64	; 0x40
#if (USE_HAL_TIM_REGISTER_CALLBACKS == 1)
      htim->TriggerCallback(htim);
#else
      HAL_TIM_TriggerCallback(htim);
 80039bc:	4620      	mov	r0, r4
      __HAL_TIM_CLEAR_IT(htim, TIM_IT_TRIGGER);
 80039be:	611a      	str	r2, [r3, #16]
      HAL_TIM_TriggerCallback(htim);
 80039c0:	f7ff ff85 	bl	80038ce <HAL_TIM_TriggerCallback>
#endif /* USE_HAL_TIM_REGISTER_CALLBACKS */
    }
  }
  /* TIM commutation event */
  if (__HAL_TIM_GET_FLAG(htim, TIM_FLAG_COM) != RESET)
 80039c4:	6823      	ldr	r3, [r4, #0]
 80039c6:	691a      	ldr	r2, [r3, #16]
 80039c8:	0691      	lsls	r1, r2, #26
 80039ca:	d522      	bpl.n	8003a12 <HAL_TIM_IRQHandler+0x142>
  {
    if (__HAL_TIM_GET_IT_SOURCE(htim, TIM_IT_COM) != RESET)
 80039cc:	68da      	ldr	r2, [r3, #12]
 80039ce:	0692      	lsls	r2, r2, #26
 80039d0:	d51f      	bpl.n	8003a12 <HAL_TIM_IRQHandler+0x142>
    {
      __HAL_TIM_CLEAR_IT(htim, TIM_FLAG_COM);
 80039d2:	f06f 0220 	mvn.w	r2, #32
#if (USE_HAL_TIM_REGISTER_CALLBACKS == 1)
      htim->CommutationCallback(htim);
#else
      HAL_TIMEx_CommutCallback(htim);
 80039d6:	4620      	mov	r0, r4
#endif /* USE_HAL_TIM_REGISTER_CALLBACKS */
    }
  }
}
 80039d8:	e8bd 4010 	ldmia.w	sp!, {r4, lr}
      __HAL_TIM_CLEAR_IT(htim, TIM_FLAG_COM);
 80039dc:	611a      	str	r2, [r3, #16]
      HAL_TIMEx_CommutCallback(htim);
 80039de:	f000 b94d 	b.w	8003c7c <HAL_TIMEx_CommutCallback>
          HAL_TIM_OC_DelayElapsedCallback(htim);
 80039e2:	f7ff ff71 	bl	80038c8 <HAL_TIM_OC_DelayElapsedCallback>
          HAL_TIM_PWM_PulseFinishedCallback(htim);
 80039e6:	4620      	mov	r0, r4
 80039e8:	f7ff ff70 	bl	80038cc <HAL_TIM_PWM_PulseFinishedCallback>
 80039ec:	e783      	b.n	80038f6 <HAL_TIM_IRQHandler+0x26>
        HAL_TIM_OC_DelayElapsedCallback(htim);
 80039ee:	f7ff ff6b 	bl	80038c8 <HAL_TIM_OC_DelayElapsedCallback>
        HAL_TIM_PWM_PulseFinishedCallback(htim);
 80039f2:	4620      	mov	r0, r4
 80039f4:	f7ff ff6a 	bl	80038cc <HAL_TIM_PWM_PulseFinishedCallback>
 80039f8:	e792      	b.n	8003920 <HAL_TIM_IRQHandler+0x50>
        HAL_TIM_OC_DelayElapsedCallback(htim);
 80039fa:	f7ff ff65 	bl	80038c8 <HAL_TIM_OC_DelayElapsedCallback>
        HAL_TIM_PWM_PulseFinishedCallback(htim);
 80039fe:	4620      	mov	r0, r4
 8003a00:	f7ff ff64 	bl	80038cc <HAL_TIM_PWM_PulseFinishedCallback>
 8003a04:	e7a0      	b.n	8003948 <HAL_TIM_IRQHandler+0x78>
        HAL_TIM_OC_DelayElapsedCallback(htim);
 8003a06:	f7ff ff5f 	bl	80038c8 <HAL_TIM_OC_DelayElapsedCallback>
        HAL_TIM_PWM_PulseFinishedCallback(htim);
 8003a0a:	4620      	mov	r0, r4
 8003a0c:	f7ff ff5e 	bl	80038cc <HAL_TIM_PWM_PulseFinishedCallback>
 8003a10:	e7af      	b.n	8003972 <HAL_TIM_IRQHandler+0xa2>
 8003a12:	bd10      	pop	{r4, pc}

08003a14 <TIM_Base_SetConfig>:
{
  uint32_t tmpcr1;
  tmpcr1 = TIMx->CR1;

  /* Set TIM Time Base Unit parameters ---------------------------------------*/
  if (IS_TIM_COUNTER_MODE_SELECT_INSTANCE(TIMx))
 8003a14:	4a1a      	ldr	r2, [pc, #104]	; (8003a80 <TIM_Base_SetConfig+0x6c>)
  tmpcr1 = TIMx->CR1;
 8003a16:	6803      	ldr	r3, [r0, #0]
  if (IS_TIM_COUNTER_MODE_SELECT_INSTANCE(TIMx))
 8003a18:	4290      	cmp	r0, r2
 8003a1a:	d00a      	beq.n	8003a32 <TIM_Base_SetConfig+0x1e>
 8003a1c:	f1b0 4f80 	cmp.w	r0, #1073741824	; 0x40000000
 8003a20:	d007      	beq.n	8003a32 <TIM_Base_SetConfig+0x1e>
 8003a22:	f5a2 3294 	sub.w	r2, r2, #75776	; 0x12800
 8003a26:	4290      	cmp	r0, r2
 8003a28:	d003      	beq.n	8003a32 <TIM_Base_SetConfig+0x1e>
 8003a2a:	f502 6280 	add.w	r2, r2, #1024	; 0x400
 8003a2e:	4290      	cmp	r0, r2
 8003a30:	d115      	bne.n	8003a5e <TIM_Base_SetConfig+0x4a>
  {
    /* Select the Counter Mode */
    tmpcr1 &= ~(TIM_CR1_DIR | TIM_CR1_CMS);
    tmpcr1 |= Structure->CounterMode;
 8003a32:	684a      	ldr	r2, [r1, #4]
    tmpcr1 &= ~(TIM_CR1_DIR | TIM_CR1_CMS);
 8003a34:	f023 0370 	bic.w	r3, r3, #112	; 0x70
    tmpcr1 |= Structure->CounterMode;
 8003a38:	4313      	orrs	r3, r2
  }

  if (IS_TIM_CLOCK_DIVISION_INSTANCE(TIMx))
 8003a3a:	4a11      	ldr	r2, [pc, #68]	; (8003a80 <TIM_Base_SetConfig+0x6c>)
 8003a3c:	4290      	cmp	r0, r2
 8003a3e:	d00a      	beq.n	8003a56 <TIM_Base_SetConfig+0x42>
 8003a40:	f1b0 4f80 	cmp.w	r0, #1073741824	; 0x40000000
 8003a44:	d007      	beq.n	8003a56 <TIM_Base_SetConfig+0x42>
 8003a46:	f5a2 3294 	sub.w	r2, r2, #75776	; 0x12800
 8003a4a:	4290      	cmp	r0, r2
 8003a4c:	d003      	beq.n	8003a56 <TIM_Base_SetConfig+0x42>
 8003a4e:	f502 6280 	add.w	r2, r2, #1024	; 0x400
 8003a52:	4290      	cmp	r0, r2
 8003a54:	d103      	bne.n	8003a5e <TIM_Base_SetConfig+0x4a>
  {
    /* Set the clock division */
    tmpcr1 &= ~TIM_CR1_CKD;
    tmpcr1 |= (uint32_t)Structure->ClockDivision;
 8003a56:	68ca      	ldr	r2, [r1, #12]
    tmpcr1 &= ~TIM_CR1_CKD;
 8003a58:	f423 7340 	bic.w	r3, r3, #768	; 0x300
    tmpcr1 |= (uint32_t)Structure->ClockDivision;
 8003a5c:	4313      	orrs	r3, r2
  }

  /* Set the auto-reload preload */
  MODIFY_REG(tmpcr1, TIM_CR1_ARPE, Structure->AutoReloadPreload);
 8003a5e:	694a      	ldr	r2, [r1, #20]
 8003a60:	f023 0380 	bic.w	r3, r3, #128	; 0x80
 8003a64:	4313      	orrs	r3, r2

  TIMx->CR1 = tmpcr1;
 8003a66:	6003      	str	r3, [r0, #0]

  /* Set the Autoreload value */
  TIMx->ARR = (uint32_t)Structure->Period ;
 8003a68:	688b      	ldr	r3, [r1, #8]
 8003a6a:	62c3      	str	r3, [r0, #44]	; 0x2c

  /* Set the Prescaler value */
  TIMx->PSC = Structure->Prescaler;
 8003a6c:	680b      	ldr	r3, [r1, #0]
 8003a6e:	6283      	str	r3, [r0, #40]	; 0x28

  if (IS_TIM_REPETITION_COUNTER_INSTANCE(TIMx))
 8003a70:	4b03      	ldr	r3, [pc, #12]	; (8003a80 <TIM_Base_SetConfig+0x6c>)
 8003a72:	4298      	cmp	r0, r3
  {
    /* Set the Repetition Counter value */
    TIMx->RCR = Structure->RepetitionCounter;
 8003a74:	bf04      	itt	eq
 8003a76:	690b      	ldreq	r3, [r1, #16]
 8003a78:	6303      	streq	r3, [r0, #48]	; 0x30
  }

  /* Generate an update event to reload the Prescaler
     and the repetition counter (only for advanced timer) value immediately */
  TIMx->EGR = TIM_EGR_UG;
 8003a7a:	2301      	movs	r3, #1
 8003a7c:	6143      	str	r3, [r0, #20]
 8003a7e:	4770      	bx	lr
 8003a80:	40012c00 	.word	0x40012c00

08003a84 <HAL_TIM_Base_Init>:
{
 8003a84:	b510      	push	{r4, lr}
  if (htim == NULL)
 8003a86:	4604      	mov	r4, r0
 8003a88:	b330      	cbz	r0, 8003ad8 <HAL_TIM_Base_Init+0x54>
  if (htim->State == HAL_TIM_STATE_RESET)
 8003a8a:	f890 303d 	ldrb.w	r3, [r0, #61]	; 0x3d
 8003a8e:	f003 02ff 	and.w	r2, r3, #255	; 0xff
 8003a92:	b91b      	cbnz	r3, 8003a9c <HAL_TIM_Base_Init+0x18>
    htim->Lock = HAL_UNLOCKED;
 8003a94:	f880 203c 	strb.w	r2, [r0, #60]	; 0x3c
    HAL_TIM_Base_MspInit(htim);
 8003a98:	f7fe fdc2 	bl	8002620 <HAL_TIM_Base_MspInit>
  htim->State = HAL_TIM_STATE_BUSY;
 8003a9c:	2302      	movs	r3, #2
  TIM_Base_SetConfig(htim->Instance, &htim->Init);
 8003a9e:	6820      	ldr	r0, [r4, #0]
  htim->State = HAL_TIM_STATE_BUSY;
 8003aa0:	f884 303d 	strb.w	r3, [r4, #61]	; 0x3d
  TIM_Base_SetConfig(htim->Instance, &htim->Init);
 8003aa4:	1d21      	adds	r1, r4, #4
 8003aa6:	f7ff ffb5 	bl	8003a14 <TIM_Base_SetConfig>
  htim->DMABurstState = HAL_DMA_BURST_STATE_READY;
 8003aaa:	2301      	movs	r3, #1
  return HAL_OK;
 8003aac:	2000      	movs	r0, #0
  htim->DMABurstState = HAL_DMA_BURST_STATE_READY;
 8003aae:	f884 3046 	strb.w	r3, [r4, #70]	; 0x46
  TIM_CHANNEL_STATE_SET_ALL(htim, HAL_TIM_CHANNEL_STATE_READY);
 8003ab2:	f884 303e 	strb.w	r3, [r4, #62]	; 0x3e
 8003ab6:	f884 303f 	strb.w	r3, [r4, #63]	; 0x3f
 8003aba:	f884 3040 	strb.w	r3, [r4, #64]	; 0x40
 8003abe:	f884 3041 	strb.w	r3, [r4, #65]	; 0x41
  TIM_CHANNEL_N_STATE_SET_ALL(htim, HAL_TIM_CHANNEL_STATE_READY);
 8003ac2:	f884 3042 	strb.w	r3, [r4, #66]	; 0x42
 8003ac6:	f884 3043 	strb.w	r3, [r4, #67]	; 0x43
 8003aca:	f884 3044 	strb.w	r3, [r4, #68]	; 0x44
 8003ace:	f884 3045 	strb.w	r3, [r4, #69]	; 0x45
  htim->State = HAL_TIM_STATE_READY;
 8003ad2:	f884 303d 	strb.w	r3, [r4, #61]	; 0x3d
  return HAL_OK;
 8003ad6:	bd10      	pop	{r4, pc}
    return HAL_ERROR;
 8003ad8:	2001      	movs	r0, #1
}
 8003ada:	bd10      	pop	{r4, pc}

08003adc <TIM_ETR_SetConfig>:
  *          This parameter must be a value between 0x00 and 0x0F
  * @retval None
  */
void TIM_ETR_SetConfig(TIM_TypeDef *TIMx, uint32_t TIM_ExtTRGPrescaler,
                       uint32_t TIM_ExtTRGPolarity, uint32_t ExtTRGFilter)
{
 8003adc:	b510      	push	{r4, lr}
  uint32_t tmpsmcr;

  tmpsmcr = TIMx->SMCR;
 8003ade:	6884      	ldr	r4, [r0, #8]

  /* Reset the ETR Bits */
  tmpsmcr &= ~(TIM_SMCR_ETF | TIM_SMCR_ETPS | TIM_SMCR_ECE | TIM_SMCR_ETP);

  /* Set the Prescaler, the Filter value and the Polarity */
  tmpsmcr |= (uint32_t)(TIM_ExtTRGPrescaler | (TIM_ExtTRGPolarity | (ExtTRGFilter << 8U)));
 8003ae0:	430a      	orrs	r2, r1
  tmpsmcr &= ~(TIM_SMCR_ETF | TIM_SMCR_ETPS | TIM_SMCR_ECE | TIM_SMCR_ETP);
 8003ae2:	f424 447f 	bic.w	r4, r4, #65280	; 0xff00
  tmpsmcr |= (uint32_t)(TIM_ExtTRGPrescaler | (TIM_ExtTRGPolarity | (ExtTRGFilter << 8U)));
 8003ae6:	ea42 2303 	orr.w	r3, r2, r3, lsl #8
 8003aea:	4323      	orrs	r3, r4

  /* Write to TIMx SMCR */
  TIMx->SMCR = tmpsmcr;
 8003aec:	6083      	str	r3, [r0, #8]
 8003aee:	bd10      	pop	{r4, pc}

08003af0 <HAL_TIM_ConfigClockSource>:
  __HAL_LOCK(htim);
 8003af0:	f890 303c 	ldrb.w	r3, [r0, #60]	; 0x3c
{
 8003af4:	b570      	push	{r4, r5, r6, lr}
  __HAL_LOCK(htim);
 8003af6:	2b01      	cmp	r3, #1
{
 8003af8:	4604      	mov	r4, r0
 8003afa:	f04f 0002 	mov.w	r0, #2
  __HAL_LOCK(htim);
 8003afe:	d019      	beq.n	8003b34 <HAL_TIM_ConfigClockSource+0x44>
 8003b00:	2301      	movs	r3, #1
  htim->State = HAL_TIM_STATE_BUSY;
 8003b02:	f884 003d 	strb.w	r0, [r4, #61]	; 0x3d
  tmpsmcr = htim->Instance->SMCR;
 8003b06:	6820      	ldr	r0, [r4, #0]
  __HAL_LOCK(htim);
 8003b08:	f884 303c 	strb.w	r3, [r4, #60]	; 0x3c
  tmpsmcr = htim->Instance->SMCR;
 8003b0c:	6883      	ldr	r3, [r0, #8]
  tmpsmcr &= ~(TIM_SMCR_ETF | TIM_SMCR_ETPS | TIM_SMCR_ECE | TIM_SMCR_ETP);
 8003b0e:	f423 437f 	bic.w	r3, r3, #65280	; 0xff00
 8003b12:	f023 0377 	bic.w	r3, r3, #119	; 0x77
  htim->Instance->SMCR = tmpsmcr;
 8003b16:	6083      	str	r3, [r0, #8]
  switch (sClockSourceConfig->ClockSource)
 8003b18:	680b      	ldr	r3, [r1, #0]
 8003b1a:	2b40      	cmp	r3, #64	; 0x40
 8003b1c:	d065      	beq.n	8003bea <HAL_TIM_ConfigClockSource+0xfa>
 8003b1e:	d815      	bhi.n	8003b4c <HAL_TIM_ConfigClockSource+0x5c>
 8003b20:	2b10      	cmp	r3, #16
 8003b22:	d00c      	beq.n	8003b3e <HAL_TIM_ConfigClockSource+0x4e>
 8003b24:	d807      	bhi.n	8003b36 <HAL_TIM_ConfigClockSource+0x46>
 8003b26:	b153      	cbz	r3, 8003b3e <HAL_TIM_ConfigClockSource+0x4e>
  htim->State = HAL_TIM_STATE_READY;
 8003b28:	2301      	movs	r3, #1
  __HAL_UNLOCK(htim);
 8003b2a:	2000      	movs	r0, #0
  htim->State = HAL_TIM_STATE_READY;
 8003b2c:	f884 303d 	strb.w	r3, [r4, #61]	; 0x3d
  __HAL_UNLOCK(htim);
 8003b30:	f884 003c 	strb.w	r0, [r4, #60]	; 0x3c
}
 8003b34:	bd70      	pop	{r4, r5, r6, pc}
  switch (sClockSourceConfig->ClockSource)
 8003b36:	2b20      	cmp	r3, #32
 8003b38:	d001      	beq.n	8003b3e <HAL_TIM_ConfigClockSource+0x4e>
 8003b3a:	2b30      	cmp	r3, #48	; 0x30
 8003b3c:	d1f4      	bne.n	8003b28 <HAL_TIM_ConfigClockSource+0x38>
  tmpsmcr = TIMx->SMCR;
 8003b3e:	6882      	ldr	r2, [r0, #8]
  tmpsmcr |= (InputTriggerSource | TIM_SLAVEMODE_EXTERNAL1);
 8003b40:	f043 0307 	orr.w	r3, r3, #7
  tmpsmcr &= ~TIM_SMCR_TS;
 8003b44:	f022 0270 	bic.w	r2, r2, #112	; 0x70
  tmpsmcr |= (InputTriggerSource | TIM_SLAVEMODE_EXTERNAL1);
 8003b48:	4313      	orrs	r3, r2
 8003b4a:	e01a      	b.n	8003b82 <HAL_TIM_ConfigClockSource+0x92>
  switch (sClockSourceConfig->ClockSource)
 8003b4c:	2b60      	cmp	r3, #96	; 0x60
 8003b4e:	d034      	beq.n	8003bba <HAL_TIM_ConfigClockSource+0xca>
 8003b50:	d819      	bhi.n	8003b86 <HAL_TIM_ConfigClockSource+0x96>
 8003b52:	2b50      	cmp	r3, #80	; 0x50
 8003b54:	d1e8      	bne.n	8003b28 <HAL_TIM_ConfigClockSource+0x38>
      TIM_TI1_ConfigInputStage(htim->Instance,
 8003b56:	684a      	ldr	r2, [r1, #4]
 8003b58:	68ce      	ldr	r6, [r1, #12]
  tmpccer = TIMx->CCER;
 8003b5a:	6a01      	ldr	r1, [r0, #32]
  TIMx->CCER &= ~TIM_CCER_CC1E;
 8003b5c:	6a05      	ldr	r5, [r0, #32]
  tmpccer &= ~(TIM_CCER_CC1P | TIM_CCER_CC1NP);
 8003b5e:	f021 010a 	bic.w	r1, r1, #10
  TIMx->CCER &= ~TIM_CCER_CC1E;
 8003b62:	f025 0501 	bic.w	r5, r5, #1
 8003b66:	6205      	str	r5, [r0, #32]
  tmpccmr1 = TIMx->CCMR1;
 8003b68:	6983      	ldr	r3, [r0, #24]
  tmpccer |= TIM_ICPolarity;
 8003b6a:	430a      	orrs	r2, r1
  tmpccmr1 &= ~TIM_CCMR1_IC1F;
 8003b6c:	f023 03f0 	bic.w	r3, r3, #240	; 0xf0
  tmpccmr1 |= (TIM_ICFilter << 4U);
 8003b70:	ea43 1306 	orr.w	r3, r3, r6, lsl #4
  TIMx->CCMR1 = tmpccmr1;
 8003b74:	6183      	str	r3, [r0, #24]
  TIMx->CCER = tmpccer;
 8003b76:	6202      	str	r2, [r0, #32]
  tmpsmcr = TIMx->SMCR;
 8003b78:	6883      	ldr	r3, [r0, #8]
  tmpsmcr &= ~TIM_SMCR_TS;
 8003b7a:	f023 0370 	bic.w	r3, r3, #112	; 0x70
  tmpsmcr |= (InputTriggerSource | TIM_SLAVEMODE_EXTERNAL1);
 8003b7e:	f043 0357 	orr.w	r3, r3, #87	; 0x57
  TIMx->SMCR = tmpsmcr;
 8003b82:	6083      	str	r3, [r0, #8]
 8003b84:	e7d0      	b.n	8003b28 <HAL_TIM_ConfigClockSource+0x38>
  switch (sClockSourceConfig->ClockSource)
 8003b86:	2b70      	cmp	r3, #112	; 0x70
 8003b88:	d00c      	beq.n	8003ba4 <HAL_TIM_ConfigClockSource+0xb4>
 8003b8a:	f5b3 5f00 	cmp.w	r3, #8192	; 0x2000
 8003b8e:	d1cb      	bne.n	8003b28 <HAL_TIM_ConfigClockSource+0x38>
      TIM_ETR_SetConfig(htim->Instance,
 8003b90:	68cb      	ldr	r3, [r1, #12]
 8003b92:	684a      	ldr	r2, [r1, #4]
 8003b94:	6889      	ldr	r1, [r1, #8]
 8003b96:	f7ff ffa1 	bl	8003adc <TIM_ETR_SetConfig>
      htim->Instance->SMCR |= TIM_SMCR_ECE;
 8003b9a:	6822      	ldr	r2, [r4, #0]
 8003b9c:	6893      	ldr	r3, [r2, #8]
 8003b9e:	f443 4380 	orr.w	r3, r3, #16384	; 0x4000
 8003ba2:	e008      	b.n	8003bb6 <HAL_TIM_ConfigClockSource+0xc6>
      TIM_ETR_SetConfig(htim->Instance,
 8003ba4:	68cb      	ldr	r3, [r1, #12]
 8003ba6:	684a      	ldr	r2, [r1, #4]
 8003ba8:	6889      	ldr	r1, [r1, #8]
 8003baa:	f7ff ff97 	bl	8003adc <TIM_ETR_SetConfig>
      tmpsmcr = htim->Instance->SMCR;
 8003bae:	6822      	ldr	r2, [r4, #0]
 8003bb0:	6893      	ldr	r3, [r2, #8]
      tmpsmcr |= (TIM_SLAVEMODE_EXTERNAL1 | TIM_CLOCKSOURCE_ETRMODE1);
 8003bb2:	f043 0377 	orr.w	r3, r3, #119	; 0x77
      htim->Instance->SMCR |= TIM_SMCR_ECE;
 8003bb6:	6093      	str	r3, [r2, #8]
      break;
 8003bb8:	e7b6      	b.n	8003b28 <HAL_TIM_ConfigClockSource+0x38>
      TIM_TI2_ConfigInputStage(htim->Instance,
 8003bba:	684d      	ldr	r5, [r1, #4]
 8003bbc:	68ce      	ldr	r6, [r1, #12]
  TIMx->CCER &= ~TIM_CCER_CC2E;
 8003bbe:	6a01      	ldr	r1, [r0, #32]
 8003bc0:	f021 0110 	bic.w	r1, r1, #16
 8003bc4:	6201      	str	r1, [r0, #32]
  tmpccmr1 = TIMx->CCMR1;
 8003bc6:	6982      	ldr	r2, [r0, #24]
  tmpccer = TIMx->CCER;
 8003bc8:	6a03      	ldr	r3, [r0, #32]
  tmpccmr1 &= ~TIM_CCMR1_IC2F;
 8003bca:	f422 4270 	bic.w	r2, r2, #61440	; 0xf000
  tmpccer &= ~(TIM_CCER_CC2P | TIM_CCER_CC2NP);
 8003bce:	f023 03a0 	bic.w	r3, r3, #160	; 0xa0
  tmpccer |= (TIM_ICPolarity << 4U);
 8003bd2:	ea43 1305 	orr.w	r3, r3, r5, lsl #4
  tmpccmr1 |= (TIM_ICFilter << 12U);
 8003bd6:	ea42 3206 	orr.w	r2, r2, r6, lsl #12
  TIMx->CCMR1 = tmpccmr1 ;
 8003bda:	6182      	str	r2, [r0, #24]
  TIMx->CCER = tmpccer;
 8003bdc:	6203      	str	r3, [r0, #32]
  tmpsmcr = TIMx->SMCR;
 8003bde:	6883      	ldr	r3, [r0, #8]
  tmpsmcr &= ~TIM_SMCR_TS;
 8003be0:	f023 0370 	bic.w	r3, r3, #112	; 0x70
  tmpsmcr |= (InputTriggerSource | TIM_SLAVEMODE_EXTERNAL1);
 8003be4:	f043 0367 	orr.w	r3, r3, #103	; 0x67
 8003be8:	e7cb      	b.n	8003b82 <HAL_TIM_ConfigClockSource+0x92>
      TIM_TI1_ConfigInputStage(htim->Instance,
 8003bea:	684a      	ldr	r2, [r1, #4]
 8003bec:	68ce      	ldr	r6, [r1, #12]
  tmpccer = TIMx->CCER;
 8003bee:	6a01      	ldr	r1, [r0, #32]
  TIMx->CCER &= ~TIM_CCER_CC1E;
 8003bf0:	6a05      	ldr	r5, [r0, #32]
  tmpccer &= ~(TIM_CCER_CC1P | TIM_CCER_CC1NP);
 8003bf2:	f021 010a 	bic.w	r1, r1, #10
  TIMx->CCER &= ~TIM_CCER_CC1E;
 8003bf6:	f025 0501 	bic.w	r5, r5, #1
 8003bfa:	6205      	str	r5, [r0, #32]
  tmpccmr1 = TIMx->CCMR1;
 8003bfc:	6983      	ldr	r3, [r0, #24]
  tmpccer |= TIM_ICPolarity;
 8003bfe:	430a      	orrs	r2, r1
  tmpccmr1 &= ~TIM_CCMR1_IC1F;
 8003c00:	f023 03f0 	bic.w	r3, r3, #240	; 0xf0
  tmpccmr1 |= (TIM_ICFilter << 4U);
 8003c04:	ea43 1306 	orr.w	r3, r3, r6, lsl #4
  TIMx->CCMR1 = tmpccmr1;
 8003c08:	6183      	str	r3, [r0, #24]
  TIMx->CCER = tmpccer;
 8003c0a:	6202      	str	r2, [r0, #32]
  tmpsmcr = TIMx->SMCR;
 8003c0c:	6883      	ldr	r3, [r0, #8]
  tmpsmcr &= ~TIM_SMCR_TS;
 8003c0e:	f023 0370 	bic.w	r3, r3, #112	; 0x70
  tmpsmcr |= (InputTriggerSource | TIM_SLAVEMODE_EXTERNAL1);
 8003c12:	f043 0347 	orr.w	r3, r3, #71	; 0x47
 8003c16:	e7b4      	b.n	8003b82 <HAL_TIM_ConfigClockSource+0x92>

08003c18 <HAL_TIMEx_MasterConfigSynchronization>:
  assert_param(IS_TIM_MASTER_INSTANCE(htim->Instance));
  assert_param(IS_TIM_TRGO_SOURCE(sMasterConfig->MasterOutputTrigger));
  assert_param(IS_TIM_MSM_STATE(sMasterConfig->MasterSlaveMode));

  /* Check input state */
  __HAL_LOCK(htim);
 8003c18:	f890 303c 	ldrb.w	r3, [r0, #60]	; 0x3c
{
 8003c1c:	b530      	push	{r4, r5, lr}
  __HAL_LOCK(htim);
 8003c1e:	2b01      	cmp	r3, #1
 8003c20:	f04f 0302 	mov.w	r3, #2
 8003c24:	d025      	beq.n	8003c72 <HAL_TIMEx_MasterConfigSynchronization+0x5a>
 8003c26:	2201      	movs	r2, #1

  /* Change the handler state */
  htim->State = HAL_TIM_STATE_BUSY;
 8003c28:	f880 303d 	strb.w	r3, [r0, #61]	; 0x3d

  /* Get the TIMx CR2 register value */
  tmpcr2 = htim->Instance->CR2;
 8003c2c:	6803      	ldr	r3, [r0, #0]
  tmpsmcr = htim->Instance->SMCR;

  /* Reset the MMS Bits */
  tmpcr2 &= ~TIM_CR2_MMS;
  /* Select the TRGO source */
  tmpcr2 |=  sMasterConfig->MasterOutputTrigger;
 8003c2e:	680d      	ldr	r5, [r1, #0]
  tmpcr2 = htim->Instance->CR2;
 8003c30:	685c      	ldr	r4, [r3, #4]
  __HAL_LOCK(htim);
 8003c32:	f880 203c 	strb.w	r2, [r0, #60]	; 0x3c
  tmpcr2 &= ~TIM_CR2_MMS;
 8003c36:	f024 0470 	bic.w	r4, r4, #112	; 0x70
  tmpcr2 |=  sMasterConfig->MasterOutputTrigger;
 8003c3a:	432c      	orrs	r4, r5
  tmpsmcr = htim->Instance->SMCR;
 8003c3c:	689a      	ldr	r2, [r3, #8]

  /* Update TIMx CR2 */
  htim->Instance->CR2 = tmpcr2;
 8003c3e:	605c      	str	r4, [r3, #4]

  if (IS_TIM_SLAVE_INSTANCE(htim->Instance))
 8003c40:	4c0d      	ldr	r4, [pc, #52]	; (8003c78 <HAL_TIMEx_MasterConfigSynchronization+0x60>)
 8003c42:	42a3      	cmp	r3, r4
 8003c44:	d00a      	beq.n	8003c5c <HAL_TIMEx_MasterConfigSynchronization+0x44>
 8003c46:	f1b3 4f80 	cmp.w	r3, #1073741824	; 0x40000000
 8003c4a:	d007      	beq.n	8003c5c <HAL_TIMEx_MasterConfigSynchronization+0x44>
 8003c4c:	f5a4 3494 	sub.w	r4, r4, #75776	; 0x12800
 8003c50:	42a3      	cmp	r3, r4
 8003c52:	d003      	beq.n	8003c5c <HAL_TIMEx_MasterConfigSynchronization+0x44>
 8003c54:	f504 6480 	add.w	r4, r4, #1024	; 0x400
 8003c58:	42a3      	cmp	r3, r4
 8003c5a:	d104      	bne.n	8003c66 <HAL_TIMEx_MasterConfigSynchronization+0x4e>
  {
    /* Reset the MSM Bit */
    tmpsmcr &= ~TIM_SMCR_MSM;
    /* Set master mode */
    tmpsmcr |= sMasterConfig->MasterSlaveMode;
 8003c5c:	6849      	ldr	r1, [r1, #4]
    tmpsmcr &= ~TIM_SMCR_MSM;
 8003c5e:	f022 0280 	bic.w	r2, r2, #128	; 0x80
    tmpsmcr |= sMasterConfig->MasterSlaveMode;
 8003c62:	430a      	orrs	r2, r1

    /* Update TIMx SMCR */
    htim->Instance->SMCR = tmpsmcr;
 8003c64:	609a      	str	r2, [r3, #8]
  }

  /* Change the htim state */
  htim->State = HAL_TIM_STATE_READY;
 8003c66:	2301      	movs	r3, #1
 8003c68:	f880 303d 	strb.w	r3, [r0, #61]	; 0x3d

  __HAL_UNLOCK(htim);
 8003c6c:	2300      	movs	r3, #0
 8003c6e:	f880 303c 	strb.w	r3, [r0, #60]	; 0x3c
  __HAL_LOCK(htim);
 8003c72:	4618      	mov	r0, r3

  return HAL_OK;
}
 8003c74:	bd30      	pop	{r4, r5, pc}
 8003c76:	bf00      	nop
 8003c78:	40012c00 	.word	0x40012c00

08003c7c <HAL_TIMEx_CommutCallback>:
 8003c7c:	4770      	bx	lr

08003c7e <HAL_TIMEx_BreakCallback>:
  * @brief  Hall Break detection callback in non-blocking mode
  * @param  htim TIM handle
  * @retval None
  */
__weak void HAL_TIMEx_BreakCallback(TIM_HandleTypeDef *htim)
{
 8003c7e:	4770      	bx	lr

08003c80 <UART_EndRxTransfer>:
  * @retval None
  */
static void UART_EndRxTransfer(UART_HandleTypeDef *huart)
{
  /* Disable RXNE, PE and ERR (Frame error, noise error, overrun error) interrupts */
  CLEAR_BIT(huart->Instance->CR1, (USART_CR1_RXNEIE | USART_CR1_PEIE));
 8003c80:	6803      	ldr	r3, [r0, #0]
 8003c82:	68da      	ldr	r2, [r3, #12]
 8003c84:	f422 7290 	bic.w	r2, r2, #288	; 0x120
 8003c88:	60da      	str	r2, [r3, #12]
  CLEAR_BIT(huart->Instance->CR3, USART_CR3_EIE);
 8003c8a:	695a      	ldr	r2, [r3, #20]
 8003c8c:	f022 0201 	bic.w	r2, r2, #1
 8003c90:	615a      	str	r2, [r3, #20]

  /* At end of Rx process, restore huart->RxState to Ready */
  huart->RxState = HAL_UART_STATE_READY;
 8003c92:	2320      	movs	r3, #32
 8003c94:	f880 303a 	strb.w	r3, [r0, #58]	; 0x3a
 8003c98:	4770      	bx	lr
	...

08003c9c <UART_SetConfig>:
  * @param  huart  Pointer to a UART_HandleTypeDef structure that contains
  *                the configuration information for the specified UART module.
  * @retval None
  */
static void UART_SetConfig(UART_HandleTypeDef *huart)
{
 8003c9c:	b538      	push	{r3, r4, r5, lr}
 8003c9e:	4604      	mov	r4, r0
  assert_param(IS_UART_MODE(huart->Init.Mode));

  /*-------------------------- USART CR2 Configuration -----------------------*/
  /* Configure the UART Stop Bits: Set STOP[13:12] bits
     according to huart->Init.StopBits value */
  MODIFY_REG(huart->Instance->CR2, USART_CR2_STOP, huart->Init.StopBits);
 8003ca0:	6803      	ldr	r3, [r0, #0]
 8003ca2:	68c1      	ldr	r1, [r0, #12]
 8003ca4:	691a      	ldr	r2, [r3, #16]
 8003ca6:	f422 5240 	bic.w	r2, r2, #12288	; 0x3000
 8003caa:	430a      	orrs	r2, r1
 8003cac:	611a      	str	r2, [r3, #16]
  tmpreg = (uint32_t)huart->Init.WordLength | huart->Init.Parity | huart->Init.Mode | huart->Init.OverSampling;
  MODIFY_REG(huart->Instance->CR1,
             (uint32_t)(USART_CR1_M | USART_CR1_PCE | USART_CR1_PS | USART_CR1_TE | USART_CR1_RE | USART_CR1_OVER8),
             tmpreg);
#else
  tmpreg = (uint32_t)huart->Init.WordLength | huart->Init.Parity | huart->Init.Mode;
 8003cae:	6882      	ldr	r2, [r0, #8]
 8003cb0:	6900      	ldr	r0, [r0, #16]
  MODIFY_REG(huart->Instance->CR1,
 8003cb2:	68d9      	ldr	r1, [r3, #12]
  tmpreg = (uint32_t)huart->Init.WordLength | huart->Init.Parity | huart->Init.Mode;
 8003cb4:	4302      	orrs	r2, r0
 8003cb6:	6960      	ldr	r0, [r4, #20]
  MODIFY_REG(huart->Instance->CR1,
 8003cb8:	f421 51b0 	bic.w	r1, r1, #5632	; 0x1600
 8003cbc:	f021 010c 	bic.w	r1, r1, #12
  tmpreg = (uint32_t)huart->Init.WordLength | huart->Init.Parity | huart->Init.Mode;
 8003cc0:	4302      	orrs	r2, r0
  MODIFY_REG(huart->Instance->CR1,
 8003cc2:	430a      	orrs	r2, r1
 8003cc4:	60da      	str	r2, [r3, #12]
             tmpreg);
#endif /* USART_CR1_OVER8 */

  /*-------------------------- USART CR3 Configuration -----------------------*/
  /* Configure the UART HFC: Set CTSE and RTSE bits according to huart->Init.HwFlowCtl value */
  MODIFY_REG(huart->Instance->CR3, (USART_CR3_RTSE | USART_CR3_CTSE), huart->Init.HwFlowCtl);
 8003cc6:	695a      	ldr	r2, [r3, #20]
 8003cc8:	69a1      	ldr	r1, [r4, #24]
 8003cca:	f422 7240 	bic.w	r2, r2, #768	; 0x300
 8003cce:	430a      	orrs	r2, r1
 8003cd0:	615a      	str	r2, [r3, #20]


  if(huart->Instance == USART1)
 8003cd2:	4a0e      	ldr	r2, [pc, #56]	; (8003d0c <UART_SetConfig+0x70>)
 8003cd4:	4293      	cmp	r3, r2
 8003cd6:	d115      	bne.n	8003d04 <UART_SetConfig+0x68>
  {
    pclk = HAL_RCC_GetPCLK2Freq();
 8003cd8:	f7ff fce8 	bl	80036ac <HAL_RCC_GetPCLK2Freq>
  else
  {
    huart->Instance->BRR = UART_BRR_SAMPLING16(pclk, huart->Init.BaudRate);
  }
#else
  huart->Instance->BRR = UART_BRR_SAMPLING16(pclk, huart->Init.BaudRate);
 8003cdc:	2319      	movs	r3, #25
 8003cde:	4358      	muls	r0, r3
 8003ce0:	6863      	ldr	r3, [r4, #4]
 8003ce2:	2264      	movs	r2, #100	; 0x64
 8003ce4:	009b      	lsls	r3, r3, #2
 8003ce6:	fbb0 f0f3 	udiv	r0, r0, r3
 8003cea:	fbb0 f1f2 	udiv	r1, r0, r2
 8003cee:	fb02 0311 	mls	r3, r2, r1, r0
 8003cf2:	011b      	lsls	r3, r3, #4
 8003cf4:	3332      	adds	r3, #50	; 0x32
 8003cf6:	fbb3 f3f2 	udiv	r3, r3, r2
 8003cfa:	6825      	ldr	r5, [r4, #0]
 8003cfc:	eb03 1301 	add.w	r3, r3, r1, lsl #4
 8003d00:	60ab      	str	r3, [r5, #8]
 8003d02:	bd38      	pop	{r3, r4, r5, pc}
    pclk = HAL_RCC_GetPCLK1Freq();
 8003d04:	f7ff fcc2 	bl	800368c <HAL_RCC_GetPCLK1Freq>
 8003d08:	e7e8      	b.n	8003cdc <UART_SetConfig+0x40>
 8003d0a:	bf00      	nop
 8003d0c:	40013800 	.word	0x40013800

08003d10 <HAL_UART_Init>:
{
 8003d10:	b510      	push	{r4, lr}
  if (huart == NULL)
 8003d12:	4604      	mov	r4, r0
 8003d14:	b340      	cbz	r0, 8003d68 <HAL_UART_Init+0x58>
  if (huart->gState == HAL_UART_STATE_RESET)
 8003d16:	f890 3039 	ldrb.w	r3, [r0, #57]	; 0x39
 8003d1a:	f003 02ff 	and.w	r2, r3, #255	; 0xff
 8003d1e:	b91b      	cbnz	r3, 8003d28 <HAL_UART_Init+0x18>
    huart->Lock = HAL_UNLOCKED;
 8003d20:	f880 2038 	strb.w	r2, [r0, #56]	; 0x38
    HAL_UART_MspInit(huart);
 8003d24:	f7fe fcac 	bl	8002680 <HAL_UART_MspInit>
  huart->gState = HAL_UART_STATE_BUSY;
 8003d28:	2324      	movs	r3, #36	; 0x24
  __HAL_UART_DISABLE(huart);
 8003d2a:	6822      	ldr	r2, [r4, #0]
  huart->gState = HAL_UART_STATE_BUSY;
 8003d2c:	f884 3039 	strb.w	r3, [r4, #57]	; 0x39
  __HAL_UART_DISABLE(huart);
 8003d30:	68d3      	ldr	r3, [r2, #12]
  UART_SetConfig(huart);
 8003d32:	4620      	mov	r0, r4
  __HAL_UART_DISABLE(huart);
 8003d34:	f423 5300 	bic.w	r3, r3, #8192	; 0x2000
 8003d38:	60d3      	str	r3, [r2, #12]
  UART_SetConfig(huart);
 8003d3a:	f7ff ffaf 	bl	8003c9c <UART_SetConfig>
  CLEAR_BIT(huart->Instance->CR2, (USART_CR2_LINEN | USART_CR2_CLKEN));
 8003d3e:	6823      	ldr	r3, [r4, #0]
  huart->ErrorCode = HAL_UART_ERROR_NONE;
 8003d40:	2000      	movs	r0, #0
  CLEAR_BIT(huart->Instance->CR2, (USART_CR2_LINEN | USART_CR2_CLKEN));
 8003d42:	691a      	ldr	r2, [r3, #16]
 8003d44:	f422 4290 	bic.w	r2, r2, #18432	; 0x4800
 8003d48:	611a      	str	r2, [r3, #16]
  CLEAR_BIT(huart->Instance->CR3, (USART_CR3_SCEN | USART_CR3_HDSEL | USART_CR3_IREN));
 8003d4a:	695a      	ldr	r2, [r3, #20]
 8003d4c:	f022 022a 	bic.w	r2, r2, #42	; 0x2a
 8003d50:	615a      	str	r2, [r3, #20]
  __HAL_UART_ENABLE(huart);
 8003d52:	68da      	ldr	r2, [r3, #12]
 8003d54:	f442 5200 	orr.w	r2, r2, #8192	; 0x2000
 8003d58:	60da      	str	r2, [r3, #12]
  huart->gState = HAL_UART_STATE_READY;
 8003d5a:	2320      	movs	r3, #32
  huart->ErrorCode = HAL_UART_ERROR_NONE;
 8003d5c:	63e0      	str	r0, [r4, #60]	; 0x3c
  huart->gState = HAL_UART_STATE_READY;
 8003d5e:	f884 3039 	strb.w	r3, [r4, #57]	; 0x39
  huart->RxState = HAL_UART_STATE_READY;
 8003d62:	f884 303a 	strb.w	r3, [r4, #58]	; 0x3a
  return HAL_OK;
 8003d66:	bd10      	pop	{r4, pc}
    return HAL_ERROR;
 8003d68:	2001      	movs	r0, #1
}
 8003d6a:	bd10      	pop	{r4, pc}

08003d6c <HAL_UART_Receive_IT>:
  if (huart->RxState == HAL_UART_STATE_READY)
 8003d6c:	f890 303a 	ldrb.w	r3, [r0, #58]	; 0x3a
 8003d70:	2b20      	cmp	r3, #32
 8003d72:	d120      	bne.n	8003db6 <HAL_UART_Receive_IT+0x4a>
    if ((pData == NULL) || (Size == 0U))
 8003d74:	b1e9      	cbz	r1, 8003db2 <HAL_UART_Receive_IT+0x46>
 8003d76:	b1e2      	cbz	r2, 8003db2 <HAL_UART_Receive_IT+0x46>
    __HAL_LOCK(huart);
 8003d78:	f890 3038 	ldrb.w	r3, [r0, #56]	; 0x38
 8003d7c:	2b01      	cmp	r3, #1
 8003d7e:	d01a      	beq.n	8003db6 <HAL_UART_Receive_IT+0x4a>
    huart->RxXferCount = Size;
 8003d80:	85c2      	strh	r2, [r0, #46]	; 0x2e
    huart->RxXferSize = Size;
 8003d82:	8582      	strh	r2, [r0, #44]	; 0x2c
    huart->ErrorCode = HAL_UART_ERROR_NONE;
 8003d84:	2300      	movs	r3, #0
    huart->RxState = HAL_UART_STATE_BUSY_RX;
 8003d86:	2222      	movs	r2, #34	; 0x22
    huart->ErrorCode = HAL_UART_ERROR_NONE;
 8003d88:	63c3      	str	r3, [r0, #60]	; 0x3c
    huart->RxState = HAL_UART_STATE_BUSY_RX;
 8003d8a:	f880 203a 	strb.w	r2, [r0, #58]	; 0x3a
    __HAL_UART_ENABLE_IT(huart, UART_IT_PE);
 8003d8e:	6802      	ldr	r2, [r0, #0]
    huart->pRxBuffPtr = pData;
 8003d90:	6281      	str	r1, [r0, #40]	; 0x28
    __HAL_UART_ENABLE_IT(huart, UART_IT_PE);
 8003d92:	68d1      	ldr	r1, [r2, #12]
    __HAL_UNLOCK(huart);
 8003d94:	f880 3038 	strb.w	r3, [r0, #56]	; 0x38
    __HAL_UART_ENABLE_IT(huart, UART_IT_PE);
 8003d98:	f441 7180 	orr.w	r1, r1, #256	; 0x100
 8003d9c:	60d1      	str	r1, [r2, #12]
    __HAL_UART_ENABLE_IT(huart, UART_IT_ERR);
 8003d9e:	6951      	ldr	r1, [r2, #20]
    return HAL_OK;
 8003da0:	4618      	mov	r0, r3
    __HAL_UART_ENABLE_IT(huart, UART_IT_ERR);
 8003da2:	f041 0101 	orr.w	r1, r1, #1
 8003da6:	6151      	str	r1, [r2, #20]
    __HAL_UART_ENABLE_IT(huart, UART_IT_RXNE);
 8003da8:	68d1      	ldr	r1, [r2, #12]
 8003daa:	f041 0120 	orr.w	r1, r1, #32
 8003dae:	60d1      	str	r1, [r2, #12]
    return HAL_OK;
 8003db0:	4770      	bx	lr
      return HAL_ERROR;
 8003db2:	2001      	movs	r0, #1
 8003db4:	4770      	bx	lr
    return HAL_BUSY;
 8003db6:	2002      	movs	r0, #2
}
 8003db8:	4770      	bx	lr

08003dba <HAL_UART_TxCpltCallback>:
 8003dba:	4770      	bx	lr

08003dbc <UART_Receive_IT>:
  if (huart->RxState == HAL_UART_STATE_BUSY_RX)
 8003dbc:	f890 303a 	ldrb.w	r3, [r0, #58]	; 0x3a
{
 8003dc0:	b510      	push	{r4, lr}
  if (huart->RxState == HAL_UART_STATE_BUSY_RX)
 8003dc2:	2b22      	cmp	r3, #34	; 0x22
 8003dc4:	d132      	bne.n	8003e2c <UART_Receive_IT+0x70>
    if ((huart->Init.WordLength == UART_WORDLENGTH_9B) && (huart->Init.Parity == UART_PARITY_NONE))
 8003dc6:	6881      	ldr	r1, [r0, #8]
 8003dc8:	6a83      	ldr	r3, [r0, #40]	; 0x28
 8003dca:	f5b1 5f80 	cmp.w	r1, #4096	; 0x1000
 8003dce:	6802      	ldr	r2, [r0, #0]
 8003dd0:	d120      	bne.n	8003e14 <UART_Receive_IT+0x58>
 8003dd2:	6901      	ldr	r1, [r0, #16]
 8003dd4:	bb09      	cbnz	r1, 8003e1a <UART_Receive_IT+0x5e>
      *pdata16bits = (uint16_t)(huart->Instance->DR & (uint16_t)0x01FF);
 8003dd6:	6852      	ldr	r2, [r2, #4]
 8003dd8:	f3c2 0208 	ubfx	r2, r2, #0, #9
 8003ddc:	f823 2b02 	strh.w	r2, [r3], #2
    if (--huart->RxXferCount == 0U)
 8003de0:	8dc4      	ldrh	r4, [r0, #46]	; 0x2e
      huart->pRxBuffPtr += 1U;
 8003de2:	6283      	str	r3, [r0, #40]	; 0x28
    if (--huart->RxXferCount == 0U)
 8003de4:	3c01      	subs	r4, #1
 8003de6:	b2a4      	uxth	r4, r4
 8003de8:	85c4      	strh	r4, [r0, #46]	; 0x2e
 8003dea:	b98c      	cbnz	r4, 8003e10 <UART_Receive_IT+0x54>
      __HAL_UART_DISABLE_IT(huart, UART_IT_RXNE);
 8003dec:	6803      	ldr	r3, [r0, #0]
 8003dee:	68da      	ldr	r2, [r3, #12]
 8003df0:	f022 0220 	bic.w	r2, r2, #32
 8003df4:	60da      	str	r2, [r3, #12]
      __HAL_UART_DISABLE_IT(huart, UART_IT_PE);
 8003df6:	68da      	ldr	r2, [r3, #12]
 8003df8:	f422 7280 	bic.w	r2, r2, #256	; 0x100
 8003dfc:	60da      	str	r2, [r3, #12]
      __HAL_UART_DISABLE_IT(huart, UART_IT_ERR);
 8003dfe:	695a      	ldr	r2, [r3, #20]
 8003e00:	f022 0201 	bic.w	r2, r2, #1
 8003e04:	615a      	str	r2, [r3, #20]
      huart->RxState = HAL_UART_STATE_READY;
 8003e06:	2320      	movs	r3, #32
 8003e08:	f880 303a 	strb.w	r3, [r0, #58]	; 0x3a
      HAL_UART_RxCpltCallback(huart);
 8003e0c:	f7fd fdc6 	bl	800199c <HAL_UART_RxCpltCallback>
    if (--huart->RxXferCount == 0U)
 8003e10:	2000      	movs	r0, #0
}
 8003e12:	bd10      	pop	{r4, pc}
      if ((huart->Init.WordLength == UART_WORDLENGTH_9B) || ((huart->Init.WordLength == UART_WORDLENGTH_8B) && (huart->Init.Parity == UART_PARITY_NONE)))
 8003e14:	b931      	cbnz	r1, 8003e24 <UART_Receive_IT+0x68>
 8003e16:	6901      	ldr	r1, [r0, #16]
 8003e18:	b921      	cbnz	r1, 8003e24 <UART_Receive_IT+0x68>
        *pdata8bits = (uint8_t)(huart->Instance->DR & (uint8_t)0x00FF);
 8003e1a:	6852      	ldr	r2, [r2, #4]
        *pdata8bits = (uint8_t)(huart->Instance->DR & (uint8_t)0x007F);
 8003e1c:	701a      	strb	r2, [r3, #0]
      huart->pRxBuffPtr += 1U;
 8003e1e:	6a83      	ldr	r3, [r0, #40]	; 0x28
 8003e20:	3301      	adds	r3, #1
 8003e22:	e7dd      	b.n	8003de0 <UART_Receive_IT+0x24>
        *pdata8bits = (uint8_t)(huart->Instance->DR & (uint8_t)0x007F);
 8003e24:	6852      	ldr	r2, [r2, #4]
 8003e26:	f002 027f 	and.w	r2, r2, #127	; 0x7f
 8003e2a:	e7f7      	b.n	8003e1c <UART_Receive_IT+0x60>
    return HAL_BUSY;
 8003e2c:	2002      	movs	r0, #2
 8003e2e:	bd10      	pop	{r4, pc}

08003e30 <HAL_UART_ErrorCallback>:
 8003e30:	4770      	bx	lr
	...

08003e34 <HAL_UART_IRQHandler>:
  uint32_t isrflags   = READ_REG(huart->Instance->SR);
 8003e34:	6803      	ldr	r3, [r0, #0]
{
 8003e36:	b570      	push	{r4, r5, r6, lr}
  uint32_t isrflags   = READ_REG(huart->Instance->SR);
 8003e38:	681a      	ldr	r2, [r3, #0]
{
 8003e3a:	4604      	mov	r4, r0
  if (errorflags == RESET)
 8003e3c:	0716      	lsls	r6, r2, #28
  uint32_t cr1its     = READ_REG(huart->Instance->CR1);
 8003e3e:	68d9      	ldr	r1, [r3, #12]
  uint32_t cr3its     = READ_REG(huart->Instance->CR3);
 8003e40:	695d      	ldr	r5, [r3, #20]
  if (errorflags == RESET)
 8003e42:	d107      	bne.n	8003e54 <HAL_UART_IRQHandler+0x20>
    if (((isrflags & USART_SR_RXNE) != RESET) && ((cr1its & USART_CR1_RXNEIE) != RESET))
 8003e44:	0696      	lsls	r6, r2, #26
 8003e46:	d55c      	bpl.n	8003f02 <HAL_UART_IRQHandler+0xce>
 8003e48:	068d      	lsls	r5, r1, #26
 8003e4a:	d55a      	bpl.n	8003f02 <HAL_UART_IRQHandler+0xce>
}
 8003e4c:	e8bd 4070 	ldmia.w	sp!, {r4, r5, r6, lr}
      UART_Receive_IT(huart);
 8003e50:	f7ff bfb4 	b.w	8003dbc <UART_Receive_IT>
  if ((errorflags != RESET) && (((cr3its & USART_CR3_EIE) != RESET) || ((cr1its & (USART_CR1_RXNEIE | USART_CR1_PEIE)) != RESET)))
 8003e54:	f015 0501 	ands.w	r5, r5, #1
 8003e58:	d102      	bne.n	8003e60 <HAL_UART_IRQHandler+0x2c>
 8003e5a:	f411 7f90 	tst.w	r1, #288	; 0x120
 8003e5e:	d050      	beq.n	8003f02 <HAL_UART_IRQHandler+0xce>
    if (((isrflags & USART_SR_PE) != RESET) && ((cr1its & USART_CR1_PEIE) != RESET))
 8003e60:	07d0      	lsls	r0, r2, #31
 8003e62:	d505      	bpl.n	8003e70 <HAL_UART_IRQHandler+0x3c>
 8003e64:	05cb      	lsls	r3, r1, #23
      huart->ErrorCode |= HAL_UART_ERROR_PE;
 8003e66:	bf42      	ittt	mi
 8003e68:	6be3      	ldrmi	r3, [r4, #60]	; 0x3c
 8003e6a:	f043 0301 	orrmi.w	r3, r3, #1
 8003e6e:	63e3      	strmi	r3, [r4, #60]	; 0x3c
    if (((isrflags & USART_SR_NE) != RESET) && ((cr3its & USART_CR3_EIE) != RESET))
 8003e70:	0756      	lsls	r6, r2, #29
 8003e72:	d504      	bpl.n	8003e7e <HAL_UART_IRQHandler+0x4a>
 8003e74:	b11d      	cbz	r5, 8003e7e <HAL_UART_IRQHandler+0x4a>
      huart->ErrorCode |= HAL_UART_ERROR_NE;
 8003e76:	6be3      	ldr	r3, [r4, #60]	; 0x3c
 8003e78:	f043 0302 	orr.w	r3, r3, #2
 8003e7c:	63e3      	str	r3, [r4, #60]	; 0x3c
    if (((isrflags & USART_SR_FE) != RESET) && ((cr3its & USART_CR3_EIE) != RESET))
 8003e7e:	0790      	lsls	r0, r2, #30
 8003e80:	d504      	bpl.n	8003e8c <HAL_UART_IRQHandler+0x58>
 8003e82:	b11d      	cbz	r5, 8003e8c <HAL_UART_IRQHandler+0x58>
      huart->ErrorCode |= HAL_UART_ERROR_FE;
 8003e84:	6be3      	ldr	r3, [r4, #60]	; 0x3c
 8003e86:	f043 0304 	orr.w	r3, r3, #4
 8003e8a:	63e3      	str	r3, [r4, #60]	; 0x3c
    if (((isrflags & USART_SR_ORE) != RESET) && (((cr1its & USART_CR1_RXNEIE) != RESET) || ((cr3its & USART_CR3_EIE) != RESET)))
 8003e8c:	0713      	lsls	r3, r2, #28
 8003e8e:	d506      	bpl.n	8003e9e <HAL_UART_IRQHandler+0x6a>
 8003e90:	068e      	lsls	r6, r1, #26
 8003e92:	d400      	bmi.n	8003e96 <HAL_UART_IRQHandler+0x62>
 8003e94:	b11d      	cbz	r5, 8003e9e <HAL_UART_IRQHandler+0x6a>
      huart->ErrorCode |= HAL_UART_ERROR_ORE;
 8003e96:	6be3      	ldr	r3, [r4, #60]	; 0x3c
 8003e98:	f043 0308 	orr.w	r3, r3, #8
 8003e9c:	63e3      	str	r3, [r4, #60]	; 0x3c
    if (huart->ErrorCode != HAL_UART_ERROR_NONE)
 8003e9e:	6be3      	ldr	r3, [r4, #60]	; 0x3c
 8003ea0:	2b00      	cmp	r3, #0
 8003ea2:	d064      	beq.n	8003f6e <HAL_UART_IRQHandler+0x13a>
      if (((isrflags & USART_SR_RXNE) != RESET) && ((cr1its & USART_CR1_RXNEIE) != RESET))
 8003ea4:	0695      	lsls	r5, r2, #26
 8003ea6:	d504      	bpl.n	8003eb2 <HAL_UART_IRQHandler+0x7e>
 8003ea8:	0688      	lsls	r0, r1, #26
 8003eaa:	d502      	bpl.n	8003eb2 <HAL_UART_IRQHandler+0x7e>
        UART_Receive_IT(huart);
 8003eac:	4620      	mov	r0, r4
 8003eae:	f7ff ff85 	bl	8003dbc <UART_Receive_IT>
      dmarequest = HAL_IS_BIT_SET(huart->Instance->CR3, USART_CR3_DMAR);
 8003eb2:	6823      	ldr	r3, [r4, #0]
        UART_EndRxTransfer(huart);
 8003eb4:	4620      	mov	r0, r4
      dmarequest = HAL_IS_BIT_SET(huart->Instance->CR3, USART_CR3_DMAR);
 8003eb6:	695d      	ldr	r5, [r3, #20]
      if (((huart->ErrorCode & HAL_UART_ERROR_ORE) != RESET) || dmarequest)
 8003eb8:	6be2      	ldr	r2, [r4, #60]	; 0x3c
 8003eba:	0711      	lsls	r1, r2, #28
 8003ebc:	d402      	bmi.n	8003ec4 <HAL_UART_IRQHandler+0x90>
 8003ebe:	f015 0540 	ands.w	r5, r5, #64	; 0x40
 8003ec2:	d01a      	beq.n	8003efa <HAL_UART_IRQHandler+0xc6>
        UART_EndRxTransfer(huart);
 8003ec4:	f7ff fedc 	bl	8003c80 <UART_EndRxTransfer>
        if (HAL_IS_BIT_SET(huart->Instance->CR3, USART_CR3_DMAR))
 8003ec8:	6823      	ldr	r3, [r4, #0]
 8003eca:	695a      	ldr	r2, [r3, #20]
 8003ecc:	0652      	lsls	r2, r2, #25
 8003ece:	d510      	bpl.n	8003ef2 <HAL_UART_IRQHandler+0xbe>
          CLEAR_BIT(huart->Instance->CR3, USART_CR3_DMAR);
 8003ed0:	695a      	ldr	r2, [r3, #20]
          if (huart->hdmarx != NULL)
 8003ed2:	6b60      	ldr	r0, [r4, #52]	; 0x34
          CLEAR_BIT(huart->Instance->CR3, USART_CR3_DMAR);
 8003ed4:	f022 0240 	bic.w	r2, r2, #64	; 0x40
 8003ed8:	615a      	str	r2, [r3, #20]
          if (huart->hdmarx != NULL)
 8003eda:	b150      	cbz	r0, 8003ef2 <HAL_UART_IRQHandler+0xbe>
            huart->hdmarx->XferAbortCallback = UART_DMAAbortOnError;
 8003edc:	4b24      	ldr	r3, [pc, #144]	; (8003f70 <HAL_UART_IRQHandler+0x13c>)
 8003ede:	6343      	str	r3, [r0, #52]	; 0x34
            if (HAL_DMA_Abort_IT(huart->hdmarx) != HAL_OK)
 8003ee0:	f7fe ff82 	bl	8002de8 <HAL_DMA_Abort_IT>
 8003ee4:	2800      	cmp	r0, #0
 8003ee6:	d042      	beq.n	8003f6e <HAL_UART_IRQHandler+0x13a>
              huart->hdmarx->XferAbortCallback(huart->hdmarx);
 8003ee8:	6b60      	ldr	r0, [r4, #52]	; 0x34
}
 8003eea:	e8bd 4070 	ldmia.w	sp!, {r4, r5, r6, lr}
              huart->hdmarx->XferAbortCallback(huart->hdmarx);
 8003eee:	6b43      	ldr	r3, [r0, #52]	; 0x34
 8003ef0:	4718      	bx	r3
            HAL_UART_ErrorCallback(huart);
 8003ef2:	4620      	mov	r0, r4
 8003ef4:	f7ff ff9c 	bl	8003e30 <HAL_UART_ErrorCallback>
 8003ef8:	bd70      	pop	{r4, r5, r6, pc}
        HAL_UART_ErrorCallback(huart);
 8003efa:	f7ff ff99 	bl	8003e30 <HAL_UART_ErrorCallback>
        huart->ErrorCode = HAL_UART_ERROR_NONE;
 8003efe:	63e5      	str	r5, [r4, #60]	; 0x3c
 8003f00:	bd70      	pop	{r4, r5, r6, pc}
  if (((isrflags & USART_SR_TXE) != RESET) && ((cr1its & USART_CR1_TXEIE) != RESET))
 8003f02:	0616      	lsls	r6, r2, #24
 8003f04:	d525      	bpl.n	8003f52 <HAL_UART_IRQHandler+0x11e>
 8003f06:	060d      	lsls	r5, r1, #24
 8003f08:	d523      	bpl.n	8003f52 <HAL_UART_IRQHandler+0x11e>
  if (huart->gState == HAL_UART_STATE_BUSY_TX)
 8003f0a:	f894 2039 	ldrb.w	r2, [r4, #57]	; 0x39
 8003f0e:	2a21      	cmp	r2, #33	; 0x21
 8003f10:	d12d      	bne.n	8003f6e <HAL_UART_IRQHandler+0x13a>
    if ((huart->Init.WordLength == UART_WORDLENGTH_9B) && (huart->Init.Parity == UART_PARITY_NONE))
 8003f12:	68a2      	ldr	r2, [r4, #8]
 8003f14:	f5b2 5f80 	cmp.w	r2, #4096	; 0x1000
 8003f18:	6a22      	ldr	r2, [r4, #32]
 8003f1a:	d115      	bne.n	8003f48 <HAL_UART_IRQHandler+0x114>
 8003f1c:	6921      	ldr	r1, [r4, #16]
 8003f1e:	b999      	cbnz	r1, 8003f48 <HAL_UART_IRQHandler+0x114>
      huart->Instance->DR = (uint16_t)(*tmp & (uint16_t)0x01FF);
 8003f20:	f832 1b02 	ldrh.w	r1, [r2], #2
 8003f24:	f3c1 0108 	ubfx	r1, r1, #0, #9
 8003f28:	6059      	str	r1, [r3, #4]
      huart->pTxBuffPtr += 2U;
 8003f2a:	6222      	str	r2, [r4, #32]
    if (--huart->TxXferCount == 0U)
 8003f2c:	8ce2      	ldrh	r2, [r4, #38]	; 0x26
 8003f2e:	3a01      	subs	r2, #1
 8003f30:	b292      	uxth	r2, r2
 8003f32:	84e2      	strh	r2, [r4, #38]	; 0x26
 8003f34:	b9da      	cbnz	r2, 8003f6e <HAL_UART_IRQHandler+0x13a>
      __HAL_UART_DISABLE_IT(huart, UART_IT_TXE);
 8003f36:	68da      	ldr	r2, [r3, #12]
 8003f38:	f022 0280 	bic.w	r2, r2, #128	; 0x80
 8003f3c:	60da      	str	r2, [r3, #12]
      __HAL_UART_ENABLE_IT(huart, UART_IT_TC);
 8003f3e:	68da      	ldr	r2, [r3, #12]
 8003f40:	f042 0240 	orr.w	r2, r2, #64	; 0x40
 8003f44:	60da      	str	r2, [r3, #12]
 8003f46:	bd70      	pop	{r4, r5, r6, pc}
      huart->Instance->DR = (uint8_t)(*huart->pTxBuffPtr++ & (uint8_t)0x00FF);
 8003f48:	1c51      	adds	r1, r2, #1
 8003f4a:	6221      	str	r1, [r4, #32]
 8003f4c:	7812      	ldrb	r2, [r2, #0]
 8003f4e:	605a      	str	r2, [r3, #4]
 8003f50:	e7ec      	b.n	8003f2c <HAL_UART_IRQHandler+0xf8>
  if (((isrflags & USART_SR_TC) != RESET) && ((cr1its & USART_CR1_TCIE) != RESET))
 8003f52:	0650      	lsls	r0, r2, #25
 8003f54:	d50b      	bpl.n	8003f6e <HAL_UART_IRQHandler+0x13a>
 8003f56:	064a      	lsls	r2, r1, #25
 8003f58:	d509      	bpl.n	8003f6e <HAL_UART_IRQHandler+0x13a>
  __HAL_UART_DISABLE_IT(huart, UART_IT_TC);
 8003f5a:	68da      	ldr	r2, [r3, #12]
  HAL_UART_TxCpltCallback(huart);
 8003f5c:	4620      	mov	r0, r4
  __HAL_UART_DISABLE_IT(huart, UART_IT_TC);
 8003f5e:	f022 0240 	bic.w	r2, r2, #64	; 0x40
 8003f62:	60da      	str	r2, [r3, #12]
  huart->gState = HAL_UART_STATE_READY;
 8003f64:	2320      	movs	r3, #32
 8003f66:	f884 3039 	strb.w	r3, [r4, #57]	; 0x39
  HAL_UART_TxCpltCallback(huart);
 8003f6a:	f7ff ff26 	bl	8003dba <HAL_UART_TxCpltCallback>
 8003f6e:	bd70      	pop	{r4, r5, r6, pc}
 8003f70:	08003f75 	.word	0x08003f75

08003f74 <UART_DMAAbortOnError>:
{
 8003f74:	b508      	push	{r3, lr}
  huart->RxXferCount = 0x00U;
 8003f76:	2300      	movs	r3, #0
  UART_HandleTypeDef *huart = (UART_HandleTypeDef *)((DMA_HandleTypeDef *)hdma)->Parent;
 8003f78:	6a40      	ldr	r0, [r0, #36]	; 0x24
  huart->RxXferCount = 0x00U;
 8003f7a:	85c3      	strh	r3, [r0, #46]	; 0x2e
  huart->TxXferCount = 0x00U;
 8003f7c:	84c3      	strh	r3, [r0, #38]	; 0x26
  HAL_UART_ErrorCallback(huart);
 8003f7e:	f7ff ff57 	bl	8003e30 <HAL_UART_ErrorCallback>
 8003f82:	bd08      	pop	{r3, pc}

08003f84 <osKernelStart>:
* @param  argument      pointer that is passed to the thread function as start argument.
* @retval status code that indicates the execution status of the function
* @note   MUST REMAIN UNCHANGED: \b osKernelStart shall be consistent in every CMSIS-RTOS.
*/
osStatus osKernelStart (void)
{
 8003f84:	b508      	push	{r3, lr}
  vTaskStartScheduler();
 8003f86:	f000 fc5f 	bl	8004848 <vTaskStartScheduler>
  
  return osOK;
}
 8003f8a:	2000      	movs	r0, #0
 8003f8c:	bd08      	pop	{r3, pc}

08003f8e <osThreadCreate>:
* @param  argument      pointer that is passed to the thread function as start argument.
* @retval thread ID for reference by other functions or NULL in case of error.
* @note   MUST REMAIN UNCHANGED: \b osThreadCreate shall be consistent in every CMSIS-RTOS.
*/
osThreadId osThreadCreate (const osThreadDef_t *thread_def, void *argument)
{
 8003f8e:	b570      	push	{r4, r5, r6, lr}
 8003f90:	4605      	mov	r5, r0
  TaskHandle_t handle;
  
#if( configSUPPORT_STATIC_ALLOCATION == 1 ) &&  ( configSUPPORT_DYNAMIC_ALLOCATION == 1 )
  if((thread_def->buffer != NULL) && (thread_def->controlblock != NULL)) {
 8003f92:	6946      	ldr	r6, [r0, #20]
{
 8003f94:	460b      	mov	r3, r1
 8003f96:	b086      	sub	sp, #24
 8003f98:	6840      	ldr	r0, [r0, #4]
 8003f9a:	6829      	ldr	r1, [r5, #0]
 8003f9c:	692a      	ldr	r2, [r5, #16]
 8003f9e:	f9b5 4008 	ldrsh.w	r4, [r5, #8]
  if((thread_def->buffer != NULL) && (thread_def->controlblock != NULL)) {
 8003fa2:	b176      	cbz	r6, 8003fc2 <osThreadCreate+0x34>
 8003fa4:	69ad      	ldr	r5, [r5, #24]
 8003fa6:	b165      	cbz	r5, 8003fc2 <osThreadCreate+0x34>
  if (priority != osPriorityError) {
 8003fa8:	2c84      	cmp	r4, #132	; 0x84
  unsigned portBASE_TYPE fpriority = tskIDLE_PRIORITY;
 8003faa:	bf0c      	ite	eq
 8003fac:	2400      	moveq	r4, #0
    fpriority += (priority - osPriorityIdle);
 8003fae:	3403      	addne	r4, #3
    handle = xTaskCreateStatic((TaskFunction_t)thread_def->pthread,(const portCHAR *)thread_def->name,
 8003fb0:	9502      	str	r5, [sp, #8]
 8003fb2:	e88d 0050 	stmia.w	sp, {r4, r6}
 8003fb6:	f000 fbe3 	bl	8004780 <xTaskCreateStatic>
 8003fba:	9005      	str	r0, [sp, #20]
                   &handle) != pdPASS)  {
    return NULL;
  }     
#endif
  
  return handle;
 8003fbc:	9805      	ldr	r0, [sp, #20]
}
 8003fbe:	b006      	add	sp, #24
 8003fc0:	bd70      	pop	{r4, r5, r6, pc}
  if (priority != osPriorityError) {
 8003fc2:	2c84      	cmp	r4, #132	; 0x84
  unsigned portBASE_TYPE fpriority = tskIDLE_PRIORITY;
 8003fc4:	bf0c      	ite	eq
 8003fc6:	2400      	moveq	r4, #0
    fpriority += (priority - osPriorityIdle);
 8003fc8:	3403      	addne	r4, #3
    if (xTaskCreate((TaskFunction_t)thread_def->pthread,(const portCHAR *)thread_def->name,
 8003fca:	ad05      	add	r5, sp, #20
 8003fcc:	b292      	uxth	r2, r2
 8003fce:	e88d 0030 	stmia.w	sp, {r4, r5}
 8003fd2:	f000 fc0c 	bl	80047ee <xTaskCreate>
 8003fd6:	2801      	cmp	r0, #1
 8003fd8:	d0f0      	beq.n	8003fbc <osThreadCreate+0x2e>
      return NULL;
 8003fda:	2000      	movs	r0, #0
 8003fdc:	e7ef      	b.n	8003fbe <osThreadCreate+0x30>

08003fde <osDelay>:
* @brief   Wait for Timeout (Time Delay)
* @param   millisec      time delay value
* @retval  status code that indicates the execution status of the function.
*/
osStatus osDelay (uint32_t millisec)
{
 8003fde:	b508      	push	{r3, lr}
#if INCLUDE_vTaskDelay
  TickType_t ticks = millisec / portTICK_PERIOD_MS;
  
  vTaskDelay(ticks ? ticks : 1);          /* Minimum delay = 1 tick */
 8003fe0:	2800      	cmp	r0, #0
 8003fe2:	bf08      	it	eq
 8003fe4:	2001      	moveq	r0, #1
 8003fe6:	f000 fd77 	bl	8004ad8 <vTaskDelay>
#else
  (void) millisec;
  
  return osErrorResource;
#endif
}
 8003fea:	2000      	movs	r0, #0
 8003fec:	bd08      	pop	{r3, pc}

08003fee <vListInitialise>:
void vListInitialise( List_t * const pxList )
{
	/* The list structure contains a list item which is used to mark the
	end of the list.  To initialise the list the list end is inserted
	as the only list entry. */
	pxList->pxIndex = ( ListItem_t * ) &( pxList->xListEnd );			/*lint !e826 !e740 The mini list structure is used as the list end to save RAM.  This is checked and valid. */
 8003fee:	f100 0308 	add.w	r3, r0, #8
 8003ff2:	6043      	str	r3, [r0, #4]

	/* The list end value is the highest possible value in the list to
	ensure it remains at the end of the list. */
	pxList->xListEnd.xItemValue = portMAX_DELAY;
 8003ff4:	f04f 32ff 	mov.w	r2, #4294967295

	/* The list end next and previous pointers point to itself so we know
	when the list is empty. */
	pxList->xListEnd.pxNext = ( ListItem_t * ) &( pxList->xListEnd );	/*lint !e826 !e740 The mini list structure is used as the list end to save RAM.  This is checked and valid. */
 8003ff8:	60c3      	str	r3, [r0, #12]
	pxList->xListEnd.pxPrevious = ( ListItem_t * ) &( pxList->xListEnd );/*lint !e826 !e740 The mini list structure is used as the list end to save RAM.  This is checked and valid. */
 8003ffa:	6103      	str	r3, [r0, #16]

	pxList->uxNumberOfItems = ( UBaseType_t ) 0U;
 8003ffc:	2300      	movs	r3, #0
	pxList->xListEnd.xItemValue = portMAX_DELAY;
 8003ffe:	6082      	str	r2, [r0, #8]
	pxList->uxNumberOfItems = ( UBaseType_t ) 0U;
 8004000:	6003      	str	r3, [r0, #0]
 8004002:	4770      	bx	lr

08004004 <vListInitialiseItem>:
/*-----------------------------------------------------------*/

void vListInitialiseItem( ListItem_t * const pxItem )
{
	/* Make sure the list item is not recorded as being on a list. */
	pxItem->pvContainer = NULL;
 8004004:	2300      	movs	r3, #0
 8004006:	6103      	str	r3, [r0, #16]
 8004008:	4770      	bx	lr

0800400a <vListInsertEnd>:
}
/*-----------------------------------------------------------*/

void vListInsertEnd( List_t * const pxList, ListItem_t * const pxNewListItem )
{
ListItem_t * const pxIndex = pxList->pxIndex;
 800400a:	6843      	ldr	r3, [r0, #4]

	/* Insert a new list item into pxList, but rather than sort the list,
	makes the new list item the last item to be removed by a call to
	listGET_OWNER_OF_NEXT_ENTRY(). */
	pxNewListItem->pxNext = pxIndex;
	pxNewListItem->pxPrevious = pxIndex->pxPrevious;
 800400c:	689a      	ldr	r2, [r3, #8]
	pxNewListItem->pxNext = pxIndex;
 800400e:	604b      	str	r3, [r1, #4]
	pxNewListItem->pxPrevious = pxIndex->pxPrevious;
 8004010:	608a      	str	r2, [r1, #8]

	/* Only used during decision coverage testing. */
	mtCOVERAGE_TEST_DELAY();

	pxIndex->pxPrevious->pxNext = pxNewListItem;
 8004012:	689a      	ldr	r2, [r3, #8]
 8004014:	6051      	str	r1, [r2, #4]
	pxIndex->pxPrevious = pxNewListItem;
 8004016:	6099      	str	r1, [r3, #8]

	/* Remember which list the item is in. */
	pxNewListItem->pvContainer = ( void * ) pxList;

	( pxList->uxNumberOfItems )++;
 8004018:	6803      	ldr	r3, [r0, #0]
	pxNewListItem->pvContainer = ( void * ) pxList;
 800401a:	6108      	str	r0, [r1, #16]
	( pxList->uxNumberOfItems )++;
 800401c:	3301      	adds	r3, #1
 800401e:	6003      	str	r3, [r0, #0]
 8004020:	4770      	bx	lr

08004022 <vListInsert>:
/*-----------------------------------------------------------*/

void vListInsert( List_t * const pxList, ListItem_t * const pxNewListItem )
{
ListItem_t *pxIterator;
const TickType_t xValueOfInsertion = pxNewListItem->xItemValue;
 8004022:	680a      	ldr	r2, [r1, #0]
{
 8004024:	b530      	push	{r4, r5, lr}
	new list item should be placed after it.  This ensures that TCB's which are
	stored in ready lists (all of which have the same xItemValue value) get a
	share of the CPU.  However, if the xItemValue is the same as the back marker
	the iteration loop below will not end.  Therefore the value is checked
	first, and the algorithm slightly modified if necessary. */
	if( xValueOfInsertion == portMAX_DELAY )
 8004026:	1c53      	adds	r3, r2, #1
 8004028:	d10a      	bne.n	8004040 <vListInsert+0x1e>
	{
		pxIterator = pxList->xListEnd.pxPrevious;
 800402a:	6903      	ldr	r3, [r0, #16]
			/* There is nothing to do here, just iterating to the wanted
			insertion position. */
		}
	}

	pxNewListItem->pxNext = pxIterator->pxNext;
 800402c:	685a      	ldr	r2, [r3, #4]
 800402e:	604a      	str	r2, [r1, #4]
	pxNewListItem->pxNext->pxPrevious = pxNewListItem;
 8004030:	6091      	str	r1, [r2, #8]
	pxNewListItem->pxPrevious = pxIterator;
 8004032:	608b      	str	r3, [r1, #8]
	pxIterator->pxNext = pxNewListItem;
 8004034:	6059      	str	r1, [r3, #4]

	/* Remember which list the item is in.  This allows fast removal of the
	item later. */
	pxNewListItem->pvContainer = ( void * ) pxList;

	( pxList->uxNumberOfItems )++;
 8004036:	6803      	ldr	r3, [r0, #0]
	pxNewListItem->pvContainer = ( void * ) pxList;
 8004038:	6108      	str	r0, [r1, #16]
	( pxList->uxNumberOfItems )++;
 800403a:	3301      	adds	r3, #1
 800403c:	6003      	str	r3, [r0, #0]
 800403e:	bd30      	pop	{r4, r5, pc}
		for( pxIterator = ( ListItem_t * ) &( pxList->xListEnd ); pxIterator->pxNext->xItemValue <= xValueOfInsertion; pxIterator = pxIterator->pxNext ) /*lint !e826 !e740 The mini list structure is used as the list end to save RAM.  This is checked and valid. */
 8004040:	f100 0308 	add.w	r3, r0, #8
 8004044:	685c      	ldr	r4, [r3, #4]
 8004046:	6825      	ldr	r5, [r4, #0]
 8004048:	42aa      	cmp	r2, r5
 800404a:	d3ef      	bcc.n	800402c <vListInsert+0xa>
 800404c:	4623      	mov	r3, r4
 800404e:	e7f9      	b.n	8004044 <vListInsert+0x22>

08004050 <uxListRemove>:
{
/* The list item knows which list it is in.  Obtain the list from the list
item. */
List_t * const pxList = ( List_t * ) pxItemToRemove->pvContainer;

	pxItemToRemove->pxNext->pxPrevious = pxItemToRemove->pxPrevious;
 8004050:	6841      	ldr	r1, [r0, #4]
 8004052:	6882      	ldr	r2, [r0, #8]
List_t * const pxList = ( List_t * ) pxItemToRemove->pvContainer;
 8004054:	6903      	ldr	r3, [r0, #16]
	pxItemToRemove->pxNext->pxPrevious = pxItemToRemove->pxPrevious;
 8004056:	608a      	str	r2, [r1, #8]
	pxItemToRemove->pxPrevious->pxNext = pxItemToRemove->pxNext;
 8004058:	6882      	ldr	r2, [r0, #8]
 800405a:	6051      	str	r1, [r2, #4]

	/* Only used during decision coverage testing. */
	mtCOVERAGE_TEST_DELAY();

	/* Make sure the index is left pointing to a valid item. */
	if( pxList->pxIndex == pxItemToRemove )
 800405c:	6859      	ldr	r1, [r3, #4]
 800405e:	4288      	cmp	r0, r1
	{
		pxList->pxIndex = pxItemToRemove->pxPrevious;
 8004060:	bf08      	it	eq
 8004062:	605a      	streq	r2, [r3, #4]
	else
	{
		mtCOVERAGE_TEST_MARKER();
	}

	pxItemToRemove->pvContainer = NULL;
 8004064:	2200      	movs	r2, #0
 8004066:	6102      	str	r2, [r0, #16]
	( pxList->uxNumberOfItems )--;
 8004068:	681a      	ldr	r2, [r3, #0]
 800406a:	3a01      	subs	r2, #1
 800406c:	601a      	str	r2, [r3, #0]

	return pxList->uxNumberOfItems;
 800406e:	6818      	ldr	r0, [r3, #0]
}
 8004070:	4770      	bx	lr
	...

08004074 <prvTaskExitError>:
}
/*-----------------------------------------------------------*/

static void prvTaskExitError( void )
{
volatile uint32_t ulDummy = 0UL;
 8004074:	2300      	movs	r3, #0
{
 8004076:	b082      	sub	sp, #8
volatile uint32_t ulDummy = 0UL;
 8004078:	9301      	str	r3, [sp, #4]
	its caller as there is nothing to return to.  If a task wants to exit it
	should instead call vTaskDelete( NULL ).

	Artificially force an assert() to be triggered if configASSERT() is
	defined, then stop here so application writers can catch the error. */
	configASSERT( uxCriticalNesting == ~0UL );
 800407a:	4b0d      	ldr	r3, [pc, #52]	; (80040b0 <prvTaskExitError+0x3c>)
 800407c:	681b      	ldr	r3, [r3, #0]
 800407e:	3301      	adds	r3, #1
 8004080:	d008      	beq.n	8004094 <prvTaskExitError+0x20>

portFORCE_INLINE static void vPortRaiseBASEPRI( void )
{
uint32_t ulNewBASEPRI;

	__asm volatile
 8004082:	f04f 0350 	mov.w	r3, #80	; 0x50
 8004086:	f383 8811 	msr	BASEPRI, r3
 800408a:	f3bf 8f6f 	isb	sy
 800408e:	f3bf 8f4f 	dsb	sy
 8004092:	e7fe      	b.n	8004092 <prvTaskExitError+0x1e>
 8004094:	f04f 0350 	mov.w	r3, #80	; 0x50
 8004098:	f383 8811 	msr	BASEPRI, r3
 800409c:	f3bf 8f6f 	isb	sy
 80040a0:	f3bf 8f4f 	dsb	sy
	portDISABLE_INTERRUPTS();
	while( ulDummy == 0 )
 80040a4:	9b01      	ldr	r3, [sp, #4]
 80040a6:	2b00      	cmp	r3, #0
 80040a8:	d0fc      	beq.n	80040a4 <prvTaskExitError+0x30>
		about code appearing after this function is called - making ulDummy
		volatile makes the compiler think the function could return and
		therefore not output an 'unreachable code' warning for code that appears
		after it. */
	}
}
 80040aa:	b002      	add	sp, #8
 80040ac:	4770      	bx	lr
 80040ae:	bf00      	nop
 80040b0:	20000010 	.word	0x20000010

080040b4 <prvPortStartFirstTask>:
}
/*-----------------------------------------------------------*/

static void prvPortStartFirstTask( void )
{
	__asm volatile(
 80040b4:	4806      	ldr	r0, [pc, #24]	; (80040d0 <prvPortStartFirstTask+0x1c>)
 80040b6:	6800      	ldr	r0, [r0, #0]
 80040b8:	6800      	ldr	r0, [r0, #0]
 80040ba:	f380 8808 	msr	MSP, r0
 80040be:	b662      	cpsie	i
 80040c0:	b661      	cpsie	f
 80040c2:	f3bf 8f4f 	dsb	sy
 80040c6:	f3bf 8f6f 	isb	sy
 80040ca:	df00      	svc	0
 80040cc:	bf00      	nop
 80040ce:	0000      	.short	0x0000
 80040d0:	e000ed08 	.word	0xe000ed08

080040d4 <pxPortInitialiseStack>:
	*pxTopOfStack = portINITIAL_XPSR;	/* xPSR */
 80040d4:	f04f 7380 	mov.w	r3, #16777216	; 0x1000000
 80040d8:	f840 3c04 	str.w	r3, [r0, #-4]
	*pxTopOfStack = ( StackType_t ) portTASK_RETURN_ADDRESS;	/* LR */
 80040dc:	4b05      	ldr	r3, [pc, #20]	; (80040f4 <pxPortInitialiseStack+0x20>)
	*pxTopOfStack = ( ( StackType_t ) pxCode ) & portSTART_ADDRESS_MASK;	/* PC */
 80040de:	f021 0101 	bic.w	r1, r1, #1
 80040e2:	f840 1c08 	str.w	r1, [r0, #-8]
	*pxTopOfStack = ( StackType_t ) portTASK_RETURN_ADDRESS;	/* LR */
 80040e6:	f840 3c0c 	str.w	r3, [r0, #-12]
	*pxTopOfStack = ( StackType_t ) pvParameters;	/* R0 */
 80040ea:	f840 2c20 	str.w	r2, [r0, #-32]
}
 80040ee:	3840      	subs	r0, #64	; 0x40
 80040f0:	4770      	bx	lr
 80040f2:	bf00      	nop
 80040f4:	08004075 	.word	0x08004075
	...

08004100 <SVC_Handler>:
	__asm volatile (
 8004100:	4b07      	ldr	r3, [pc, #28]	; (8004120 <pxCurrentTCBConst2>)
 8004102:	6819      	ldr	r1, [r3, #0]
 8004104:	6808      	ldr	r0, [r1, #0]
 8004106:	e8b0 0ff0 	ldmia.w	r0!, {r4, r5, r6, r7, r8, r9, sl, fp}
 800410a:	f380 8809 	msr	PSP, r0
 800410e:	f3bf 8f6f 	isb	sy
 8004112:	f04f 0000 	mov.w	r0, #0
 8004116:	f380 8811 	msr	BASEPRI, r0
 800411a:	f04e 0e0d 	orr.w	lr, lr, #13
 800411e:	4770      	bx	lr

08004120 <pxCurrentTCBConst2>:
 8004120:	20000fa4 	.word	0x20000fa4

08004124 <vPortEnterCritical>:
 8004124:	f04f 0350 	mov.w	r3, #80	; 0x50
 8004128:	f383 8811 	msr	BASEPRI, r3
 800412c:	f3bf 8f6f 	isb	sy
 8004130:	f3bf 8f4f 	dsb	sy
/*-----------------------------------------------------------*/

void vPortEnterCritical( void )
{
	portDISABLE_INTERRUPTS();
	uxCriticalNesting++;
 8004134:	4a0a      	ldr	r2, [pc, #40]	; (8004160 <vPortEnterCritical+0x3c>)
 8004136:	6813      	ldr	r3, [r2, #0]
 8004138:	3301      	adds	r3, #1
	/* This is not the interrupt safe version of the enter critical function so
	assert() if it is being called from an interrupt context.  Only API
	functions that end in "FromISR" can be used in an interrupt.  Only assert if
	the critical nesting count is 1 to protect against recursive calls if the
	assert function also uses a critical section. */
	if( uxCriticalNesting == 1 )
 800413a:	2b01      	cmp	r3, #1
	uxCriticalNesting++;
 800413c:	6013      	str	r3, [r2, #0]
	if( uxCriticalNesting == 1 )
 800413e:	d10d      	bne.n	800415c <vPortEnterCritical+0x38>
	{
		configASSERT( ( portNVIC_INT_CTRL_REG & portVECTACTIVE_MASK ) == 0 );
 8004140:	4b08      	ldr	r3, [pc, #32]	; (8004164 <vPortEnterCritical+0x40>)
 8004142:	681b      	ldr	r3, [r3, #0]
 8004144:	f013 0fff 	tst.w	r3, #255	; 0xff
 8004148:	d008      	beq.n	800415c <vPortEnterCritical+0x38>
 800414a:	f04f 0350 	mov.w	r3, #80	; 0x50
 800414e:	f383 8811 	msr	BASEPRI, r3
 8004152:	f3bf 8f6f 	isb	sy
 8004156:	f3bf 8f4f 	dsb	sy
 800415a:	e7fe      	b.n	800415a <vPortEnterCritical+0x36>
 800415c:	4770      	bx	lr
 800415e:	bf00      	nop
 8004160:	20000010 	.word	0x20000010
 8004164:	e000ed04 	.word	0xe000ed04

08004168 <vPortExitCritical>:
}
/*-----------------------------------------------------------*/

void vPortExitCritical( void )
{
	configASSERT( uxCriticalNesting );
 8004168:	4a08      	ldr	r2, [pc, #32]	; (800418c <vPortExitCritical+0x24>)
 800416a:	6813      	ldr	r3, [r2, #0]
 800416c:	b943      	cbnz	r3, 8004180 <vPortExitCritical+0x18>
 800416e:	f04f 0350 	mov.w	r3, #80	; 0x50
 8004172:	f383 8811 	msr	BASEPRI, r3
 8004176:	f3bf 8f6f 	isb	sy
 800417a:	f3bf 8f4f 	dsb	sy
 800417e:	e7fe      	b.n	800417e <vPortExitCritical+0x16>
	uxCriticalNesting--;
 8004180:	3b01      	subs	r3, #1
 8004182:	6013      	str	r3, [r2, #0]
	if( uxCriticalNesting == 0 )
 8004184:	b90b      	cbnz	r3, 800418a <vPortExitCritical+0x22>
}
/*-----------------------------------------------------------*/

portFORCE_INLINE static void vPortSetBASEPRI( uint32_t ulNewMaskValue )
{
	__asm volatile
 8004186:	f383 8811 	msr	BASEPRI, r3
 800418a:	4770      	bx	lr
 800418c:	20000010 	.word	0x20000010

08004190 <PendSV_Handler>:

void xPortPendSVHandler( void )
{
	/* This is a naked function. */

	__asm volatile
 8004190:	f3ef 8009 	mrs	r0, PSP
 8004194:	f3bf 8f6f 	isb	sy
 8004198:	4b0d      	ldr	r3, [pc, #52]	; (80041d0 <pxCurrentTCBConst>)
 800419a:	681a      	ldr	r2, [r3, #0]
 800419c:	e920 0ff0 	stmdb	r0!, {r4, r5, r6, r7, r8, r9, sl, fp}
 80041a0:	6010      	str	r0, [r2, #0]
 80041a2:	e92d 4008 	stmdb	sp!, {r3, lr}
 80041a6:	f04f 0050 	mov.w	r0, #80	; 0x50
 80041aa:	f380 8811 	msr	BASEPRI, r0
 80041ae:	f000 fcb7 	bl	8004b20 <vTaskSwitchContext>
 80041b2:	f04f 0000 	mov.w	r0, #0
 80041b6:	f380 8811 	msr	BASEPRI, r0
 80041ba:	e8bd 4008 	ldmia.w	sp!, {r3, lr}
 80041be:	6819      	ldr	r1, [r3, #0]
 80041c0:	6808      	ldr	r0, [r1, #0]
 80041c2:	e8b0 0ff0 	ldmia.w	r0!, {r4, r5, r6, r7, r8, r9, sl, fp}
 80041c6:	f380 8809 	msr	PSP, r0
 80041ca:	f3bf 8f6f 	isb	sy
 80041ce:	4770      	bx	lr

080041d0 <pxCurrentTCBConst>:
 80041d0:	20000fa4 	.word	0x20000fa4

080041d4 <SysTick_Handler>:
	);
}
/*-----------------------------------------------------------*/

void xPortSysTickHandler( void )
{
 80041d4:	b508      	push	{r3, lr}
	__asm volatile
 80041d6:	f04f 0350 	mov.w	r3, #80	; 0x50
 80041da:	f383 8811 	msr	BASEPRI, r3
 80041de:	f3bf 8f6f 	isb	sy
 80041e2:	f3bf 8f4f 	dsb	sy
	save and then restore the interrupt mask value as its value is already
	known. */
	portDISABLE_INTERRUPTS();
	{
		/* Increment the RTOS tick. */
		if( xTaskIncrementTick() != pdFALSE )
 80041e6:	f000 fb6d 	bl	80048c4 <xTaskIncrementTick>
 80041ea:	b118      	cbz	r0, 80041f4 <SysTick_Handler+0x20>
		{
			/* A context switch is required.  Context switching is performed in
			the PendSV interrupt.  Pend the PendSV interrupt. */
			portNVIC_INT_CTRL_REG = portNVIC_PENDSVSET_BIT;
 80041ec:	f04f 5280 	mov.w	r2, #268435456	; 0x10000000
 80041f0:	4b02      	ldr	r3, [pc, #8]	; (80041fc <SysTick_Handler+0x28>)
 80041f2:	601a      	str	r2, [r3, #0]
	__asm volatile
 80041f4:	2300      	movs	r3, #0
 80041f6:	f383 8811 	msr	BASEPRI, r3
 80041fa:	bd08      	pop	{r3, pc}
 80041fc:	e000ed04 	.word	0xe000ed04

08004200 <vPortSetupTimerInterrupt>:
		ulStoppedTimerCompensation = portMISSED_COUNTS_FACTOR / ( configCPU_CLOCK_HZ / configSYSTICK_CLOCK_HZ );
	}
	#endif /* configUSE_TICKLESS_IDLE */

	/* Stop and clear the SysTick. */
	portNVIC_SYSTICK_CTRL_REG = 0UL;
 8004200:	2300      	movs	r3, #0
 8004202:	4a08      	ldr	r2, [pc, #32]	; (8004224 <vPortSetupTimerInterrupt+0x24>)
	portNVIC_SYSTICK_CURRENT_VALUE_REG = 0UL;
 8004204:	4908      	ldr	r1, [pc, #32]	; (8004228 <vPortSetupTimerInterrupt+0x28>)
	portNVIC_SYSTICK_CTRL_REG = 0UL;
 8004206:	6013      	str	r3, [r2, #0]
	portNVIC_SYSTICK_CURRENT_VALUE_REG = 0UL;
 8004208:	600b      	str	r3, [r1, #0]

	/* Configure SysTick to interrupt at the requested rate. */
	portNVIC_SYSTICK_LOAD_REG = ( configSYSTICK_CLOCK_HZ / configTICK_RATE_HZ ) - 1UL;
 800420a:	f44f 717a 	mov.w	r1, #1000	; 0x3e8
 800420e:	4b07      	ldr	r3, [pc, #28]	; (800422c <vPortSetupTimerInterrupt+0x2c>)
 8004210:	681b      	ldr	r3, [r3, #0]
 8004212:	fbb3 f3f1 	udiv	r3, r3, r1
 8004216:	4906      	ldr	r1, [pc, #24]	; (8004230 <vPortSetupTimerInterrupt+0x30>)
 8004218:	3b01      	subs	r3, #1
 800421a:	600b      	str	r3, [r1, #0]
	portNVIC_SYSTICK_CTRL_REG = ( portNVIC_SYSTICK_CLK_BIT | portNVIC_SYSTICK_INT_BIT | portNVIC_SYSTICK_ENABLE_BIT );
 800421c:	2307      	movs	r3, #7
 800421e:	6013      	str	r3, [r2, #0]
 8004220:	4770      	bx	lr
 8004222:	bf00      	nop
 8004224:	e000e010 	.word	0xe000e010
 8004228:	e000e018 	.word	0xe000e018
 800422c:	20000004 	.word	0x20000004
 8004230:	e000e014 	.word	0xe000e014

08004234 <xPortStartScheduler>:
{
 8004234:	b513      	push	{r0, r1, r4, lr}
		ulOriginalPriority = *pucFirstUserPriorityRegister;
 8004236:	4b27      	ldr	r3, [pc, #156]	; (80042d4 <xPortStartScheduler+0xa0>)
		while( ( ucMaxPriorityValue & portTOP_BIT_OF_BYTE ) == portTOP_BIT_OF_BYTE )
 8004238:	2100      	movs	r1, #0
		ulOriginalPriority = *pucFirstUserPriorityRegister;
 800423a:	781a      	ldrb	r2, [r3, #0]
 800423c:	b2d2      	uxtb	r2, r2
 800423e:	9201      	str	r2, [sp, #4]
		*pucFirstUserPriorityRegister = portMAX_8_BIT_VALUE;
 8004240:	22ff      	movs	r2, #255	; 0xff
 8004242:	701a      	strb	r2, [r3, #0]
		ucMaxPriorityValue = *pucFirstUserPriorityRegister;
 8004244:	781b      	ldrb	r3, [r3, #0]
		ucMaxSysCallPriority = configMAX_SYSCALL_INTERRUPT_PRIORITY & ucMaxPriorityValue;
 8004246:	4a24      	ldr	r2, [pc, #144]	; (80042d8 <xPortStartScheduler+0xa4>)
		ucMaxPriorityValue = *pucFirstUserPriorityRegister;
 8004248:	b2db      	uxtb	r3, r3
 800424a:	f88d 3003 	strb.w	r3, [sp, #3]
		ucMaxSysCallPriority = configMAX_SYSCALL_INTERRUPT_PRIORITY & ucMaxPriorityValue;
 800424e:	f89d 3003 	ldrb.w	r3, [sp, #3]
 8004252:	f003 0350 	and.w	r3, r3, #80	; 0x50
 8004256:	7013      	strb	r3, [r2, #0]
		ulMaxPRIGROUPValue = portMAX_PRIGROUP_BITS;
 8004258:	2207      	movs	r2, #7
 800425a:	4b20      	ldr	r3, [pc, #128]	; (80042dc <xPortStartScheduler+0xa8>)
 800425c:	601a      	str	r2, [r3, #0]
		while( ( ucMaxPriorityValue & portTOP_BIT_OF_BYTE ) == portTOP_BIT_OF_BYTE )
 800425e:	f89d 0003 	ldrb.w	r0, [sp, #3]
 8004262:	1e54      	subs	r4, r2, #1
 8004264:	0600      	lsls	r0, r0, #24
 8004266:	d40d      	bmi.n	8004284 <xPortStartScheduler+0x50>
 8004268:	b101      	cbz	r1, 800426c <xPortStartScheduler+0x38>
 800426a:	601a      	str	r2, [r3, #0]
			configASSERT( ( portMAX_PRIGROUP_BITS - ulMaxPRIGROUPValue ) == configPRIO_BITS );
 800426c:	681a      	ldr	r2, [r3, #0]
 800426e:	2a03      	cmp	r2, #3
 8004270:	d011      	beq.n	8004296 <xPortStartScheduler+0x62>
	__asm volatile
 8004272:	f04f 0350 	mov.w	r3, #80	; 0x50
 8004276:	f383 8811 	msr	BASEPRI, r3
 800427a:	f3bf 8f6f 	isb	sy
 800427e:	f3bf 8f4f 	dsb	sy
 8004282:	e7fe      	b.n	8004282 <xPortStartScheduler+0x4e>
			ucMaxPriorityValue <<= ( uint8_t ) 0x01;
 8004284:	f89d 2003 	ldrb.w	r2, [sp, #3]
 8004288:	2101      	movs	r1, #1
 800428a:	0052      	lsls	r2, r2, #1
 800428c:	b2d2      	uxtb	r2, r2
 800428e:	f88d 2003 	strb.w	r2, [sp, #3]
 8004292:	4622      	mov	r2, r4
 8004294:	e7e3      	b.n	800425e <xPortStartScheduler+0x2a>
	uxCriticalNesting = 0;
 8004296:	2400      	movs	r4, #0
		ulMaxPRIGROUPValue <<= portPRIGROUP_SHIFT;
 8004298:	0212      	lsls	r2, r2, #8
		ulMaxPRIGROUPValue &= portPRIORITY_GROUP_MASK;
 800429a:	f402 62e0 	and.w	r2, r2, #1792	; 0x700
 800429e:	601a      	str	r2, [r3, #0]
		*pucFirstUserPriorityRegister = ulOriginalPriority;
 80042a0:	9b01      	ldr	r3, [sp, #4]
 80042a2:	4a0c      	ldr	r2, [pc, #48]	; (80042d4 <xPortStartScheduler+0xa0>)
 80042a4:	b2db      	uxtb	r3, r3
 80042a6:	7013      	strb	r3, [r2, #0]
	portNVIC_SYSPRI2_REG |= portNVIC_PENDSV_PRI;
 80042a8:	4b0d      	ldr	r3, [pc, #52]	; (80042e0 <xPortStartScheduler+0xac>)
 80042aa:	681a      	ldr	r2, [r3, #0]
 80042ac:	f442 0270 	orr.w	r2, r2, #15728640	; 0xf00000
 80042b0:	601a      	str	r2, [r3, #0]
	portNVIC_SYSPRI2_REG |= portNVIC_SYSTICK_PRI;
 80042b2:	681a      	ldr	r2, [r3, #0]
 80042b4:	f042 4270 	orr.w	r2, r2, #4026531840	; 0xf0000000
 80042b8:	601a      	str	r2, [r3, #0]
	vPortSetupTimerInterrupt();
 80042ba:	f7ff ffa1 	bl	8004200 <vPortSetupTimerInterrupt>
	uxCriticalNesting = 0;
 80042be:	4b09      	ldr	r3, [pc, #36]	; (80042e4 <xPortStartScheduler+0xb0>)
 80042c0:	601c      	str	r4, [r3, #0]
	prvPortStartFirstTask();
 80042c2:	f7ff fef7 	bl	80040b4 <prvPortStartFirstTask>
	vTaskSwitchContext();
 80042c6:	f000 fc2b 	bl	8004b20 <vTaskSwitchContext>
	prvTaskExitError();
 80042ca:	f7ff fed3 	bl	8004074 <prvTaskExitError>
}
 80042ce:	4620      	mov	r0, r4
 80042d0:	b002      	add	sp, #8
 80042d2:	bd10      	pop	{r4, pc}
 80042d4:	e000e400 	.word	0xe000e400
 80042d8:	20000384 	.word	0x20000384
 80042dc:	20000388 	.word	0x20000388
 80042e0:	e000ed20 	.word	0xe000ed20
 80042e4:	20000010 	.word	0x20000010

080042e8 <prvInsertBlockIntoFreeList>:
	xBlockAllocatedBit = ( ( size_t ) 1 ) << ( ( sizeof( size_t ) * heapBITS_PER_BYTE ) - 1 );
}
/*-----------------------------------------------------------*/

static void prvInsertBlockIntoFreeList( BlockLink_t *pxBlockToInsert )
{
 80042e8:	b510      	push	{r4, lr}
BlockLink_t *pxIterator;
uint8_t *puc;

	/* Iterate through the list until a block is found that has a higher address
	than the block being inserted. */
	for( pxIterator = &xStart; pxIterator->pxNextFreeBlock < pxBlockToInsert; pxIterator = pxIterator->pxNextFreeBlock )
 80042ea:	4b0f      	ldr	r3, [pc, #60]	; (8004328 <prvInsertBlockIntoFreeList+0x40>)
 80042ec:	681a      	ldr	r2, [r3, #0]
 80042ee:	4282      	cmp	r2, r0
 80042f0:	d318      	bcc.n	8004324 <prvInsertBlockIntoFreeList+0x3c>
	}

	/* Do the block being inserted, and the block it is being inserted after
	make a contiguous block of memory? */
	puc = ( uint8_t * ) pxIterator;
	if( ( puc + pxIterator->xBlockSize ) == ( uint8_t * ) pxBlockToInsert )
 80042f2:	685c      	ldr	r4, [r3, #4]
 80042f4:	1919      	adds	r1, r3, r4
 80042f6:	4288      	cmp	r0, r1
	{
		pxIterator->xBlockSize += pxBlockToInsert->xBlockSize;
 80042f8:	bf01      	itttt	eq
 80042fa:	6841      	ldreq	r1, [r0, #4]
 80042fc:	4618      	moveq	r0, r3
 80042fe:	1909      	addeq	r1, r1, r4
 8004300:	6059      	streq	r1, [r3, #4]
	}

	/* Do the block being inserted, and the block it is being inserted before
	make a contiguous block of memory? */
	puc = ( uint8_t * ) pxBlockToInsert;
	if( ( puc + pxBlockToInsert->xBlockSize ) == ( uint8_t * ) pxIterator->pxNextFreeBlock )
 8004302:	6844      	ldr	r4, [r0, #4]
 8004304:	1901      	adds	r1, r0, r4
 8004306:	428a      	cmp	r2, r1
 8004308:	d107      	bne.n	800431a <prvInsertBlockIntoFreeList+0x32>
	{
		if( pxIterator->pxNextFreeBlock != pxEnd )
 800430a:	4908      	ldr	r1, [pc, #32]	; (800432c <prvInsertBlockIntoFreeList+0x44>)
 800430c:	6809      	ldr	r1, [r1, #0]
 800430e:	428a      	cmp	r2, r1
		{
			/* Form one big block from the two blocks. */
			pxBlockToInsert->xBlockSize += pxIterator->pxNextFreeBlock->xBlockSize;
 8004310:	bf1f      	itttt	ne
 8004312:	6851      	ldrne	r1, [r2, #4]
			pxBlockToInsert->pxNextFreeBlock = pxIterator->pxNextFreeBlock->pxNextFreeBlock;
 8004314:	6812      	ldrne	r2, [r2, #0]
			pxBlockToInsert->xBlockSize += pxIterator->pxNextFreeBlock->xBlockSize;
 8004316:	1909      	addne	r1, r1, r4
 8004318:	6041      	strne	r1, [r0, #4]

	/* If the block being inserted plugged a gab, so was merged with the block
	before and the block after, then it's pxNextFreeBlock pointer will have
	already been set, and should not be set here as that would make it point
	to itself. */
	if( pxIterator != pxBlockToInsert )
 800431a:	4298      	cmp	r0, r3
		pxBlockToInsert->pxNextFreeBlock = pxIterator->pxNextFreeBlock;
 800431c:	6002      	str	r2, [r0, #0]
	{
		pxIterator->pxNextFreeBlock = pxBlockToInsert;
 800431e:	bf18      	it	ne
 8004320:	6018      	strne	r0, [r3, #0]
 8004322:	bd10      	pop	{r4, pc}
 8004324:	4613      	mov	r3, r2
 8004326:	e7e1      	b.n	80042ec <prvInsertBlockIntoFreeList+0x4>
 8004328:	20000f9c 	.word	0x20000f9c
 800432c:	2000038c 	.word	0x2000038c

08004330 <pvPortMalloc>:
{
 8004330:	e92d 41f0 	stmdb	sp!, {r4, r5, r6, r7, r8, lr}
 8004334:	4604      	mov	r4, r0
	vTaskSuspendAll();
 8004336:	f000 fabd 	bl	80048b4 <vTaskSuspendAll>
		if( pxEnd == NULL )
 800433a:	493e      	ldr	r1, [pc, #248]	; (8004434 <pvPortMalloc+0x104>)
 800433c:	4d3e      	ldr	r5, [pc, #248]	; (8004438 <pvPortMalloc+0x108>)
 800433e:	680b      	ldr	r3, [r1, #0]
 8004340:	bb0b      	cbnz	r3, 8004386 <pvPortMalloc+0x56>
	uxAddress = ( size_t ) ucHeap;
 8004342:	4a3e      	ldr	r2, [pc, #248]	; (800443c <pvPortMalloc+0x10c>)
	if( ( uxAddress & portBYTE_ALIGNMENT_MASK ) != 0 )
 8004344:	0756      	lsls	r6, r2, #29
		uxAddress += ( portBYTE_ALIGNMENT - 1 );
 8004346:	bf1d      	ittte	ne
 8004348:	1dd0      	addne	r0, r2, #7
		uxAddress &= ~( ( size_t ) portBYTE_ALIGNMENT_MASK );
 800434a:	f020 0007 	bicne.w	r0, r0, #7
		xTotalHeapSize -= uxAddress - ( size_t ) ucHeap;
 800434e:	f502 6340 	addne.w	r3, r2, #3072	; 0xc00
size_t xTotalHeapSize = configTOTAL_HEAP_SIZE;
 8004352:	f44f 6340 	moveq.w	r3, #3072	; 0xc00
		uxAddress &= ~( ( size_t ) portBYTE_ALIGNMENT_MASK );
 8004356:	bf1c      	itt	ne
 8004358:	4602      	movne	r2, r0
		xTotalHeapSize -= uxAddress - ( size_t ) ucHeap;
 800435a:	1a1b      	subne	r3, r3, r0
	xStart.xBlockSize = ( size_t ) 0;
 800435c:	2000      	movs	r0, #0
	uxAddress = ( ( size_t ) pucAlignedHeap ) + xTotalHeapSize;
 800435e:	4413      	add	r3, r2
	xStart.pxNextFreeBlock = ( void * ) pucAlignedHeap;
 8004360:	4e37      	ldr	r6, [pc, #220]	; (8004440 <pvPortMalloc+0x110>)
	uxAddress -= xHeapStructSize;
 8004362:	3b08      	subs	r3, #8
	uxAddress &= ~( ( size_t ) portBYTE_ALIGNMENT_MASK );
 8004364:	f023 0307 	bic.w	r3, r3, #7
	xStart.xBlockSize = ( size_t ) 0;
 8004368:	6070      	str	r0, [r6, #4]
	xStart.pxNextFreeBlock = ( void * ) pucAlignedHeap;
 800436a:	6032      	str	r2, [r6, #0]
	pxEnd->xBlockSize = 0;
 800436c:	6058      	str	r0, [r3, #4]
	pxEnd->pxNextFreeBlock = NULL;
 800436e:	6018      	str	r0, [r3, #0]
	pxEnd = ( void * ) uxAddress;
 8004370:	600b      	str	r3, [r1, #0]
	pxFirstFreeBlock->xBlockSize = uxAddress - ( size_t ) pxFirstFreeBlock;
 8004372:	1a98      	subs	r0, r3, r2
	pxFirstFreeBlock->pxNextFreeBlock = pxEnd;
 8004374:	6013      	str	r3, [r2, #0]
	xMinimumEverFreeBytesRemaining = pxFirstFreeBlock->xBlockSize;
 8004376:	4b33      	ldr	r3, [pc, #204]	; (8004444 <pvPortMalloc+0x114>)
	pxFirstFreeBlock->xBlockSize = uxAddress - ( size_t ) pxFirstFreeBlock;
 8004378:	6050      	str	r0, [r2, #4]
	xMinimumEverFreeBytesRemaining = pxFirstFreeBlock->xBlockSize;
 800437a:	6018      	str	r0, [r3, #0]
	xFreeBytesRemaining = pxFirstFreeBlock->xBlockSize;
 800437c:	4b32      	ldr	r3, [pc, #200]	; (8004448 <pvPortMalloc+0x118>)
 800437e:	6018      	str	r0, [r3, #0]
	xBlockAllocatedBit = ( ( size_t ) 1 ) << ( ( sizeof( size_t ) * heapBITS_PER_BYTE ) - 1 );
 8004380:	f04f 4300 	mov.w	r3, #2147483648	; 0x80000000
 8004384:	602b      	str	r3, [r5, #0]
		if( ( xWantedSize & xBlockAllocatedBit ) == 0 )
 8004386:	682f      	ldr	r7, [r5, #0]
 8004388:	4227      	tst	r7, r4
 800438a:	d116      	bne.n	80043ba <pvPortMalloc+0x8a>
			if( xWantedSize > 0 )
 800438c:	2c00      	cmp	r4, #0
 800438e:	d040      	beq.n	8004412 <pvPortMalloc+0xe2>
				xWantedSize += xHeapStructSize;
 8004390:	f104 0308 	add.w	r3, r4, #8
				if( ( xWantedSize & portBYTE_ALIGNMENT_MASK ) != 0x00 )
 8004394:	0758      	lsls	r0, r3, #29
					xWantedSize += ( portBYTE_ALIGNMENT - ( xWantedSize & portBYTE_ALIGNMENT_MASK ) );
 8004396:	bf1c      	itt	ne
 8004398:	f023 0307 	bicne.w	r3, r3, #7
 800439c:	3308      	addne	r3, #8
			if( ( xWantedSize > 0 ) && ( xWantedSize <= xFreeBytesRemaining ) )
 800439e:	b163      	cbz	r3, 80043ba <pvPortMalloc+0x8a>
 80043a0:	4a29      	ldr	r2, [pc, #164]	; (8004448 <pvPortMalloc+0x118>)
 80043a2:	6816      	ldr	r6, [r2, #0]
 80043a4:	4690      	mov	r8, r2
 80043a6:	42b3      	cmp	r3, r6
 80043a8:	d807      	bhi.n	80043ba <pvPortMalloc+0x8a>
				pxBlock = xStart.pxNextFreeBlock;
 80043aa:	4a25      	ldr	r2, [pc, #148]	; (8004440 <pvPortMalloc+0x110>)
 80043ac:	6815      	ldr	r5, [r2, #0]
				while( ( pxBlock->xBlockSize < xWantedSize ) && ( pxBlock->pxNextFreeBlock != NULL ) )
 80043ae:	6868      	ldr	r0, [r5, #4]
 80043b0:	4283      	cmp	r3, r0
 80043b2:	d804      	bhi.n	80043be <pvPortMalloc+0x8e>
				if( pxBlock != pxEnd )
 80043b4:	6809      	ldr	r1, [r1, #0]
 80043b6:	428d      	cmp	r5, r1
 80043b8:	d107      	bne.n	80043ca <pvPortMalloc+0x9a>
void *pvReturn = NULL;
 80043ba:	2400      	movs	r4, #0
 80043bc:	e029      	b.n	8004412 <pvPortMalloc+0xe2>
				while( ( pxBlock->xBlockSize < xWantedSize ) && ( pxBlock->pxNextFreeBlock != NULL ) )
 80043be:	682c      	ldr	r4, [r5, #0]
 80043c0:	2c00      	cmp	r4, #0
 80043c2:	d0f7      	beq.n	80043b4 <pvPortMalloc+0x84>
 80043c4:	462a      	mov	r2, r5
 80043c6:	4625      	mov	r5, r4
 80043c8:	e7f1      	b.n	80043ae <pvPortMalloc+0x7e>
					pxPreviousBlock->pxNextFreeBlock = pxBlock->pxNextFreeBlock;
 80043ca:	6829      	ldr	r1, [r5, #0]
					pvReturn = ( void * ) ( ( ( uint8_t * ) pxPreviousBlock->pxNextFreeBlock ) + xHeapStructSize );
 80043cc:	6814      	ldr	r4, [r2, #0]
					pxPreviousBlock->pxNextFreeBlock = pxBlock->pxNextFreeBlock;
 80043ce:	6011      	str	r1, [r2, #0]
					if( ( pxBlock->xBlockSize - xWantedSize ) > heapMINIMUM_BLOCK_SIZE )
 80043d0:	1ac2      	subs	r2, r0, r3
 80043d2:	2a10      	cmp	r2, #16
 80043d4:	d90f      	bls.n	80043f6 <pvPortMalloc+0xc6>
						pxNewBlockLink = ( void * ) ( ( ( uint8_t * ) pxBlock ) + xWantedSize );
 80043d6:	18e8      	adds	r0, r5, r3
						configASSERT( ( ( ( size_t ) pxNewBlockLink ) & portBYTE_ALIGNMENT_MASK ) == 0 );
 80043d8:	0741      	lsls	r1, r0, #29
 80043da:	d008      	beq.n	80043ee <pvPortMalloc+0xbe>
 80043dc:	f04f 0350 	mov.w	r3, #80	; 0x50
 80043e0:	f383 8811 	msr	BASEPRI, r3
 80043e4:	f3bf 8f6f 	isb	sy
 80043e8:	f3bf 8f4f 	dsb	sy
 80043ec:	e7fe      	b.n	80043ec <pvPortMalloc+0xbc>
						pxNewBlockLink->xBlockSize = pxBlock->xBlockSize - xWantedSize;
 80043ee:	6042      	str	r2, [r0, #4]
						pxBlock->xBlockSize = xWantedSize;
 80043f0:	606b      	str	r3, [r5, #4]
						prvInsertBlockIntoFreeList( pxNewBlockLink );
 80043f2:	f7ff ff79 	bl	80042e8 <prvInsertBlockIntoFreeList>
					xFreeBytesRemaining -= pxBlock->xBlockSize;
 80043f6:	686b      	ldr	r3, [r5, #4]
					if( xFreeBytesRemaining < xMinimumEverFreeBytesRemaining )
 80043f8:	4912      	ldr	r1, [pc, #72]	; (8004444 <pvPortMalloc+0x114>)
					xFreeBytesRemaining -= pxBlock->xBlockSize;
 80043fa:	1af6      	subs	r6, r6, r3
					pxBlock->xBlockSize |= xBlockAllocatedBit;
 80043fc:	431f      	orrs	r7, r3
					pxBlock->pxNextFreeBlock = NULL;
 80043fe:	2300      	movs	r3, #0
					if( xFreeBytesRemaining < xMinimumEverFreeBytesRemaining )
 8004400:	6808      	ldr	r0, [r1, #0]
					xFreeBytesRemaining -= pxBlock->xBlockSize;
 8004402:	f8c8 6000 	str.w	r6, [r8]
					if( xFreeBytesRemaining < xMinimumEverFreeBytesRemaining )
 8004406:	4286      	cmp	r6, r0
						xMinimumEverFreeBytesRemaining = xFreeBytesRemaining;
 8004408:	bf38      	it	cc
 800440a:	600e      	strcc	r6, [r1, #0]
					pvReturn = ( void * ) ( ( ( uint8_t * ) pxPreviousBlock->pxNextFreeBlock ) + xHeapStructSize );
 800440c:	3408      	adds	r4, #8
					pxBlock->xBlockSize |= xBlockAllocatedBit;
 800440e:	606f      	str	r7, [r5, #4]
					pxBlock->pxNextFreeBlock = NULL;
 8004410:	602b      	str	r3, [r5, #0]
	( void ) xTaskResumeAll();
 8004412:	f000 fae9 	bl	80049e8 <xTaskResumeAll>
	configASSERT( ( ( ( size_t ) pvReturn ) & ( size_t ) portBYTE_ALIGNMENT_MASK ) == 0 );
 8004416:	0763      	lsls	r3, r4, #29
 8004418:	d008      	beq.n	800442c <pvPortMalloc+0xfc>
 800441a:	f04f 0350 	mov.w	r3, #80	; 0x50
 800441e:	f383 8811 	msr	BASEPRI, r3
 8004422:	f3bf 8f6f 	isb	sy
 8004426:	f3bf 8f4f 	dsb	sy
 800442a:	e7fe      	b.n	800442a <pvPortMalloc+0xfa>
}
 800442c:	4620      	mov	r0, r4
 800442e:	e8bd 81f0 	ldmia.w	sp!, {r4, r5, r6, r7, r8, pc}
 8004432:	bf00      	nop
 8004434:	2000038c 	.word	0x2000038c
 8004438:	20000f90 	.word	0x20000f90
 800443c:	20000390 	.word	0x20000390
 8004440:	20000f9c 	.word	0x20000f9c
 8004444:	20000f98 	.word	0x20000f98
 8004448:	20000f94 	.word	0x20000f94

0800444c <vPortFree>:
{
 800444c:	b510      	push	{r4, lr}
	if( pv != NULL )
 800444e:	4604      	mov	r4, r0
 8004450:	b370      	cbz	r0, 80044b0 <vPortFree+0x64>
		configASSERT( ( pxLink->xBlockSize & xBlockAllocatedBit ) != 0 );
 8004452:	4a18      	ldr	r2, [pc, #96]	; (80044b4 <vPortFree+0x68>)
 8004454:	f850 3c04 	ldr.w	r3, [r0, #-4]
 8004458:	6812      	ldr	r2, [r2, #0]
 800445a:	4213      	tst	r3, r2
 800445c:	d108      	bne.n	8004470 <vPortFree+0x24>
 800445e:	f04f 0350 	mov.w	r3, #80	; 0x50
 8004462:	f383 8811 	msr	BASEPRI, r3
 8004466:	f3bf 8f6f 	isb	sy
 800446a:	f3bf 8f4f 	dsb	sy
 800446e:	e7fe      	b.n	800446e <vPortFree+0x22>
		configASSERT( pxLink->pxNextFreeBlock == NULL );
 8004470:	f850 1c08 	ldr.w	r1, [r0, #-8]
 8004474:	b141      	cbz	r1, 8004488 <vPortFree+0x3c>
 8004476:	f04f 0350 	mov.w	r3, #80	; 0x50
 800447a:	f383 8811 	msr	BASEPRI, r3
 800447e:	f3bf 8f6f 	isb	sy
 8004482:	f3bf 8f4f 	dsb	sy
 8004486:	e7fe      	b.n	8004486 <vPortFree+0x3a>
				pxLink->xBlockSize &= ~xBlockAllocatedBit;
 8004488:	ea23 0302 	bic.w	r3, r3, r2
 800448c:	f840 3c04 	str.w	r3, [r0, #-4]
				vTaskSuspendAll();
 8004490:	f000 fa10 	bl	80048b4 <vTaskSuspendAll>
					xFreeBytesRemaining += pxLink->xBlockSize;
 8004494:	4a08      	ldr	r2, [pc, #32]	; (80044b8 <vPortFree+0x6c>)
 8004496:	f854 3c04 	ldr.w	r3, [r4, #-4]
 800449a:	6811      	ldr	r1, [r2, #0]
					prvInsertBlockIntoFreeList( ( ( BlockLink_t * ) pxLink ) );
 800449c:	f1a4 0008 	sub.w	r0, r4, #8
					xFreeBytesRemaining += pxLink->xBlockSize;
 80044a0:	440b      	add	r3, r1
 80044a2:	6013      	str	r3, [r2, #0]
					prvInsertBlockIntoFreeList( ( ( BlockLink_t * ) pxLink ) );
 80044a4:	f7ff ff20 	bl	80042e8 <prvInsertBlockIntoFreeList>
}
 80044a8:	e8bd 4010 	ldmia.w	sp!, {r4, lr}
				( void ) xTaskResumeAll();
 80044ac:	f000 ba9c 	b.w	80049e8 <xTaskResumeAll>
 80044b0:	bd10      	pop	{r4, pc}
 80044b2:	bf00      	nop
 80044b4:	20000f90 	.word	0x20000f90
 80044b8:	20000f94 	.word	0x20000f94

080044bc <prvAddNewTaskToReadyList>:
	}
}
/*-----------------------------------------------------------*/

static void prvAddNewTaskToReadyList( TCB_t *pxNewTCB )
{
 80044bc:	e92d 41f0 	stmdb	sp!, {r4, r5, r6, r7, r8, lr}
 80044c0:	4606      	mov	r6, r0
	/* Ensure interrupts don't access the task lists while the lists are being
	updated. */
	taskENTER_CRITICAL();
 80044c2:	f7ff fe2f 	bl	8004124 <vPortEnterCritical>
	{
		uxCurrentNumberOfTasks++;
 80044c6:	4b2d      	ldr	r3, [pc, #180]	; (800457c <prvAddNewTaskToReadyList+0xc0>)
		if( pxCurrentTCB == NULL )
 80044c8:	4c2d      	ldr	r4, [pc, #180]	; (8004580 <prvAddNewTaskToReadyList+0xc4>)
		uxCurrentNumberOfTasks++;
 80044ca:	681a      	ldr	r2, [r3, #0]
 80044cc:	4f2d      	ldr	r7, [pc, #180]	; (8004584 <prvAddNewTaskToReadyList+0xc8>)
 80044ce:	3201      	adds	r2, #1
 80044d0:	601a      	str	r2, [r3, #0]
		if( pxCurrentTCB == NULL )
 80044d2:	6825      	ldr	r5, [r4, #0]
 80044d4:	2d00      	cmp	r5, #0
 80044d6:	d145      	bne.n	8004564 <prvAddNewTaskToReadyList+0xa8>
		{
			/* There are no other tasks, or all the other tasks are in
			the suspended state - make this the current task. */
			pxCurrentTCB = pxNewTCB;
 80044d8:	6026      	str	r6, [r4, #0]

			if( uxCurrentNumberOfTasks == ( UBaseType_t ) 1 )
 80044da:	681b      	ldr	r3, [r3, #0]
 80044dc:	2b01      	cmp	r3, #1
 80044de:	d11c      	bne.n	800451a <prvAddNewTaskToReadyList+0x5e>
{
UBaseType_t uxPriority;

	for( uxPriority = ( UBaseType_t ) 0U; uxPriority < ( UBaseType_t ) configMAX_PRIORITIES; uxPriority++ )
	{
		vListInitialise( &( pxReadyTasksLists[ uxPriority ] ) );
 80044e0:	1978      	adds	r0, r7, r5
 80044e2:	3514      	adds	r5, #20
 80044e4:	f7ff fd83 	bl	8003fee <vListInitialise>
	for( uxPriority = ( UBaseType_t ) 0U; uxPriority < ( UBaseType_t ) configMAX_PRIORITIES; uxPriority++ )
 80044e8:	2d8c      	cmp	r5, #140	; 0x8c
 80044ea:	d1f9      	bne.n	80044e0 <prvAddNewTaskToReadyList+0x24>
	}

	vListInitialise( &xDelayedTaskList1 );
 80044ec:	f8df 80c0 	ldr.w	r8, [pc, #192]	; 80045b0 <prvAddNewTaskToReadyList+0xf4>
	vListInitialise( &xDelayedTaskList2 );
 80044f0:	4d25      	ldr	r5, [pc, #148]	; (8004588 <prvAddNewTaskToReadyList+0xcc>)
	vListInitialise( &xDelayedTaskList1 );
 80044f2:	4640      	mov	r0, r8
 80044f4:	f7ff fd7b 	bl	8003fee <vListInitialise>
	vListInitialise( &xDelayedTaskList2 );
 80044f8:	4628      	mov	r0, r5
 80044fa:	f7ff fd78 	bl	8003fee <vListInitialise>
	vListInitialise( &xPendingReadyList );
 80044fe:	4823      	ldr	r0, [pc, #140]	; (800458c <prvAddNewTaskToReadyList+0xd0>)
 8004500:	f7ff fd75 	bl	8003fee <vListInitialise>

	#if ( INCLUDE_vTaskDelete == 1 )
	{
		vListInitialise( &xTasksWaitingTermination );
 8004504:	4822      	ldr	r0, [pc, #136]	; (8004590 <prvAddNewTaskToReadyList+0xd4>)
 8004506:	f7ff fd72 	bl	8003fee <vListInitialise>
	}
	#endif /* INCLUDE_vTaskDelete */

	#if ( INCLUDE_vTaskSuspend == 1 )
	{
		vListInitialise( &xSuspendedTaskList );
 800450a:	4822      	ldr	r0, [pc, #136]	; (8004594 <prvAddNewTaskToReadyList+0xd8>)
 800450c:	f7ff fd6f 	bl	8003fee <vListInitialise>
	}
	#endif /* INCLUDE_vTaskSuspend */

	/* Start with pxDelayedTaskList using list1 and the pxOverflowDelayedTaskList
	using list2. */
	pxDelayedTaskList = &xDelayedTaskList1;
 8004510:	4b21      	ldr	r3, [pc, #132]	; (8004598 <prvAddNewTaskToReadyList+0xdc>)
 8004512:	f8c3 8000 	str.w	r8, [r3]
	pxOverflowDelayedTaskList = &xDelayedTaskList2;
 8004516:	4b21      	ldr	r3, [pc, #132]	; (800459c <prvAddNewTaskToReadyList+0xe0>)
 8004518:	601d      	str	r5, [r3, #0]
		uxTaskNumber++;
 800451a:	4a21      	ldr	r2, [pc, #132]	; (80045a0 <prvAddNewTaskToReadyList+0xe4>)
		prvAddTaskToReadyList( pxNewTCB );
 800451c:	4921      	ldr	r1, [pc, #132]	; (80045a4 <prvAddNewTaskToReadyList+0xe8>)
		uxTaskNumber++;
 800451e:	6813      	ldr	r3, [r2, #0]
		prvAddTaskToReadyList( pxNewTCB );
 8004520:	6808      	ldr	r0, [r1, #0]
		uxTaskNumber++;
 8004522:	3301      	adds	r3, #1
 8004524:	6013      	str	r3, [r2, #0]
		prvAddTaskToReadyList( pxNewTCB );
 8004526:	2301      	movs	r3, #1
 8004528:	6af2      	ldr	r2, [r6, #44]	; 0x2c
 800452a:	4093      	lsls	r3, r2
 800452c:	4303      	orrs	r3, r0
 800452e:	2014      	movs	r0, #20
 8004530:	600b      	str	r3, [r1, #0]
 8004532:	fb00 7002 	mla	r0, r0, r2, r7
 8004536:	1d31      	adds	r1, r6, #4
 8004538:	f7ff fd67 	bl	800400a <vListInsertEnd>
	taskEXIT_CRITICAL();
 800453c:	f7ff fe14 	bl	8004168 <vPortExitCritical>
	if( xSchedulerRunning != pdFALSE )
 8004540:	4b19      	ldr	r3, [pc, #100]	; (80045a8 <prvAddNewTaskToReadyList+0xec>)
 8004542:	681b      	ldr	r3, [r3, #0]
 8004544:	b163      	cbz	r3, 8004560 <prvAddNewTaskToReadyList+0xa4>
		if( pxCurrentTCB->uxPriority < pxNewTCB->uxPriority )
 8004546:	6823      	ldr	r3, [r4, #0]
 8004548:	6ada      	ldr	r2, [r3, #44]	; 0x2c
 800454a:	6af3      	ldr	r3, [r6, #44]	; 0x2c
 800454c:	429a      	cmp	r2, r3
 800454e:	d207      	bcs.n	8004560 <prvAddNewTaskToReadyList+0xa4>
			taskYIELD_IF_USING_PREEMPTION();
 8004550:	f04f 5280 	mov.w	r2, #268435456	; 0x10000000
 8004554:	4b15      	ldr	r3, [pc, #84]	; (80045ac <prvAddNewTaskToReadyList+0xf0>)
 8004556:	601a      	str	r2, [r3, #0]
 8004558:	f3bf 8f4f 	dsb	sy
 800455c:	f3bf 8f6f 	isb	sy
 8004560:	e8bd 81f0 	ldmia.w	sp!, {r4, r5, r6, r7, r8, pc}
			if( xSchedulerRunning == pdFALSE )
 8004564:	4b10      	ldr	r3, [pc, #64]	; (80045a8 <prvAddNewTaskToReadyList+0xec>)
 8004566:	681b      	ldr	r3, [r3, #0]
 8004568:	2b00      	cmp	r3, #0
 800456a:	d1d6      	bne.n	800451a <prvAddNewTaskToReadyList+0x5e>
				if( pxCurrentTCB->uxPriority <= pxNewTCB->uxPriority )
 800456c:	6823      	ldr	r3, [r4, #0]
 800456e:	6ada      	ldr	r2, [r3, #44]	; 0x2c
 8004570:	6af3      	ldr	r3, [r6, #44]	; 0x2c
 8004572:	429a      	cmp	r2, r3
					pxCurrentTCB = pxNewTCB;
 8004574:	bf98      	it	ls
 8004576:	6026      	strls	r6, [r4, #0]
 8004578:	e7cf      	b.n	800451a <prvAddNewTaskToReadyList+0x5e>
 800457a:	bf00      	nop
 800457c:	2000103c 	.word	0x2000103c
 8004580:	20000fa4 	.word	0x20000fa4
 8004584:	20000fb0 	.word	0x20000fb0
 8004588:	20001068 	.word	0x20001068
 800458c:	20001084 	.word	0x20001084
 8004590:	200010b0 	.word	0x200010b0
 8004594:	2000109c 	.word	0x2000109c
 8004598:	20000fa8 	.word	0x20000fa8
 800459c:	20000fac 	.word	0x20000fac
 80045a0:	2000104c 	.word	0x2000104c
 80045a4:	20001050 	.word	0x20001050
 80045a8:	20001098 	.word	0x20001098
 80045ac:	e000ed04 	.word	0xe000ed04
 80045b0:	20001054 	.word	0x20001054

080045b4 <prvResetNextTaskUnblockTime>:

static void prvResetNextTaskUnblockTime( void )
{
TCB_t *pxTCB;

	if( listLIST_IS_EMPTY( pxDelayedTaskList ) != pdFALSE )
 80045b4:	4a06      	ldr	r2, [pc, #24]	; (80045d0 <prvResetNextTaskUnblockTime+0x1c>)
 80045b6:	6813      	ldr	r3, [r2, #0]
 80045b8:	6819      	ldr	r1, [r3, #0]
 80045ba:	4b06      	ldr	r3, [pc, #24]	; (80045d4 <prvResetNextTaskUnblockTime+0x20>)
 80045bc:	b919      	cbnz	r1, 80045c6 <prvResetNextTaskUnblockTime+0x12>
	{
		/* The new current delayed list is empty.  Set xNextTaskUnblockTime to
		the maximum possible value so it is	extremely unlikely that the
		if( xTickCount >= xNextTaskUnblockTime ) test will pass until
		there is an item in the delayed list. */
		xNextTaskUnblockTime = portMAX_DELAY;
 80045be:	f04f 32ff 	mov.w	r2, #4294967295
		/* The new current delayed list is not empty, get the value of
		the item at the head of the delayed list.  This is the time at
		which the task at the head of the delayed list should be removed
		from the Blocked state. */
		( pxTCB ) = ( TCB_t * ) listGET_OWNER_OF_HEAD_ENTRY( pxDelayedTaskList );
		xNextTaskUnblockTime = listGET_LIST_ITEM_VALUE( &( ( pxTCB )->xStateListItem ) );
 80045c2:	601a      	str	r2, [r3, #0]
 80045c4:	4770      	bx	lr
		( pxTCB ) = ( TCB_t * ) listGET_OWNER_OF_HEAD_ENTRY( pxDelayedTaskList );
 80045c6:	6812      	ldr	r2, [r2, #0]
 80045c8:	68d2      	ldr	r2, [r2, #12]
		xNextTaskUnblockTime = listGET_LIST_ITEM_VALUE( &( ( pxTCB )->xStateListItem ) );
 80045ca:	68d2      	ldr	r2, [r2, #12]
 80045cc:	6852      	ldr	r2, [r2, #4]
 80045ce:	e7f8      	b.n	80045c2 <prvResetNextTaskUnblockTime+0xe>
 80045d0:	20000fa8 	.word	0x20000fa8
 80045d4:	2000107c 	.word	0x2000107c

080045d8 <prvInitialiseNewTask.isra.2>:
static void prvInitialiseNewTask( 	TaskFunction_t pxTaskCode,
 80045d8:	e92d 47f0 	stmdb	sp!, {r4, r5, r6, r7, r8, r9, sl, lr}
 80045dc:	4681      	mov	r9, r0
 80045de:	9c0a      	ldr	r4, [sp, #40]	; 0x28
		pxTopOfStack = pxNewTCB->pxStack + ( ulStackDepth - ( uint32_t ) 1 );
 80045e0:	f102 4280 	add.w	r2, r2, #1073741824	; 0x40000000
 80045e4:	6b26      	ldr	r6, [r4, #48]	; 0x30
 80045e6:	3a01      	subs	r2, #1
 80045e8:	eb06 0682 	add.w	r6, r6, r2, lsl #2
static void prvInitialiseNewTask( 	TaskFunction_t pxTaskCode,
 80045ec:	f8dd 8024 	ldr.w	r8, [sp, #36]	; 0x24
 80045f0:	469a      	mov	sl, r3
		pxTopOfStack = ( StackType_t * ) ( ( ( portPOINTER_SIZE_TYPE ) pxTopOfStack ) & ( ~( ( portPOINTER_SIZE_TYPE ) portBYTE_ALIGNMENT_MASK ) ) ); /*lint !e923 MISRA exception.  Avoiding casts between pointers and integers is not practical.  Size differences accounted for using portPOINTER_SIZE_TYPE type. */
 80045f2:	f026 0607 	bic.w	r6, r6, #7
 80045f6:	1e4b      	subs	r3, r1, #1
 80045f8:	f104 0234 	add.w	r2, r4, #52	; 0x34
 80045fc:	310f      	adds	r1, #15
		pxNewTCB->pcTaskName[ x ] = pcName[ x ];
 80045fe:	7858      	ldrb	r0, [r3, #1]
 8004600:	f802 0b01 	strb.w	r0, [r2], #1
		if( pcName[ x ] == 0x00 )
 8004604:	f813 0f01 	ldrb.w	r0, [r3, #1]!
 8004608:	b108      	cbz	r0, 800460e <prvInitialiseNewTask.isra.2+0x36>
	for( x = ( UBaseType_t ) 0; x < ( UBaseType_t ) configMAX_TASK_NAME_LEN; x++ )
 800460a:	428b      	cmp	r3, r1
 800460c:	d1f7      	bne.n	80045fe <prvInitialiseNewTask.isra.2+0x26>
 800460e:	9d08      	ldr	r5, [sp, #32]
	pxNewTCB->pcTaskName[ configMAX_TASK_NAME_LEN - 1 ] = '\0';
 8004610:	2700      	movs	r7, #0
 8004612:	2d06      	cmp	r5, #6
 8004614:	bf28      	it	cs
 8004616:	2506      	movcs	r5, #6
	vListInitialiseItem( &( pxNewTCB->xStateListItem ) );
 8004618:	1d20      	adds	r0, r4, #4
	pxNewTCB->uxPriority = uxPriority;
 800461a:	62e5      	str	r5, [r4, #44]	; 0x2c
		pxNewTCB->uxBasePriority = uxPriority;
 800461c:	6465      	str	r5, [r4, #68]	; 0x44
	pxNewTCB->pcTaskName[ configMAX_TASK_NAME_LEN - 1 ] = '\0';
 800461e:	f884 7043 	strb.w	r7, [r4, #67]	; 0x43
		pxNewTCB->uxMutexesHeld = 0;
 8004622:	64a7      	str	r7, [r4, #72]	; 0x48
	vListInitialiseItem( &( pxNewTCB->xStateListItem ) );
 8004624:	f7ff fcee 	bl	8004004 <vListInitialiseItem>
	listSET_LIST_ITEM_VALUE( &( pxNewTCB->xEventListItem ), ( TickType_t ) configMAX_PRIORITIES - ( TickType_t ) uxPriority ); /*lint !e961 MISRA exception as the casts are only redundant for some ports. */
 8004628:	f1c5 0507 	rsb	r5, r5, #7
	vListInitialiseItem( &( pxNewTCB->xEventListItem ) );
 800462c:	f104 0018 	add.w	r0, r4, #24
 8004630:	f7ff fce8 	bl	8004004 <vListInitialiseItem>
		pxNewTCB->ulNotifiedValue = 0;
 8004634:	64e7      	str	r7, [r4, #76]	; 0x4c
	listSET_LIST_ITEM_OWNER( &( pxNewTCB->xStateListItem ), pxNewTCB );
 8004636:	6124      	str	r4, [r4, #16]
	listSET_LIST_ITEM_VALUE( &( pxNewTCB->xEventListItem ), ( TickType_t ) configMAX_PRIORITIES - ( TickType_t ) uxPriority ); /*lint !e961 MISRA exception as the casts are only redundant for some ports. */
 8004638:	61a5      	str	r5, [r4, #24]
	listSET_LIST_ITEM_OWNER( &( pxNewTCB->xEventListItem ), pxNewTCB );
 800463a:	6264      	str	r4, [r4, #36]	; 0x24
		pxNewTCB->ucNotifyState = taskNOT_WAITING_NOTIFICATION;
 800463c:	f884 7050 	strb.w	r7, [r4, #80]	; 0x50
		pxNewTCB->pxTopOfStack = pxPortInitialiseStack( pxTopOfStack, pxTaskCode, pvParameters );
 8004640:	4652      	mov	r2, sl
 8004642:	4649      	mov	r1, r9
 8004644:	4630      	mov	r0, r6
 8004646:	f7ff fd45 	bl	80040d4 <pxPortInitialiseStack>
 800464a:	6020      	str	r0, [r4, #0]
	if( ( void * ) pxCreatedTask != NULL )
 800464c:	f1b8 0f00 	cmp.w	r8, #0
 8004650:	d001      	beq.n	8004656 <prvInitialiseNewTask.isra.2+0x7e>
		*pxCreatedTask = ( TaskHandle_t ) pxNewTCB;
 8004652:	f8c8 4000 	str.w	r4, [r8]
 8004656:	e8bd 87f0 	ldmia.w	sp!, {r4, r5, r6, r7, r8, r9, sl, pc}

0800465a <prvDeleteTCB>:
	{
 800465a:	b510      	push	{r4, lr}
			if( pxTCB->ucStaticallyAllocated == tskDYNAMICALLY_ALLOCATED_STACK_AND_TCB )
 800465c:	f890 3051 	ldrb.w	r3, [r0, #81]	; 0x51
	{
 8004660:	4604      	mov	r4, r0
			if( pxTCB->ucStaticallyAllocated == tskDYNAMICALLY_ALLOCATED_STACK_AND_TCB )
 8004662:	b93b      	cbnz	r3, 8004674 <prvDeleteTCB+0x1a>
				vPortFree( pxTCB->pxStack );
 8004664:	6b00      	ldr	r0, [r0, #48]	; 0x30
 8004666:	f7ff fef1 	bl	800444c <vPortFree>
				vPortFree( pxTCB );
 800466a:	4620      	mov	r0, r4
	}
 800466c:	e8bd 4010 	ldmia.w	sp!, {r4, lr}
				vPortFree( pxTCB );
 8004670:	f7ff beec 	b.w	800444c <vPortFree>
			else if( pxTCB->ucStaticallyAllocated == tskSTATICALLY_ALLOCATED_STACK_ONLY )
 8004674:	2b01      	cmp	r3, #1
 8004676:	d0f9      	beq.n	800466c <prvDeleteTCB+0x12>
				configASSERT( pxTCB->ucStaticallyAllocated == tskSTATICALLY_ALLOCATED_STACK_AND_TCB	);
 8004678:	2b02      	cmp	r3, #2
 800467a:	d008      	beq.n	800468e <prvDeleteTCB+0x34>
 800467c:	f04f 0350 	mov.w	r3, #80	; 0x50
 8004680:	f383 8811 	msr	BASEPRI, r3
 8004684:	f3bf 8f6f 	isb	sy
 8004688:	f3bf 8f4f 	dsb	sy
 800468c:	e7fe      	b.n	800468c <prvDeleteTCB+0x32>
 800468e:	bd10      	pop	{r4, pc}

08004690 <prvIdleTask>:
{
 8004690:	b580      	push	{r7, lr}
				taskYIELD();
 8004692:	f8df 805c 	ldr.w	r8, [pc, #92]	; 80046f0 <prvIdleTask+0x60>
				pxTCB = ( TCB_t * ) listGET_OWNER_OF_HEAD_ENTRY( ( &xTasksWaitingTermination ) );
 8004696:	4f12      	ldr	r7, [pc, #72]	; (80046e0 <prvIdleTask+0x50>)
		while( uxDeletedTasksWaitingCleanUp > ( UBaseType_t ) 0U )
 8004698:	4c12      	ldr	r4, [pc, #72]	; (80046e4 <prvIdleTask+0x54>)
				--uxCurrentNumberOfTasks;
 800469a:	4d13      	ldr	r5, [pc, #76]	; (80046e8 <prvIdleTask+0x58>)
		while( uxDeletedTasksWaitingCleanUp > ( UBaseType_t ) 0U )
 800469c:	6823      	ldr	r3, [r4, #0]
 800469e:	b963      	cbnz	r3, 80046ba <prvIdleTask+0x2a>
			if( listCURRENT_LIST_LENGTH( &( pxReadyTasksLists[ tskIDLE_PRIORITY ] ) ) > ( UBaseType_t ) 1 )
 80046a0:	4b12      	ldr	r3, [pc, #72]	; (80046ec <prvIdleTask+0x5c>)
 80046a2:	681b      	ldr	r3, [r3, #0]
 80046a4:	2b01      	cmp	r3, #1
 80046a6:	d9f8      	bls.n	800469a <prvIdleTask+0xa>
				taskYIELD();
 80046a8:	f04f 5380 	mov.w	r3, #268435456	; 0x10000000
 80046ac:	f8c8 3000 	str.w	r3, [r8]
 80046b0:	f3bf 8f4f 	dsb	sy
 80046b4:	f3bf 8f6f 	isb	sy
 80046b8:	e7ee      	b.n	8004698 <prvIdleTask+0x8>
			taskENTER_CRITICAL();
 80046ba:	f7ff fd33 	bl	8004124 <vPortEnterCritical>
				pxTCB = ( TCB_t * ) listGET_OWNER_OF_HEAD_ENTRY( ( &xTasksWaitingTermination ) );
 80046be:	68fb      	ldr	r3, [r7, #12]
 80046c0:	68de      	ldr	r6, [r3, #12]
				( void ) uxListRemove( &( pxTCB->xStateListItem ) );
 80046c2:	1d30      	adds	r0, r6, #4
 80046c4:	f7ff fcc4 	bl	8004050 <uxListRemove>
				--uxCurrentNumberOfTasks;
 80046c8:	682b      	ldr	r3, [r5, #0]
 80046ca:	3b01      	subs	r3, #1
 80046cc:	602b      	str	r3, [r5, #0]
				--uxDeletedTasksWaitingCleanUp;
 80046ce:	6823      	ldr	r3, [r4, #0]
 80046d0:	3b01      	subs	r3, #1
 80046d2:	6023      	str	r3, [r4, #0]
			taskEXIT_CRITICAL();
 80046d4:	f7ff fd48 	bl	8004168 <vPortExitCritical>
			prvDeleteTCB( pxTCB );
 80046d8:	4630      	mov	r0, r6
 80046da:	f7ff ffbe 	bl	800465a <prvDeleteTCB>
 80046de:	e7dd      	b.n	800469c <prvIdleTask+0xc>
 80046e0:	200010b0 	.word	0x200010b0
 80046e4:	20001040 	.word	0x20001040
 80046e8:	2000103c 	.word	0x2000103c
 80046ec:	20000fb0 	.word	0x20000fb0
 80046f0:	e000ed04 	.word	0xe000ed04

080046f4 <prvAddCurrentTaskToDelayedList>:
#endif /* configUSE_TASK_NOTIFICATIONS */
/*-----------------------------------------------------------*/


static void prvAddCurrentTaskToDelayedList( TickType_t xTicksToWait, const BaseType_t xCanBlockIndefinitely )
{
 80046f4:	b5f8      	push	{r3, r4, r5, r6, r7, lr}
TickType_t xTimeToWake;
const TickType_t xConstTickCount = xTickCount;
 80046f6:	4b1b      	ldr	r3, [pc, #108]	; (8004764 <prvAddCurrentTaskToDelayedList+0x70>)
	}
	#endif

	/* Remove the task from the ready list before adding it to the blocked list
	as the same list item is used for both lists. */
	if( uxListRemove( &( pxCurrentTCB->xStateListItem ) ) == ( UBaseType_t ) 0 )
 80046f8:	4e1b      	ldr	r6, [pc, #108]	; (8004768 <prvAddCurrentTaskToDelayedList+0x74>)
const TickType_t xConstTickCount = xTickCount;
 80046fa:	681d      	ldr	r5, [r3, #0]
{
 80046fc:	4604      	mov	r4, r0
	if( uxListRemove( &( pxCurrentTCB->xStateListItem ) ) == ( UBaseType_t ) 0 )
 80046fe:	6830      	ldr	r0, [r6, #0]
{
 8004700:	460f      	mov	r7, r1
	if( uxListRemove( &( pxCurrentTCB->xStateListItem ) ) == ( UBaseType_t ) 0 )
 8004702:	3004      	adds	r0, #4
 8004704:	f7ff fca4 	bl	8004050 <uxListRemove>
 8004708:	4633      	mov	r3, r6
 800470a:	b940      	cbnz	r0, 800471e <prvAddCurrentTaskToDelayedList+0x2a>
	{
		/* The current task must be in a ready list, so there is no need to
		check, and the port reset macro can be called directly. */
		portRESET_READY_PRIORITY( pxCurrentTCB->uxPriority, uxTopReadyPriority );
 800470c:	2001      	movs	r0, #1
 800470e:	6831      	ldr	r1, [r6, #0]
 8004710:	4e16      	ldr	r6, [pc, #88]	; (800476c <prvAddCurrentTaskToDelayedList+0x78>)
 8004712:	6ac9      	ldr	r1, [r1, #44]	; 0x2c
 8004714:	6832      	ldr	r2, [r6, #0]
 8004716:	4088      	lsls	r0, r1
 8004718:	ea22 0200 	bic.w	r2, r2, r0
 800471c:	6032      	str	r2, [r6, #0]
		mtCOVERAGE_TEST_MARKER();
	}

	#if ( INCLUDE_vTaskSuspend == 1 )
	{
		if( ( xTicksToWait == portMAX_DELAY ) && ( xCanBlockIndefinitely != pdFALSE ) )
 800471e:	1c62      	adds	r2, r4, #1
 8004720:	d107      	bne.n	8004732 <prvAddCurrentTaskToDelayedList+0x3e>
 8004722:	b137      	cbz	r7, 8004732 <prvAddCurrentTaskToDelayedList+0x3e>
		{
			/* Add the task to the suspended task list instead of a delayed task
			list to ensure it is not woken by a timing event.  It will block
			indefinitely. */
			vListInsertEnd( &xSuspendedTaskList, &( pxCurrentTCB->xStateListItem ) );
 8004724:	6819      	ldr	r1, [r3, #0]
 8004726:	4812      	ldr	r0, [pc, #72]	; (8004770 <prvAddCurrentTaskToDelayedList+0x7c>)
 8004728:	3104      	adds	r1, #4

		/* Avoid compiler warning when INCLUDE_vTaskSuspend is not 1. */
		( void ) xCanBlockIndefinitely;
	}
	#endif /* INCLUDE_vTaskSuspend */
}
 800472a:	e8bd 40f8 	ldmia.w	sp!, {r3, r4, r5, r6, r7, lr}
			vListInsertEnd( &xSuspendedTaskList, &( pxCurrentTCB->xStateListItem ) );
 800472e:	f7ff bc6c 	b.w	800400a <vListInsertEnd>
			xTimeToWake = xConstTickCount + xTicksToWait;
 8004732:	442c      	add	r4, r5
			listSET_LIST_ITEM_VALUE( &( pxCurrentTCB->xStateListItem ), xTimeToWake );
 8004734:	681a      	ldr	r2, [r3, #0]
			if( xTimeToWake < xConstTickCount )
 8004736:	42a5      	cmp	r5, r4
			listSET_LIST_ITEM_VALUE( &( pxCurrentTCB->xStateListItem ), xTimeToWake );
 8004738:	6054      	str	r4, [r2, #4]
			if( xTimeToWake < xConstTickCount )
 800473a:	d907      	bls.n	800474c <prvAddCurrentTaskToDelayedList+0x58>
				vListInsert( pxOverflowDelayedTaskList, &( pxCurrentTCB->xStateListItem ) );
 800473c:	4a0d      	ldr	r2, [pc, #52]	; (8004774 <prvAddCurrentTaskToDelayedList+0x80>)
 800473e:	6810      	ldr	r0, [r2, #0]
 8004740:	6819      	ldr	r1, [r3, #0]
}
 8004742:	e8bd 40f8 	ldmia.w	sp!, {r3, r4, r5, r6, r7, lr}
				vListInsert( pxOverflowDelayedTaskList, &( pxCurrentTCB->xStateListItem ) );
 8004746:	3104      	adds	r1, #4
 8004748:	f7ff bc6b 	b.w	8004022 <vListInsert>
				vListInsert( pxDelayedTaskList, &( pxCurrentTCB->xStateListItem ) );
 800474c:	4a0a      	ldr	r2, [pc, #40]	; (8004778 <prvAddCurrentTaskToDelayedList+0x84>)
 800474e:	6810      	ldr	r0, [r2, #0]
 8004750:	6819      	ldr	r1, [r3, #0]
 8004752:	3104      	adds	r1, #4
 8004754:	f7ff fc65 	bl	8004022 <vListInsert>
				if( xTimeToWake < xNextTaskUnblockTime )
 8004758:	4b08      	ldr	r3, [pc, #32]	; (800477c <prvAddCurrentTaskToDelayedList+0x88>)
 800475a:	681a      	ldr	r2, [r3, #0]
 800475c:	4294      	cmp	r4, r2
					xNextTaskUnblockTime = xTimeToWake;
 800475e:	bf38      	it	cc
 8004760:	601c      	strcc	r4, [r3, #0]
 8004762:	bdf8      	pop	{r3, r4, r5, r6, r7, pc}
 8004764:	200010c4 	.word	0x200010c4
 8004768:	20000fa4 	.word	0x20000fa4
 800476c:	20001050 	.word	0x20001050
 8004770:	2000109c 	.word	0x2000109c
 8004774:	20000fac 	.word	0x20000fac
 8004778:	20000fa8 	.word	0x20000fa8
 800477c:	2000107c 	.word	0x2000107c

08004780 <xTaskCreateStatic>:
	{
 8004780:	b570      	push	{r4, r5, r6, lr}
 8004782:	b086      	sub	sp, #24
 8004784:	9d0b      	ldr	r5, [sp, #44]	; 0x2c
 8004786:	9c0c      	ldr	r4, [sp, #48]	; 0x30
		configASSERT( puxStackBuffer != NULL );
 8004788:	b945      	cbnz	r5, 800479c <xTaskCreateStatic+0x1c>
 800478a:	f04f 0350 	mov.w	r3, #80	; 0x50
 800478e:	f383 8811 	msr	BASEPRI, r3
 8004792:	f3bf 8f6f 	isb	sy
 8004796:	f3bf 8f4f 	dsb	sy
 800479a:	e7fe      	b.n	800479a <xTaskCreateStatic+0x1a>
		configASSERT( pxTaskBuffer != NULL );
 800479c:	b944      	cbnz	r4, 80047b0 <xTaskCreateStatic+0x30>
 800479e:	f04f 0350 	mov.w	r3, #80	; 0x50
 80047a2:	f383 8811 	msr	BASEPRI, r3
 80047a6:	f3bf 8f6f 	isb	sy
 80047aa:	f3bf 8f4f 	dsb	sy
 80047ae:	e7fe      	b.n	80047ae <xTaskCreateStatic+0x2e>
			volatile size_t xSize = sizeof( StaticTask_t );
 80047b0:	2654      	movs	r6, #84	; 0x54
 80047b2:	9604      	str	r6, [sp, #16]
			configASSERT( xSize == sizeof( TCB_t ) );
 80047b4:	9e04      	ldr	r6, [sp, #16]
 80047b6:	2e54      	cmp	r6, #84	; 0x54
 80047b8:	d008      	beq.n	80047cc <xTaskCreateStatic+0x4c>
 80047ba:	f04f 0350 	mov.w	r3, #80	; 0x50
 80047be:	f383 8811 	msr	BASEPRI, r3
 80047c2:	f3bf 8f6f 	isb	sy
 80047c6:	f3bf 8f4f 	dsb	sy
 80047ca:	e7fe      	b.n	80047ca <xTaskCreateStatic+0x4a>
			pxNewTCB->pxStack = ( StackType_t * ) puxStackBuffer;
 80047cc:	6325      	str	r5, [r4, #48]	; 0x30
				pxNewTCB->ucStaticallyAllocated = tskSTATICALLY_ALLOCATED_STACK_AND_TCB;
 80047ce:	2502      	movs	r5, #2
 80047d0:	f884 5051 	strb.w	r5, [r4, #81]	; 0x51
			prvInitialiseNewTask( pxTaskCode, pcName, ulStackDepth, pvParameters, uxPriority, &xReturn, pxNewTCB, NULL );
 80047d4:	ad05      	add	r5, sp, #20
 80047d6:	9501      	str	r5, [sp, #4]
 80047d8:	9d0a      	ldr	r5, [sp, #40]	; 0x28
 80047da:	9402      	str	r4, [sp, #8]
 80047dc:	9500      	str	r5, [sp, #0]
 80047de:	f7ff fefb 	bl	80045d8 <prvInitialiseNewTask.isra.2>
			prvAddNewTaskToReadyList( pxNewTCB );
 80047e2:	4620      	mov	r0, r4
 80047e4:	f7ff fe6a 	bl	80044bc <prvAddNewTaskToReadyList>
	}
 80047e8:	9805      	ldr	r0, [sp, #20]
 80047ea:	b006      	add	sp, #24
 80047ec:	bd70      	pop	{r4, r5, r6, pc}

080047ee <xTaskCreate>:
	{
 80047ee:	e92d 43f0 	stmdb	sp!, {r4, r5, r6, r7, r8, r9, lr}
 80047f2:	4607      	mov	r7, r0
 80047f4:	b085      	sub	sp, #20
			pxStack = ( StackType_t * ) pvPortMalloc( ( ( ( size_t ) usStackDepth ) * sizeof( StackType_t ) ) ); /*lint !e961 MISRA exception as the casts are only redundant for some ports. */
 80047f6:	0090      	lsls	r0, r2, #2
	{
 80047f8:	4688      	mov	r8, r1
 80047fa:	4616      	mov	r6, r2
 80047fc:	4699      	mov	r9, r3
			pxStack = ( StackType_t * ) pvPortMalloc( ( ( ( size_t ) usStackDepth ) * sizeof( StackType_t ) ) ); /*lint !e961 MISRA exception as the casts are only redundant for some ports. */
 80047fe:	f7ff fd97 	bl	8004330 <pvPortMalloc>
			if( pxStack != NULL )
 8004802:	4605      	mov	r5, r0
 8004804:	b1e8      	cbz	r0, 8004842 <xTaskCreate+0x54>
				pxNewTCB = ( TCB_t * ) pvPortMalloc( sizeof( TCB_t ) ); /*lint !e961 MISRA exception as the casts are only redundant for some paths. */
 8004806:	2054      	movs	r0, #84	; 0x54
 8004808:	f7ff fd92 	bl	8004330 <pvPortMalloc>
				if( pxNewTCB != NULL )
 800480c:	4604      	mov	r4, r0
 800480e:	b1a8      	cbz	r0, 800483c <xTaskCreate+0x4e>
				pxNewTCB->ucStaticallyAllocated = tskDYNAMICALLY_ALLOCATED_STACK_AND_TCB;
 8004810:	2300      	movs	r3, #0
 8004812:	f880 3051 	strb.w	r3, [r0, #81]	; 0x51
			prvInitialiseNewTask( pxTaskCode, pcName, ( uint32_t ) usStackDepth, pvParameters, uxPriority, pxCreatedTask, pxNewTCB, NULL );
 8004816:	9b0d      	ldr	r3, [sp, #52]	; 0x34
					pxNewTCB->pxStack = pxStack;
 8004818:	6305      	str	r5, [r0, #48]	; 0x30
			prvInitialiseNewTask( pxTaskCode, pcName, ( uint32_t ) usStackDepth, pvParameters, uxPriority, pxCreatedTask, pxNewTCB, NULL );
 800481a:	9301      	str	r3, [sp, #4]
 800481c:	9b0c      	ldr	r3, [sp, #48]	; 0x30
 800481e:	9002      	str	r0, [sp, #8]
 8004820:	9300      	str	r3, [sp, #0]
 8004822:	4632      	mov	r2, r6
 8004824:	464b      	mov	r3, r9
 8004826:	4641      	mov	r1, r8
 8004828:	4638      	mov	r0, r7
 800482a:	f7ff fed5 	bl	80045d8 <prvInitialiseNewTask.isra.2>
			prvAddNewTaskToReadyList( pxNewTCB );
 800482e:	4620      	mov	r0, r4
 8004830:	f7ff fe44 	bl	80044bc <prvAddNewTaskToReadyList>
			xReturn = pdPASS;
 8004834:	2001      	movs	r0, #1
	}
 8004836:	b005      	add	sp, #20
 8004838:	e8bd 83f0 	ldmia.w	sp!, {r4, r5, r6, r7, r8, r9, pc}
					vPortFree( pxStack );
 800483c:	4628      	mov	r0, r5
 800483e:	f7ff fe05 	bl	800444c <vPortFree>
			xReturn = errCOULD_NOT_ALLOCATE_REQUIRED_MEMORY;
 8004842:	f04f 30ff 	mov.w	r0, #4294967295
		return xReturn;
 8004846:	e7f6      	b.n	8004836 <xTaskCreate+0x48>

08004848 <vTaskStartScheduler>:
{
 8004848:	b510      	push	{r4, lr}
		StaticTask_t *pxIdleTaskTCBBuffer = NULL;
 800484a:	2400      	movs	r4, #0
{
 800484c:	b088      	sub	sp, #32
		vApplicationGetIdleTaskMemory( &pxIdleTaskTCBBuffer, &pxIdleTaskStackBuffer, &ulIdleTaskStackSize );
 800484e:	aa07      	add	r2, sp, #28
 8004850:	a906      	add	r1, sp, #24
 8004852:	a805      	add	r0, sp, #20
		StaticTask_t *pxIdleTaskTCBBuffer = NULL;
 8004854:	9405      	str	r4, [sp, #20]
		StackType_t *pxIdleTaskStackBuffer = NULL;
 8004856:	9406      	str	r4, [sp, #24]
		vApplicationGetIdleTaskMemory( &pxIdleTaskTCBBuffer, &pxIdleTaskStackBuffer, &ulIdleTaskStackSize );
 8004858:	f7fd fce2 	bl	8002220 <vApplicationGetIdleTaskMemory>
		xIdleTaskHandle = xTaskCreateStatic(	prvIdleTask,
 800485c:	9b05      	ldr	r3, [sp, #20]
 800485e:	9400      	str	r4, [sp, #0]
 8004860:	9302      	str	r3, [sp, #8]
 8004862:	9b06      	ldr	r3, [sp, #24]
 8004864:	9a07      	ldr	r2, [sp, #28]
 8004866:	9301      	str	r3, [sp, #4]
 8004868:	490d      	ldr	r1, [pc, #52]	; (80048a0 <vTaskStartScheduler+0x58>)
 800486a:	4623      	mov	r3, r4
 800486c:	480d      	ldr	r0, [pc, #52]	; (80048a4 <vTaskStartScheduler+0x5c>)
 800486e:	f7ff ff87 	bl	8004780 <xTaskCreateStatic>
		if( xIdleTaskHandle != NULL )
 8004872:	b190      	cbz	r0, 800489a <vTaskStartScheduler+0x52>
 8004874:	f04f 0350 	mov.w	r3, #80	; 0x50
 8004878:	f383 8811 	msr	BASEPRI, r3
 800487c:	f3bf 8f6f 	isb	sy
 8004880:	f3bf 8f4f 	dsb	sy
		xNextTaskUnblockTime = portMAX_DELAY;
 8004884:	f04f 32ff 	mov.w	r2, #4294967295
 8004888:	4b07      	ldr	r3, [pc, #28]	; (80048a8 <vTaskStartScheduler+0x60>)
 800488a:	601a      	str	r2, [r3, #0]
		xSchedulerRunning = pdTRUE;
 800488c:	2201      	movs	r2, #1
 800488e:	4b07      	ldr	r3, [pc, #28]	; (80048ac <vTaskStartScheduler+0x64>)
 8004890:	601a      	str	r2, [r3, #0]
		xTickCount = ( TickType_t ) 0U;
 8004892:	4b07      	ldr	r3, [pc, #28]	; (80048b0 <vTaskStartScheduler+0x68>)
 8004894:	601c      	str	r4, [r3, #0]
		if( xPortStartScheduler() != pdFALSE )
 8004896:	f7ff fccd 	bl	8004234 <xPortStartScheduler>
}
 800489a:	b008      	add	sp, #32
 800489c:	bd10      	pop	{r4, pc}
 800489e:	bf00      	nop
 80048a0:	0800593b 	.word	0x0800593b
 80048a4:	08004691 	.word	0x08004691
 80048a8:	2000107c 	.word	0x2000107c
 80048ac:	20001098 	.word	0x20001098
 80048b0:	200010c4 	.word	0x200010c4

080048b4 <vTaskSuspendAll>:
	++uxSchedulerSuspended;
 80048b4:	4a02      	ldr	r2, [pc, #8]	; (80048c0 <vTaskSuspendAll+0xc>)
 80048b6:	6813      	ldr	r3, [r2, #0]
 80048b8:	3301      	adds	r3, #1
 80048ba:	6013      	str	r3, [r2, #0]
 80048bc:	4770      	bx	lr
 80048be:	bf00      	nop
 80048c0:	20001048 	.word	0x20001048

080048c4 <xTaskIncrementTick>:
{
 80048c4:	e92d 4ff8 	stmdb	sp!, {r3, r4, r5, r6, r7, r8, r9, sl, fp, lr}
	if( uxSchedulerSuspended == ( UBaseType_t ) pdFALSE )
 80048c8:	4b3c      	ldr	r3, [pc, #240]	; (80049bc <xTaskIncrementTick+0xf8>)
 80048ca:	681b      	ldr	r3, [r3, #0]
 80048cc:	2b00      	cmp	r3, #0
 80048ce:	d153      	bne.n	8004978 <xTaskIncrementTick+0xb4>
		const TickType_t xConstTickCount = xTickCount + ( TickType_t ) 1;
 80048d0:	4b3b      	ldr	r3, [pc, #236]	; (80049c0 <xTaskIncrementTick+0xfc>)
 80048d2:	681c      	ldr	r4, [r3, #0]
 80048d4:	3401      	adds	r4, #1
		xTickCount = xConstTickCount;
 80048d6:	601c      	str	r4, [r3, #0]
		if( xConstTickCount == ( TickType_t ) 0U ) /*lint !e774 'if' does not always evaluate to false as it is looking for an overflow. */
 80048d8:	b9bc      	cbnz	r4, 800490a <xTaskIncrementTick+0x46>
			taskSWITCH_DELAYED_LISTS();
 80048da:	4b3a      	ldr	r3, [pc, #232]	; (80049c4 <xTaskIncrementTick+0x100>)
 80048dc:	681a      	ldr	r2, [r3, #0]
 80048de:	6812      	ldr	r2, [r2, #0]
 80048e0:	b142      	cbz	r2, 80048f4 <xTaskIncrementTick+0x30>
 80048e2:	f04f 0350 	mov.w	r3, #80	; 0x50
 80048e6:	f383 8811 	msr	BASEPRI, r3
 80048ea:	f3bf 8f6f 	isb	sy
 80048ee:	f3bf 8f4f 	dsb	sy
 80048f2:	e7fe      	b.n	80048f2 <xTaskIncrementTick+0x2e>
 80048f4:	4a34      	ldr	r2, [pc, #208]	; (80049c8 <xTaskIncrementTick+0x104>)
 80048f6:	6819      	ldr	r1, [r3, #0]
 80048f8:	6810      	ldr	r0, [r2, #0]
 80048fa:	6018      	str	r0, [r3, #0]
 80048fc:	6011      	str	r1, [r2, #0]
 80048fe:	4a33      	ldr	r2, [pc, #204]	; (80049cc <xTaskIncrementTick+0x108>)
 8004900:	6813      	ldr	r3, [r2, #0]
 8004902:	3301      	adds	r3, #1
 8004904:	6013      	str	r3, [r2, #0]
 8004906:	f7ff fe55 	bl	80045b4 <prvResetNextTaskUnblockTime>
		if( xConstTickCount >= xNextTaskUnblockTime )
 800490a:	4d31      	ldr	r5, [pc, #196]	; (80049d0 <xTaskIncrementTick+0x10c>)
 800490c:	f04f 0b00 	mov.w	fp, #0
 8004910:	682b      	ldr	r3, [r5, #0]
 8004912:	4f30      	ldr	r7, [pc, #192]	; (80049d4 <xTaskIncrementTick+0x110>)
 8004914:	429c      	cmp	r4, r3
 8004916:	d33e      	bcc.n	8004996 <xTaskIncrementTick+0xd2>
				if( listLIST_IS_EMPTY( pxDelayedTaskList ) != pdFALSE )
 8004918:	f8df 80a8 	ldr.w	r8, [pc, #168]	; 80049c4 <xTaskIncrementTick+0x100>
					prvAddTaskToReadyList( pxTCB );
 800491c:	f8df 90c4 	ldr.w	r9, [pc, #196]	; 80049e4 <xTaskIncrementTick+0x120>
				if( listLIST_IS_EMPTY( pxDelayedTaskList ) != pdFALSE )
 8004920:	f8d8 2000 	ldr.w	r2, [r8]
 8004924:	6812      	ldr	r2, [r2, #0]
 8004926:	bb72      	cbnz	r2, 8004986 <xTaskIncrementTick+0xc2>
					xNextTaskUnblockTime = portMAX_DELAY; /*lint !e961 MISRA exception as the casts are only redundant for some ports. */
 8004928:	f04f 32ff 	mov.w	r2, #4294967295
 800492c:	602a      	str	r2, [r5, #0]
					break;
 800492e:	e032      	b.n	8004996 <xTaskIncrementTick+0xd2>
					( void ) uxListRemove( &( pxTCB->xStateListItem ) );
 8004930:	f106 0a04 	add.w	sl, r6, #4
 8004934:	4650      	mov	r0, sl
 8004936:	f7ff fb8b 	bl	8004050 <uxListRemove>
					if( listLIST_ITEM_CONTAINER( &( pxTCB->xEventListItem ) ) != NULL )
 800493a:	6ab1      	ldr	r1, [r6, #40]	; 0x28
 800493c:	b119      	cbz	r1, 8004946 <xTaskIncrementTick+0x82>
						( void ) uxListRemove( &( pxTCB->xEventListItem ) );
 800493e:	f106 0018 	add.w	r0, r6, #24
 8004942:	f7ff fb85 	bl	8004050 <uxListRemove>
					prvAddTaskToReadyList( pxTCB );
 8004946:	2201      	movs	r2, #1
 8004948:	f04f 0e14 	mov.w	lr, #20
 800494c:	6af0      	ldr	r0, [r6, #44]	; 0x2c
 800494e:	f8d9 3000 	ldr.w	r3, [r9]
 8004952:	fa02 f100 	lsl.w	r1, r2, r0
 8004956:	4319      	orrs	r1, r3
 8004958:	4b1f      	ldr	r3, [pc, #124]	; (80049d8 <xTaskIncrementTick+0x114>)
 800495a:	f8c9 1000 	str.w	r1, [r9]
 800495e:	fb0e 3000 	mla	r0, lr, r0, r3
 8004962:	4651      	mov	r1, sl
 8004964:	f7ff fb51 	bl	800400a <vListInsertEnd>
						if( pxTCB->uxPriority >= pxCurrentTCB->uxPriority )
 8004968:	6838      	ldr	r0, [r7, #0]
 800496a:	6af1      	ldr	r1, [r6, #44]	; 0x2c
 800496c:	6ac2      	ldr	r2, [r0, #44]	; 0x2c
							xSwitchRequired = pdTRUE;
 800496e:	4291      	cmp	r1, r2
 8004970:	bf28      	it	cs
 8004972:	f04f 0b01 	movcs.w	fp, #1
 8004976:	e7d3      	b.n	8004920 <xTaskIncrementTick+0x5c>
		++uxPendedTicks;
 8004978:	4a18      	ldr	r2, [pc, #96]	; (80049dc <xTaskIncrementTick+0x118>)
BaseType_t xSwitchRequired = pdFALSE;
 800497a:	f04f 0b00 	mov.w	fp, #0
		++uxPendedTicks;
 800497e:	6813      	ldr	r3, [r2, #0]
 8004980:	3301      	adds	r3, #1
 8004982:	6013      	str	r3, [r2, #0]
 8004984:	e011      	b.n	80049aa <xTaskIncrementTick+0xe6>
					pxTCB = ( TCB_t * ) listGET_OWNER_OF_HEAD_ENTRY( pxDelayedTaskList );
 8004986:	f8d8 2000 	ldr.w	r2, [r8]
 800498a:	68d2      	ldr	r2, [r2, #12]
 800498c:	68d6      	ldr	r6, [r2, #12]
					xItemValue = listGET_LIST_ITEM_VALUE( &( pxTCB->xStateListItem ) );
 800498e:	6871      	ldr	r1, [r6, #4]
					if( xConstTickCount < xItemValue )
 8004990:	428c      	cmp	r4, r1
 8004992:	d2cd      	bcs.n	8004930 <xTaskIncrementTick+0x6c>
						xNextTaskUnblockTime = xItemValue;
 8004994:	6029      	str	r1, [r5, #0]
			if( listCURRENT_LIST_LENGTH( &( pxReadyTasksLists[ pxCurrentTCB->uxPriority ] ) ) > ( UBaseType_t ) 1 )
 8004996:	683a      	ldr	r2, [r7, #0]
 8004998:	4b0f      	ldr	r3, [pc, #60]	; (80049d8 <xTaskIncrementTick+0x114>)
 800499a:	6ad1      	ldr	r1, [r2, #44]	; 0x2c
 800499c:	2214      	movs	r2, #20
 800499e:	434a      	muls	r2, r1
 80049a0:	589a      	ldr	r2, [r3, r2]
				xSwitchRequired = pdTRUE;
 80049a2:	2a02      	cmp	r2, #2
 80049a4:	bf28      	it	cs
 80049a6:	f04f 0b01 	movcs.w	fp, #1
		if( xYieldPending != pdFALSE )
 80049aa:	4a0d      	ldr	r2, [pc, #52]	; (80049e0 <xTaskIncrementTick+0x11c>)
 80049ac:	6812      	ldr	r2, [r2, #0]
			xSwitchRequired = pdTRUE;
 80049ae:	2a00      	cmp	r2, #0
 80049b0:	bf18      	it	ne
 80049b2:	f04f 0b01 	movne.w	fp, #1
}
 80049b6:	4658      	mov	r0, fp
 80049b8:	e8bd 8ff8 	ldmia.w	sp!, {r3, r4, r5, r6, r7, r8, r9, sl, fp, pc}
 80049bc:	20001048 	.word	0x20001048
 80049c0:	200010c4 	.word	0x200010c4
 80049c4:	20000fa8 	.word	0x20000fa8
 80049c8:	20000fac 	.word	0x20000fac
 80049cc:	20001080 	.word	0x20001080
 80049d0:	2000107c 	.word	0x2000107c
 80049d4:	20000fa4 	.word	0x20000fa4
 80049d8:	20000fb0 	.word	0x20000fb0
 80049dc:	20001044 	.word	0x20001044
 80049e0:	200010c8 	.word	0x200010c8
 80049e4:	20001050 	.word	0x20001050

080049e8 <xTaskResumeAll>:
{
 80049e8:	e92d 43f8 	stmdb	sp!, {r3, r4, r5, r6, r7, r8, r9, lr}
	configASSERT( uxSchedulerSuspended );
 80049ec:	4c31      	ldr	r4, [pc, #196]	; (8004ab4 <xTaskResumeAll+0xcc>)
 80049ee:	6823      	ldr	r3, [r4, #0]
 80049f0:	b943      	cbnz	r3, 8004a04 <xTaskResumeAll+0x1c>
 80049f2:	f04f 0350 	mov.w	r3, #80	; 0x50
 80049f6:	f383 8811 	msr	BASEPRI, r3
 80049fa:	f3bf 8f6f 	isb	sy
 80049fe:	f3bf 8f4f 	dsb	sy
 8004a02:	e7fe      	b.n	8004a02 <xTaskResumeAll+0x1a>
	taskENTER_CRITICAL();
 8004a04:	f7ff fb8e 	bl	8004124 <vPortEnterCritical>
		--uxSchedulerSuspended;
 8004a08:	6823      	ldr	r3, [r4, #0]
 8004a0a:	3b01      	subs	r3, #1
 8004a0c:	6023      	str	r3, [r4, #0]
		if( uxSchedulerSuspended == ( UBaseType_t ) pdFALSE )
 8004a0e:	6824      	ldr	r4, [r4, #0]
 8004a10:	b12c      	cbz	r4, 8004a1e <xTaskResumeAll+0x36>
BaseType_t xAlreadyYielded = pdFALSE;
 8004a12:	2400      	movs	r4, #0
	taskEXIT_CRITICAL();
 8004a14:	f7ff fba8 	bl	8004168 <vPortExitCritical>
}
 8004a18:	4620      	mov	r0, r4
 8004a1a:	e8bd 83f8 	ldmia.w	sp!, {r3, r4, r5, r6, r7, r8, r9, pc}
			if( uxCurrentNumberOfTasks > ( UBaseType_t ) 0U )
 8004a1e:	4b26      	ldr	r3, [pc, #152]	; (8004ab8 <xTaskResumeAll+0xd0>)
 8004a20:	681b      	ldr	r3, [r3, #0]
 8004a22:	2b00      	cmp	r3, #0
 8004a24:	d0f5      	beq.n	8004a12 <xTaskResumeAll+0x2a>
				while( listLIST_IS_EMPTY( &xPendingReadyList ) == pdFALSE )
 8004a26:	f8df 90a8 	ldr.w	r9, [pc, #168]	; 8004ad0 <xTaskResumeAll+0xe8>
					prvAddTaskToReadyList( pxTCB );
 8004a2a:	4f24      	ldr	r7, [pc, #144]	; (8004abc <xTaskResumeAll+0xd4>)
 8004a2c:	f8df 80a4 	ldr.w	r8, [pc, #164]	; 8004ad4 <xTaskResumeAll+0xec>
				while( listLIST_IS_EMPTY( &xPendingReadyList ) == pdFALSE )
 8004a30:	f8d9 3000 	ldr.w	r3, [r9]
 8004a34:	b9e3      	cbnz	r3, 8004a70 <xTaskResumeAll+0x88>
				if( pxTCB != NULL )
 8004a36:	b10c      	cbz	r4, 8004a3c <xTaskResumeAll+0x54>
					prvResetNextTaskUnblockTime();
 8004a38:	f7ff fdbc 	bl	80045b4 <prvResetNextTaskUnblockTime>
					UBaseType_t uxPendedCounts = uxPendedTicks; /* Non-volatile copy. */
 8004a3c:	4d20      	ldr	r5, [pc, #128]	; (8004ac0 <xTaskResumeAll+0xd8>)
 8004a3e:	682c      	ldr	r4, [r5, #0]
					if( uxPendedCounts > ( UBaseType_t ) 0U )
 8004a40:	b144      	cbz	r4, 8004a54 <xTaskResumeAll+0x6c>
								xYieldPending = pdTRUE;
 8004a42:	2701      	movs	r7, #1
 8004a44:	4e1f      	ldr	r6, [pc, #124]	; (8004ac4 <xTaskResumeAll+0xdc>)
							if( xTaskIncrementTick() != pdFALSE )
 8004a46:	f7ff ff3d 	bl	80048c4 <xTaskIncrementTick>
 8004a4a:	b100      	cbz	r0, 8004a4e <xTaskResumeAll+0x66>
								xYieldPending = pdTRUE;
 8004a4c:	6037      	str	r7, [r6, #0]
						} while( uxPendedCounts > ( UBaseType_t ) 0U );
 8004a4e:	3c01      	subs	r4, #1
 8004a50:	d1f9      	bne.n	8004a46 <xTaskResumeAll+0x5e>
						uxPendedTicks = 0;
 8004a52:	602c      	str	r4, [r5, #0]
				if( xYieldPending != pdFALSE )
 8004a54:	4b1b      	ldr	r3, [pc, #108]	; (8004ac4 <xTaskResumeAll+0xdc>)
 8004a56:	681b      	ldr	r3, [r3, #0]
 8004a58:	2b00      	cmp	r3, #0
 8004a5a:	d0da      	beq.n	8004a12 <xTaskResumeAll+0x2a>
					taskYIELD_IF_USING_PREEMPTION();
 8004a5c:	f04f 5280 	mov.w	r2, #268435456	; 0x10000000
 8004a60:	4b19      	ldr	r3, [pc, #100]	; (8004ac8 <xTaskResumeAll+0xe0>)
 8004a62:	601a      	str	r2, [r3, #0]
 8004a64:	f3bf 8f4f 	dsb	sy
 8004a68:	f3bf 8f6f 	isb	sy
						xAlreadyYielded = pdTRUE;
 8004a6c:	2401      	movs	r4, #1
 8004a6e:	e7d1      	b.n	8004a14 <xTaskResumeAll+0x2c>
					pxTCB = ( TCB_t * ) listGET_OWNER_OF_HEAD_ENTRY( ( &xPendingReadyList ) );
 8004a70:	f8d9 300c 	ldr.w	r3, [r9, #12]
					prvAddTaskToReadyList( pxTCB );
 8004a74:	2501      	movs	r5, #1
					pxTCB = ( TCB_t * ) listGET_OWNER_OF_HEAD_ENTRY( ( &xPendingReadyList ) );
 8004a76:	68dc      	ldr	r4, [r3, #12]
					( void ) uxListRemove( &( pxTCB->xStateListItem ) );
 8004a78:	1d26      	adds	r6, r4, #4
					( void ) uxListRemove( &( pxTCB->xEventListItem ) );
 8004a7a:	f104 0018 	add.w	r0, r4, #24
 8004a7e:	f7ff fae7 	bl	8004050 <uxListRemove>
					( void ) uxListRemove( &( pxTCB->xStateListItem ) );
 8004a82:	4630      	mov	r0, r6
 8004a84:	f7ff fae4 	bl	8004050 <uxListRemove>
					prvAddTaskToReadyList( pxTCB );
 8004a88:	2014      	movs	r0, #20
 8004a8a:	6ae2      	ldr	r2, [r4, #44]	; 0x2c
 8004a8c:	6839      	ldr	r1, [r7, #0]
 8004a8e:	fa05 f302 	lsl.w	r3, r5, r2
 8004a92:	430b      	orrs	r3, r1
 8004a94:	fb00 8002 	mla	r0, r0, r2, r8
 8004a98:	4631      	mov	r1, r6
 8004a9a:	603b      	str	r3, [r7, #0]
 8004a9c:	f7ff fab5 	bl	800400a <vListInsertEnd>
					if( pxTCB->uxPriority >= pxCurrentTCB->uxPriority )
 8004aa0:	4b0a      	ldr	r3, [pc, #40]	; (8004acc <xTaskResumeAll+0xe4>)
 8004aa2:	6ae2      	ldr	r2, [r4, #44]	; 0x2c
 8004aa4:	681b      	ldr	r3, [r3, #0]
 8004aa6:	6adb      	ldr	r3, [r3, #44]	; 0x2c
 8004aa8:	429a      	cmp	r2, r3
						xYieldPending = pdTRUE;
 8004aaa:	bf24      	itt	cs
 8004aac:	4b05      	ldrcs	r3, [pc, #20]	; (8004ac4 <xTaskResumeAll+0xdc>)
 8004aae:	601d      	strcs	r5, [r3, #0]
 8004ab0:	e7be      	b.n	8004a30 <xTaskResumeAll+0x48>
 8004ab2:	bf00      	nop
 8004ab4:	20001048 	.word	0x20001048
 8004ab8:	2000103c 	.word	0x2000103c
 8004abc:	20001050 	.word	0x20001050
 8004ac0:	20001044 	.word	0x20001044
 8004ac4:	200010c8 	.word	0x200010c8
 8004ac8:	e000ed04 	.word	0xe000ed04
 8004acc:	20000fa4 	.word	0x20000fa4
 8004ad0:	20001084 	.word	0x20001084
 8004ad4:	20000fb0 	.word	0x20000fb0

08004ad8 <vTaskDelay>:
	{
 8004ad8:	b508      	push	{r3, lr}
		if( xTicksToDelay > ( TickType_t ) 0U )
 8004ada:	b940      	cbnz	r0, 8004aee <vTaskDelay+0x16>
			portYIELD_WITHIN_API();
 8004adc:	f04f 5280 	mov.w	r2, #268435456	; 0x10000000
 8004ae0:	4b0d      	ldr	r3, [pc, #52]	; (8004b18 <vTaskDelay+0x40>)
 8004ae2:	601a      	str	r2, [r3, #0]
 8004ae4:	f3bf 8f4f 	dsb	sy
 8004ae8:	f3bf 8f6f 	isb	sy
 8004aec:	bd08      	pop	{r3, pc}
			configASSERT( uxSchedulerSuspended == 0 );
 8004aee:	4b0b      	ldr	r3, [pc, #44]	; (8004b1c <vTaskDelay+0x44>)
 8004af0:	6819      	ldr	r1, [r3, #0]
 8004af2:	b141      	cbz	r1, 8004b06 <vTaskDelay+0x2e>
 8004af4:	f04f 0350 	mov.w	r3, #80	; 0x50
 8004af8:	f383 8811 	msr	BASEPRI, r3
 8004afc:	f3bf 8f6f 	isb	sy
 8004b00:	f3bf 8f4f 	dsb	sy
 8004b04:	e7fe      	b.n	8004b04 <vTaskDelay+0x2c>
			vTaskSuspendAll();
 8004b06:	f7ff fed5 	bl	80048b4 <vTaskSuspendAll>
				prvAddCurrentTaskToDelayedList( xTicksToDelay, pdFALSE );
 8004b0a:	f7ff fdf3 	bl	80046f4 <prvAddCurrentTaskToDelayedList>
			xAlreadyYielded = xTaskResumeAll();
 8004b0e:	f7ff ff6b 	bl	80049e8 <xTaskResumeAll>
		if( xAlreadyYielded == pdFALSE )
 8004b12:	2800      	cmp	r0, #0
 8004b14:	d0e2      	beq.n	8004adc <vTaskDelay+0x4>
 8004b16:	bd08      	pop	{r3, pc}
 8004b18:	e000ed04 	.word	0xe000ed04
 8004b1c:	20001048 	.word	0x20001048

08004b20 <vTaskSwitchContext>:
	if( uxSchedulerSuspended != ( UBaseType_t ) pdFALSE )
 8004b20:	4b17      	ldr	r3, [pc, #92]	; (8004b80 <vTaskSwitchContext+0x60>)
{
 8004b22:	b510      	push	{r4, lr}
	if( uxSchedulerSuspended != ( UBaseType_t ) pdFALSE )
 8004b24:	681a      	ldr	r2, [r3, #0]
 8004b26:	4b17      	ldr	r3, [pc, #92]	; (8004b84 <vTaskSwitchContext+0x64>)
 8004b28:	b112      	cbz	r2, 8004b30 <vTaskSwitchContext+0x10>
		xYieldPending = pdTRUE;
 8004b2a:	2201      	movs	r2, #1
		taskSELECT_HIGHEST_PRIORITY_TASK();
 8004b2c:	601a      	str	r2, [r3, #0]
 8004b2e:	bd10      	pop	{r4, pc}
		xYieldPending = pdFALSE;
 8004b30:	601a      	str	r2, [r3, #0]
		taskSELECT_HIGHEST_PRIORITY_TASK();
 8004b32:	4b15      	ldr	r3, [pc, #84]	; (8004b88 <vTaskSwitchContext+0x68>)
 8004b34:	681b      	ldr	r3, [r3, #0]
		__asm volatile ( "clz %0, %1" : "=r" ( ucReturn ) : "r" ( ulBitmap ) : "memory" );
 8004b36:	fab3 f383 	clz	r3, r3
 8004b3a:	2214      	movs	r2, #20
 8004b3c:	b2db      	uxtb	r3, r3
 8004b3e:	f1c3 031f 	rsb	r3, r3, #31
 8004b42:	435a      	muls	r2, r3
 8004b44:	4911      	ldr	r1, [pc, #68]	; (8004b8c <vTaskSwitchContext+0x6c>)
 8004b46:	588c      	ldr	r4, [r1, r2]
 8004b48:	1888      	adds	r0, r1, r2
 8004b4a:	b944      	cbnz	r4, 8004b5e <vTaskSwitchContext+0x3e>
	__asm volatile
 8004b4c:	f04f 0350 	mov.w	r3, #80	; 0x50
 8004b50:	f383 8811 	msr	BASEPRI, r3
 8004b54:	f3bf 8f6f 	isb	sy
 8004b58:	f3bf 8f4f 	dsb	sy
 8004b5c:	e7fe      	b.n	8004b5c <vTaskSwitchContext+0x3c>
 8004b5e:	6844      	ldr	r4, [r0, #4]
 8004b60:	3208      	adds	r2, #8
 8004b62:	6864      	ldr	r4, [r4, #4]
 8004b64:	440a      	add	r2, r1
 8004b66:	4294      	cmp	r4, r2
 8004b68:	bf08      	it	eq
 8004b6a:	6862      	ldreq	r2, [r4, #4]
 8004b6c:	6044      	str	r4, [r0, #4]
 8004b6e:	bf08      	it	eq
 8004b70:	6042      	streq	r2, [r0, #4]
 8004b72:	2214      	movs	r2, #20
 8004b74:	fb02 1303 	mla	r3, r2, r3, r1
 8004b78:	685b      	ldr	r3, [r3, #4]
 8004b7a:	68da      	ldr	r2, [r3, #12]
 8004b7c:	4b04      	ldr	r3, [pc, #16]	; (8004b90 <vTaskSwitchContext+0x70>)
 8004b7e:	e7d5      	b.n	8004b2c <vTaskSwitchContext+0xc>
 8004b80:	20001048 	.word	0x20001048
 8004b84:	200010c8 	.word	0x200010c8
 8004b88:	20001050 	.word	0x20001050
 8004b8c:	20000fb0 	.word	0x20000fb0
 8004b90:	20000fa4 	.word	0x20000fa4

08004b94 <Reset_Handler>:
  .weak Reset_Handler
  .type Reset_Handler, %function
Reset_Handler:

/* Copy the data segment initializers from flash to SRAM */
  movs r1, #0
 8004b94:	2100      	movs	r1, #0
  b LoopCopyDataInit
 8004b96:	e003      	b.n	8004ba0 <LoopCopyDataInit>

08004b98 <CopyDataInit>:

CopyDataInit:
  ldr r3, =_sidata
 8004b98:	4b0b      	ldr	r3, [pc, #44]	; (8004bc8 <LoopFillZerobss+0x14>)
  ldr r3, [r3, r1]
 8004b9a:	585b      	ldr	r3, [r3, r1]
  str r3, [r0, r1]
 8004b9c:	5043      	str	r3, [r0, r1]
  adds r1, r1, #4
 8004b9e:	3104      	adds	r1, #4

08004ba0 <LoopCopyDataInit>:

LoopCopyDataInit:
  ldr r0, =_sdata
 8004ba0:	480a      	ldr	r0, [pc, #40]	; (8004bcc <LoopFillZerobss+0x18>)
  ldr r3, =_edata
 8004ba2:	4b0b      	ldr	r3, [pc, #44]	; (8004bd0 <LoopFillZerobss+0x1c>)
  adds r2, r0, r1
 8004ba4:	1842      	adds	r2, r0, r1
  cmp r2, r3
 8004ba6:	429a      	cmp	r2, r3
  bcc CopyDataInit
 8004ba8:	d3f6      	bcc.n	8004b98 <CopyDataInit>
  ldr r2, =_sbss
 8004baa:	4a0a      	ldr	r2, [pc, #40]	; (8004bd4 <LoopFillZerobss+0x20>)
  b LoopFillZerobss
 8004bac:	e002      	b.n	8004bb4 <LoopFillZerobss>

08004bae <FillZerobss>:
/* Zero fill the bss segment. */
FillZerobss:
  movs r3, #0
 8004bae:	2300      	movs	r3, #0
  str r3, [r2], #4
 8004bb0:	f842 3b04 	str.w	r3, [r2], #4

08004bb4 <LoopFillZerobss>:

LoopFillZerobss:
  ldr r3, = _ebss
 8004bb4:	4b08      	ldr	r3, [pc, #32]	; (8004bd8 <LoopFillZerobss+0x24>)
  cmp r2, r3
 8004bb6:	429a      	cmp	r2, r3
  bcc FillZerobss
 8004bb8:	d3f9      	bcc.n	8004bae <FillZerobss>

/* Call the clock system intitialization function.*/
    bl  SystemInit
 8004bba:	f7fd fcf9 	bl	80025b0 <SystemInit>
/* Call static constructors */
    bl __libc_init_array
 8004bbe:	f000 fd3b 	bl	8005638 <__libc_init_array>
/* Call the application's entry point.*/
  bl main
 8004bc2:	f7fd fbe5 	bl	8002390 <main>
  bx lr
 8004bc6:	4770      	bx	lr
  ldr r3, =_sidata
 8004bc8:	08005d48 	.word	0x08005d48
  ldr r0, =_sdata
 8004bcc:	20000000 	.word	0x20000000
  ldr r3, =_edata
 8004bd0:	20000080 	.word	0x20000080
  ldr r2, =_sbss
 8004bd4:	20000080 	.word	0x20000080
  ldr r3, = _ebss
 8004bd8:	20001228 	.word	0x20001228

08004bdc <ADC1_2_IRQHandler>:
 * @retval : None
*/
    .section .text.Default_Handler,"ax",%progbits
Default_Handler:
Infinite_Loop:
  b Infinite_Loop
 8004bdc:	e7fe      	b.n	8004bdc <ADC1_2_IRQHandler>
	...

08004be0 <_ZN10__cxxabiv120__si_class_type_infoD1Ev>:
 8004be0:	b510      	push	{r4, lr}
 8004be2:	4604      	mov	r4, r0
 8004be4:	4b02      	ldr	r3, [pc, #8]	; (8004bf0 <_ZN10__cxxabiv120__si_class_type_infoD1Ev+0x10>)
 8004be6:	6003      	str	r3, [r0, #0]
 8004be8:	f000 fbf0 	bl	80053cc <_ZN10__cxxabiv117__class_type_infoD1Ev>
 8004bec:	4620      	mov	r0, r4
 8004bee:	bd10      	pop	{r4, pc}
 8004bf0:	0800597c 	.word	0x0800597c

08004bf4 <_ZN10__cxxabiv120__si_class_type_infoD0Ev>:
 8004bf4:	b510      	push	{r4, lr}
 8004bf6:	4604      	mov	r4, r0
 8004bf8:	f7ff fff2 	bl	8004be0 <_ZN10__cxxabiv120__si_class_type_infoD1Ev>
 8004bfc:	4620      	mov	r0, r4
 8004bfe:	210c      	movs	r1, #12
 8004c00:	f000 fbc2 	bl	8005388 <_ZdlPvj>
 8004c04:	4620      	mov	r0, r4
 8004c06:	bd10      	pop	{r4, pc}

08004c08 <_ZNK10__cxxabiv120__si_class_type_info20__do_find_public_srcEiPKvPKNS_17__class_type_infoES2_>:
 8004c08:	e92d 41f0 	stmdb	sp!, {r4, r5, r6, r7, r8, lr}
 8004c0c:	9e06      	ldr	r6, [sp, #24]
 8004c0e:	4680      	mov	r8, r0
 8004c10:	4296      	cmp	r6, r2
 8004c12:	460f      	mov	r7, r1
 8004c14:	4614      	mov	r4, r2
 8004c16:	461d      	mov	r5, r3
 8004c18:	d103      	bne.n	8004c22 <_ZNK10__cxxabiv120__si_class_type_info20__do_find_public_srcEiPKvPKNS_17__class_type_infoES2_+0x1a>
 8004c1a:	4619      	mov	r1, r3
 8004c1c:	f000 fc2a 	bl	8005474 <_ZNKSt9type_infoeqERKS_>
 8004c20:	b958      	cbnz	r0, 8004c3a <_ZNK10__cxxabiv120__si_class_type_info20__do_find_public_srcEiPKvPKNS_17__class_type_infoES2_+0x32>
 8004c22:	f8d8 0008 	ldr.w	r0, [r8, #8]
 8004c26:	4622      	mov	r2, r4
 8004c28:	6803      	ldr	r3, [r0, #0]
 8004c2a:	9606      	str	r6, [sp, #24]
 8004c2c:	6a1e      	ldr	r6, [r3, #32]
 8004c2e:	4639      	mov	r1, r7
 8004c30:	462b      	mov	r3, r5
 8004c32:	46b4      	mov	ip, r6
 8004c34:	e8bd 41f0 	ldmia.w	sp!, {r4, r5, r6, r7, r8, lr}
 8004c38:	4760      	bx	ip
 8004c3a:	2006      	movs	r0, #6
 8004c3c:	e8bd 81f0 	ldmia.w	sp!, {r4, r5, r6, r7, r8, pc}

08004c40 <_ZNK10__cxxabiv120__si_class_type_info12__do_dyncastEiNS_17__class_type_info10__sub_kindEPKS1_PKvS4_S6_RNS1_16__dyncast_resultE>:
 8004c40:	e92d 4ff1 	stmdb	sp!, {r0, r4, r5, r6, r7, r8, r9, sl, fp, lr}
 8004c44:	460e      	mov	r6, r1
 8004c46:	4619      	mov	r1, r3
 8004c48:	4683      	mov	fp, r0
 8004c4a:	4617      	mov	r7, r2
 8004c4c:	4699      	mov	r9, r3
 8004c4e:	9c0a      	ldr	r4, [sp, #40]	; 0x28
 8004c50:	f8dd a02c 	ldr.w	sl, [sp, #44]	; 0x2c
 8004c54:	f8dd 8030 	ldr.w	r8, [sp, #48]	; 0x30
 8004c58:	9d0d      	ldr	r5, [sp, #52]	; 0x34
 8004c5a:	f000 fc0b 	bl	8005474 <_ZNKSt9type_infoeqERKS_>
 8004c5e:	b190      	cbz	r0, 8004c86 <_ZNK10__cxxabiv120__si_class_type_info12__do_dyncastEiNS_17__class_type_info10__sub_kindEPKS1_PKvS4_S6_RNS1_16__dyncast_resultE+0x46>
 8004c60:	2e00      	cmp	r6, #0
 8004c62:	602c      	str	r4, [r5, #0]
 8004c64:	712f      	strb	r7, [r5, #4]
 8004c66:	db09      	blt.n	8004c7c <_ZNK10__cxxabiv120__si_class_type_info12__do_dyncastEiNS_17__class_type_info10__sub_kindEPKS1_PKvS4_S6_RNS1_16__dyncast_resultE+0x3c>
 8004c68:	4434      	add	r4, r6
 8004c6a:	45a0      	cmp	r8, r4
 8004c6c:	bf0c      	ite	eq
 8004c6e:	2406      	moveq	r4, #6
 8004c70:	2401      	movne	r4, #1
 8004c72:	71ac      	strb	r4, [r5, #6]
 8004c74:	2000      	movs	r0, #0
 8004c76:	b001      	add	sp, #4
 8004c78:	e8bd 8ff0 	ldmia.w	sp!, {r4, r5, r6, r7, r8, r9, sl, fp, pc}
 8004c7c:	3602      	adds	r6, #2
 8004c7e:	d1f9      	bne.n	8004c74 <_ZNK10__cxxabiv120__si_class_type_info12__do_dyncastEiNS_17__class_type_info10__sub_kindEPKS1_PKvS4_S6_RNS1_16__dyncast_resultE+0x34>
 8004c80:	2301      	movs	r3, #1
 8004c82:	71ab      	strb	r3, [r5, #6]
 8004c84:	e7f6      	b.n	8004c74 <_ZNK10__cxxabiv120__si_class_type_info12__do_dyncastEiNS_17__class_type_info10__sub_kindEPKS1_PKvS4_S6_RNS1_16__dyncast_resultE+0x34>
 8004c86:	4544      	cmp	r4, r8
 8004c88:	d104      	bne.n	8004c94 <_ZNK10__cxxabiv120__si_class_type_info12__do_dyncastEiNS_17__class_type_info10__sub_kindEPKS1_PKvS4_S6_RNS1_16__dyncast_resultE+0x54>
 8004c8a:	4651      	mov	r1, sl
 8004c8c:	4658      	mov	r0, fp
 8004c8e:	f000 fbf1 	bl	8005474 <_ZNKSt9type_infoeqERKS_>
 8004c92:	b988      	cbnz	r0, 8004cb8 <_ZNK10__cxxabiv120__si_class_type_info12__do_dyncastEiNS_17__class_type_info10__sub_kindEPKS1_PKvS4_S6_RNS1_16__dyncast_resultE+0x78>
 8004c94:	f8db 0008 	ldr.w	r0, [fp, #8]
 8004c98:	463a      	mov	r2, r7
 8004c9a:	6803      	ldr	r3, [r0, #0]
 8004c9c:	950d      	str	r5, [sp, #52]	; 0x34
 8004c9e:	f8cd 8030 	str.w	r8, [sp, #48]	; 0x30
 8004ca2:	f8cd a02c 	str.w	sl, [sp, #44]	; 0x2c
 8004ca6:	940a      	str	r4, [sp, #40]	; 0x28
 8004ca8:	69dc      	ldr	r4, [r3, #28]
 8004caa:	4631      	mov	r1, r6
 8004cac:	464b      	mov	r3, r9
 8004cae:	46a4      	mov	ip, r4
 8004cb0:	b001      	add	sp, #4
 8004cb2:	e8bd 4ff0 	ldmia.w	sp!, {r4, r5, r6, r7, r8, r9, sl, fp, lr}
 8004cb6:	4760      	bx	ip
 8004cb8:	716f      	strb	r7, [r5, #5]
 8004cba:	e7db      	b.n	8004c74 <_ZNK10__cxxabiv120__si_class_type_info12__do_dyncastEiNS_17__class_type_info10__sub_kindEPKS1_PKvS4_S6_RNS1_16__dyncast_resultE+0x34>

08004cbc <_ZNK10__cxxabiv120__si_class_type_info11__do_upcastEPKNS_17__class_type_infoEPKvRNS1_15__upcast_resultE>:
 8004cbc:	e92d 41f0 	stmdb	sp!, {r4, r5, r6, r7, r8, lr}
 8004cc0:	4604      	mov	r4, r0
 8004cc2:	460d      	mov	r5, r1
 8004cc4:	4616      	mov	r6, r2
 8004cc6:	461f      	mov	r7, r3
 8004cc8:	f000 fb94 	bl	80053f4 <_ZNK10__cxxabiv117__class_type_info11__do_upcastEPKS0_PKvRNS0_15__upcast_resultE>
 8004ccc:	b948      	cbnz	r0, 8004ce2 <_ZNK10__cxxabiv120__si_class_type_info11__do_upcastEPKNS_17__class_type_infoEPKvRNS1_15__upcast_resultE+0x26>
 8004cce:	68a0      	ldr	r0, [r4, #8]
 8004cd0:	4632      	mov	r2, r6
 8004cd2:	6803      	ldr	r3, [r0, #0]
 8004cd4:	4629      	mov	r1, r5
 8004cd6:	699c      	ldr	r4, [r3, #24]
 8004cd8:	463b      	mov	r3, r7
 8004cda:	46a4      	mov	ip, r4
 8004cdc:	e8bd 41f0 	ldmia.w	sp!, {r4, r5, r6, r7, r8, lr}
 8004ce0:	4760      	bx	ip
 8004ce2:	e8bd 81f0 	ldmia.w	sp!, {r4, r5, r6, r7, r8, pc}

08004ce6 <_ZdlPv>:
 8004ce6:	f000 bccb 	b.w	8005680 <free>

08004cea <__aeabi_atexit>:
 8004cea:	460b      	mov	r3, r1
 8004cec:	4601      	mov	r1, r0
 8004cee:	4618      	mov	r0, r3
 8004cf0:	f000 bc8e 	b.w	8005610 <__cxa_atexit>

08004cf4 <__cxa_end_cleanup>:
 8004cf4:	b41e      	push	{r1, r2, r3, r4}
 8004cf6:	f000 f89c 	bl	8004e32 <__gnu_end_cleanup>
 8004cfa:	bc1e      	pop	{r1, r2, r3, r4}
 8004cfc:	f7fc fa82 	bl	8001204 <_Unwind_Resume>

08004d00 <_ZN10__cxxabiv1L24__is_gxx_exception_classEPc>:
 8004d00:	7803      	ldrb	r3, [r0, #0]
 8004d02:	2b47      	cmp	r3, #71	; 0x47
 8004d04:	d117      	bne.n	8004d36 <_ZN10__cxxabiv1L24__is_gxx_exception_classEPc+0x36>
 8004d06:	7843      	ldrb	r3, [r0, #1]
 8004d08:	2b4e      	cmp	r3, #78	; 0x4e
 8004d0a:	d114      	bne.n	8004d36 <_ZN10__cxxabiv1L24__is_gxx_exception_classEPc+0x36>
 8004d0c:	7883      	ldrb	r3, [r0, #2]
 8004d0e:	2b55      	cmp	r3, #85	; 0x55
 8004d10:	d111      	bne.n	8004d36 <_ZN10__cxxabiv1L24__is_gxx_exception_classEPc+0x36>
 8004d12:	78c3      	ldrb	r3, [r0, #3]
 8004d14:	2b43      	cmp	r3, #67	; 0x43
 8004d16:	d10e      	bne.n	8004d36 <_ZN10__cxxabiv1L24__is_gxx_exception_classEPc+0x36>
 8004d18:	7903      	ldrb	r3, [r0, #4]
 8004d1a:	2b43      	cmp	r3, #67	; 0x43
 8004d1c:	d10b      	bne.n	8004d36 <_ZN10__cxxabiv1L24__is_gxx_exception_classEPc+0x36>
 8004d1e:	7943      	ldrb	r3, [r0, #5]
 8004d20:	2b2b      	cmp	r3, #43	; 0x2b
 8004d22:	d108      	bne.n	8004d36 <_ZN10__cxxabiv1L24__is_gxx_exception_classEPc+0x36>
 8004d24:	7983      	ldrb	r3, [r0, #6]
 8004d26:	2b2b      	cmp	r3, #43	; 0x2b
 8004d28:	d105      	bne.n	8004d36 <_ZN10__cxxabiv1L24__is_gxx_exception_classEPc+0x36>
 8004d2a:	79c0      	ldrb	r0, [r0, #7]
 8004d2c:	2801      	cmp	r0, #1
 8004d2e:	bf8c      	ite	hi
 8004d30:	2000      	movhi	r0, #0
 8004d32:	2001      	movls	r0, #1
 8004d34:	4770      	bx	lr
 8004d36:	2000      	movs	r0, #0
 8004d38:	4770      	bx	lr
	...

08004d3c <__cxa_type_match>:
 8004d3c:	e92d 41f3 	stmdb	sp!, {r0, r1, r4, r5, r6, r7, r8, lr}
 8004d40:	461e      	mov	r6, r3
 8004d42:	7803      	ldrb	r3, [r0, #0]
 8004d44:	460d      	mov	r5, r1
 8004d46:	2b47      	cmp	r3, #71	; 0x47
 8004d48:	4602      	mov	r2, r0
 8004d4a:	79c1      	ldrb	r1, [r0, #7]
 8004d4c:	d147      	bne.n	8004dde <__cxa_type_match+0xa2>
 8004d4e:	7843      	ldrb	r3, [r0, #1]
 8004d50:	2b4e      	cmp	r3, #78	; 0x4e
 8004d52:	d144      	bne.n	8004dde <__cxa_type_match+0xa2>
 8004d54:	7883      	ldrb	r3, [r0, #2]
 8004d56:	2b55      	cmp	r3, #85	; 0x55
 8004d58:	d141      	bne.n	8004dde <__cxa_type_match+0xa2>
 8004d5a:	78c3      	ldrb	r3, [r0, #3]
 8004d5c:	2b43      	cmp	r3, #67	; 0x43
 8004d5e:	d13e      	bne.n	8004dde <__cxa_type_match+0xa2>
 8004d60:	7903      	ldrb	r3, [r0, #4]
 8004d62:	2b46      	cmp	r3, #70	; 0x46
 8004d64:	d13b      	bne.n	8004dde <__cxa_type_match+0xa2>
 8004d66:	7943      	ldrb	r3, [r0, #5]
 8004d68:	2b4f      	cmp	r3, #79	; 0x4f
 8004d6a:	d138      	bne.n	8004dde <__cxa_type_match+0xa2>
 8004d6c:	7983      	ldrb	r3, [r0, #6]
 8004d6e:	2b52      	cmp	r3, #82	; 0x52
 8004d70:	d135      	bne.n	8004dde <__cxa_type_match+0xa2>
 8004d72:	2900      	cmp	r1, #0
 8004d74:	d133      	bne.n	8004dde <__cxa_type_match+0xa2>
 8004d76:	2301      	movs	r3, #1
 8004d78:	4608      	mov	r0, r1
 8004d7a:	2400      	movs	r4, #0
 8004d7c:	9401      	str	r4, [sp, #4]
 8004d7e:	bb33      	cbnz	r3, 8004dce <__cxa_type_match+0x92>
 8004d80:	bb38      	cbnz	r0, 8004dd2 <__cxa_type_match+0x96>
 8004d82:	2901      	cmp	r1, #1
 8004d84:	bf0a      	itet	eq
 8004d86:	f852 3c20 	ldreq.w	r3, [r2, #-32]
 8004d8a:	f1a2 0320 	subne.w	r3, r2, #32
 8004d8e:	3b78      	subeq	r3, #120	; 0x78
 8004d90:	2901      	cmp	r1, #1
 8004d92:	bf0c      	ite	eq
 8004d94:	f852 2c20 	ldreq.w	r2, [r2, #-32]
 8004d98:	3258      	addne	r2, #88	; 0x58
 8004d9a:	681c      	ldr	r4, [r3, #0]
 8004d9c:	9201      	str	r2, [sp, #4]
 8004d9e:	6823      	ldr	r3, [r4, #0]
 8004da0:	4620      	mov	r0, r4
 8004da2:	689b      	ldr	r3, [r3, #8]
 8004da4:	4798      	blx	r3
 8004da6:	b1b0      	cbz	r0, 8004dd6 <__cxa_type_match+0x9a>
 8004da8:	2702      	movs	r7, #2
 8004daa:	9b01      	ldr	r3, [sp, #4]
 8004dac:	681b      	ldr	r3, [r3, #0]
 8004dae:	9301      	str	r3, [sp, #4]
 8004db0:	682b      	ldr	r3, [r5, #0]
 8004db2:	aa01      	add	r2, sp, #4
 8004db4:	f8d3 8010 	ldr.w	r8, [r3, #16]
 8004db8:	4621      	mov	r1, r4
 8004dba:	2301      	movs	r3, #1
 8004dbc:	4628      	mov	r0, r5
 8004dbe:	47c0      	blx	r8
 8004dc0:	b158      	cbz	r0, 8004dda <__cxa_type_match+0x9e>
 8004dc2:	9b01      	ldr	r3, [sp, #4]
 8004dc4:	6033      	str	r3, [r6, #0]
 8004dc6:	4638      	mov	r0, r7
 8004dc8:	b002      	add	sp, #8
 8004dca:	e8bd 81f0 	ldmia.w	sp!, {r4, r5, r6, r7, r8, pc}
 8004dce:	4c08      	ldr	r4, [pc, #32]	; (8004df0 <__cxa_type_match+0xb4>)
 8004dd0:	e7e5      	b.n	8004d9e <__cxa_type_match+0x62>
 8004dd2:	4c08      	ldr	r4, [pc, #32]	; (8004df4 <__cxa_type_match+0xb8>)
 8004dd4:	e7e3      	b.n	8004d9e <__cxa_type_match+0x62>
 8004dd6:	2701      	movs	r7, #1
 8004dd8:	e7ea      	b.n	8004db0 <__cxa_type_match+0x74>
 8004dda:	4607      	mov	r7, r0
 8004ddc:	e7f3      	b.n	8004dc6 <__cxa_type_match+0x8a>
 8004dde:	4610      	mov	r0, r2
 8004de0:	f7ff ff8e 	bl	8004d00 <_ZN10__cxxabiv1L24__is_gxx_exception_classEPc>
 8004de4:	f080 0001 	eor.w	r0, r0, #1
 8004de8:	b2c0      	uxtb	r0, r0
 8004dea:	2300      	movs	r3, #0
 8004dec:	e7c5      	b.n	8004d7a <__cxa_type_match+0x3e>
 8004dee:	bf00      	nop
 8004df0:	08005a14 	.word	0x08005a14
 8004df4:	08005a1c 	.word	0x08005a1c

08004df8 <__cxa_begin_cleanup>:
 8004df8:	b510      	push	{r4, lr}
 8004dfa:	4604      	mov	r4, r0
 8004dfc:	f000 fbfc 	bl	80055f8 <__cxa_get_globals>
 8004e00:	4602      	mov	r2, r0
 8004e02:	4620      	mov	r0, r4
 8004e04:	f1a4 0120 	sub.w	r1, r4, #32
 8004e08:	f7ff ff7a 	bl	8004d00 <_ZN10__cxxabiv1L24__is_gxx_exception_classEPc>
 8004e0c:	b160      	cbz	r0, 8004e28 <__cxa_begin_cleanup+0x30>
 8004e0e:	f854 3c04 	ldr.w	r3, [r4, #-4]
 8004e12:	3301      	adds	r3, #1
 8004e14:	2b01      	cmp	r3, #1
 8004e16:	f844 3c04 	str.w	r3, [r4, #-4]
 8004e1a:	d103      	bne.n	8004e24 <__cxa_begin_cleanup+0x2c>
 8004e1c:	6893      	ldr	r3, [r2, #8]
 8004e1e:	f844 3c08 	str.w	r3, [r4, #-8]
 8004e22:	6091      	str	r1, [r2, #8]
 8004e24:	2001      	movs	r0, #1
 8004e26:	bd10      	pop	{r4, pc}
 8004e28:	6893      	ldr	r3, [r2, #8]
 8004e2a:	2b00      	cmp	r3, #0
 8004e2c:	d0f9      	beq.n	8004e22 <__cxa_begin_cleanup+0x2a>
 8004e2e:	f000 fbcb 	bl	80055c8 <_ZSt9terminatev>

08004e32 <__gnu_end_cleanup>:
 8004e32:	b510      	push	{r4, lr}
 8004e34:	f000 fbe0 	bl	80055f8 <__cxa_get_globals>
 8004e38:	6882      	ldr	r2, [r0, #8]
 8004e3a:	4601      	mov	r1, r0
 8004e3c:	b90a      	cbnz	r2, 8004e42 <__gnu_end_cleanup+0x10>
 8004e3e:	f000 fbc3 	bl	80055c8 <_ZSt9terminatev>
 8004e42:	f102 0420 	add.w	r4, r2, #32
 8004e46:	4620      	mov	r0, r4
 8004e48:	f7ff ff5a 	bl	8004d00 <_ZN10__cxxabiv1L24__is_gxx_exception_classEPc>
 8004e4c:	b140      	cbz	r0, 8004e60 <__gnu_end_cleanup+0x2e>
 8004e4e:	69d3      	ldr	r3, [r2, #28]
 8004e50:	3b01      	subs	r3, #1
 8004e52:	61d3      	str	r3, [r2, #28]
 8004e54:	b913      	cbnz	r3, 8004e5c <__gnu_end_cleanup+0x2a>
 8004e56:	6990      	ldr	r0, [r2, #24]
 8004e58:	6088      	str	r0, [r1, #8]
 8004e5a:	6193      	str	r3, [r2, #24]
 8004e5c:	4620      	mov	r0, r4
 8004e5e:	bd10      	pop	{r4, pc}
 8004e60:	6088      	str	r0, [r1, #8]
 8004e62:	e7fb      	b.n	8004e5c <__gnu_end_cleanup+0x2a>

08004e64 <_ZL12read_uleb128PKhPm>:
 8004e64:	2300      	movs	r3, #0
 8004e66:	b570      	push	{r4, r5, r6, lr}
 8004e68:	eba0 06c0 	sub.w	r6, r0, r0, lsl #3
 8004e6c:	ebc0 02c0 	rsb	r2, r0, r0, lsl #3
 8004e70:	f810 5b01 	ldrb.w	r5, [r0], #1
 8004e74:	1994      	adds	r4, r2, r6
 8004e76:	f005 027f 	and.w	r2, r5, #127	; 0x7f
 8004e7a:	40a2      	lsls	r2, r4
 8004e7c:	4313      	orrs	r3, r2
 8004e7e:	062a      	lsls	r2, r5, #24
 8004e80:	d4f4      	bmi.n	8004e6c <_ZL12read_uleb128PKhPm+0x8>
 8004e82:	600b      	str	r3, [r1, #0]
 8004e84:	bd70      	pop	{r4, r5, r6, pc}

08004e86 <_ZL12read_sleb128PKhPl>:
 8004e86:	2300      	movs	r3, #0
 8004e88:	461a      	mov	r2, r3
 8004e8a:	b530      	push	{r4, r5, lr}
 8004e8c:	f810 4b01 	ldrb.w	r4, [r0], #1
 8004e90:	f004 057f 	and.w	r5, r4, #127	; 0x7f
 8004e94:	4095      	lsls	r5, r2
 8004e96:	432b      	orrs	r3, r5
 8004e98:	0625      	lsls	r5, r4, #24
 8004e9a:	f102 0207 	add.w	r2, r2, #7
 8004e9e:	d4f5      	bmi.n	8004e8c <_ZL12read_sleb128PKhPl+0x6>
 8004ea0:	2a1f      	cmp	r2, #31
 8004ea2:	d806      	bhi.n	8004eb2 <_ZL12read_sleb128PKhPl+0x2c>
 8004ea4:	0664      	lsls	r4, r4, #25
 8004ea6:	bf42      	ittt	mi
 8004ea8:	f04f 34ff 	movmi.w	r4, #4294967295
 8004eac:	fa04 f202 	lslmi.w	r2, r4, r2
 8004eb0:	4313      	orrmi	r3, r2
 8004eb2:	600b      	str	r3, [r1, #0]
 8004eb4:	bd30      	pop	{r4, r5, pc}

08004eb6 <_ZL28read_encoded_value_with_basehjPKhPj>:
 8004eb6:	2850      	cmp	r0, #80	; 0x50
 8004eb8:	b5f7      	push	{r0, r1, r2, r4, r5, r6, r7, lr}
 8004eba:	4605      	mov	r5, r0
 8004ebc:	460e      	mov	r6, r1
 8004ebe:	4614      	mov	r4, r2
 8004ec0:	461f      	mov	r7, r3
 8004ec2:	d107      	bne.n	8004ed4 <_ZL28read_encoded_value_with_basehjPKhPj+0x1e>
 8004ec4:	1cd0      	adds	r0, r2, #3
 8004ec6:	f020 0003 	bic.w	r0, r0, #3
 8004eca:	f850 3b04 	ldr.w	r3, [r0], #4
 8004ece:	603b      	str	r3, [r7, #0]
 8004ed0:	b003      	add	sp, #12
 8004ed2:	bdf0      	pop	{r4, r5, r6, r7, pc}
 8004ed4:	f000 030f 	and.w	r3, r0, #15
 8004ed8:	2b0c      	cmp	r3, #12
 8004eda:	d82e      	bhi.n	8004f3a <_ZL28read_encoded_value_with_basehjPKhPj+0x84>
 8004edc:	e8df f003 	tbb	[pc, r3]
 8004ee0:	251d0725 	.word	0x251d0725
 8004ee4:	2d2d2d29 	.word	0x2d2d2d29
 8004ee8:	2521182d 	.word	0x2521182d
 8004eec:	29          	.byte	0x29
 8004eed:	00          	.byte	0x00
 8004eee:	a901      	add	r1, sp, #4
 8004ef0:	4620      	mov	r0, r4
 8004ef2:	f7ff ffb7 	bl	8004e64 <_ZL12read_uleb128PKhPm>
 8004ef6:	9b01      	ldr	r3, [sp, #4]
 8004ef8:	2b00      	cmp	r3, #0
 8004efa:	d0e8      	beq.n	8004ece <_ZL28read_encoded_value_with_basehjPKhPj+0x18>
 8004efc:	f005 0270 	and.w	r2, r5, #112	; 0x70
 8004f00:	2a10      	cmp	r2, #16
 8004f02:	bf08      	it	eq
 8004f04:	4626      	moveq	r6, r4
 8004f06:	062a      	lsls	r2, r5, #24
 8004f08:	4433      	add	r3, r6
 8004f0a:	bf48      	it	mi
 8004f0c:	681b      	ldrmi	r3, [r3, #0]
 8004f0e:	e7de      	b.n	8004ece <_ZL28read_encoded_value_with_basehjPKhPj+0x18>
 8004f10:	a901      	add	r1, sp, #4
 8004f12:	4620      	mov	r0, r4
 8004f14:	f7ff ffb7 	bl	8004e86 <_ZL12read_sleb128PKhPl>
 8004f18:	e7ed      	b.n	8004ef6 <_ZL28read_encoded_value_with_basehjPKhPj+0x40>
 8004f1a:	4620      	mov	r0, r4
 8004f1c:	f830 3b02 	ldrh.w	r3, [r0], #2
 8004f20:	e7ea      	b.n	8004ef8 <_ZL28read_encoded_value_with_basehjPKhPj+0x42>
 8004f22:	4620      	mov	r0, r4
 8004f24:	f930 3b02 	ldrsh.w	r3, [r0], #2
 8004f28:	e7e6      	b.n	8004ef8 <_ZL28read_encoded_value_with_basehjPKhPj+0x42>
 8004f2a:	4620      	mov	r0, r4
 8004f2c:	f850 3b04 	ldr.w	r3, [r0], #4
 8004f30:	e7e2      	b.n	8004ef8 <_ZL28read_encoded_value_with_basehjPKhPj+0x42>
 8004f32:	4620      	mov	r0, r4
 8004f34:	f850 3b08 	ldr.w	r3, [r0], #8
 8004f38:	e7de      	b.n	8004ef8 <_ZL28read_encoded_value_with_basehjPKhPj+0x42>
 8004f3a:	f000 fb61 	bl	8005600 <abort>

08004f3e <_ZL21base_of_encoded_valuehP15_Unwind_Context>:
 8004f3e:	b508      	push	{r3, lr}
 8004f40:	4603      	mov	r3, r0
 8004f42:	2bff      	cmp	r3, #255	; 0xff
 8004f44:	4608      	mov	r0, r1
 8004f46:	d007      	beq.n	8004f58 <_ZL21base_of_encoded_valuehP15_Unwind_Context+0x1a>
 8004f48:	f003 0370 	and.w	r3, r3, #112	; 0x70
 8004f4c:	2b20      	cmp	r3, #32
 8004f4e:	d00d      	beq.n	8004f6c <_ZL21base_of_encoded_valuehP15_Unwind_Context+0x2e>
 8004f50:	d804      	bhi.n	8004f5c <_ZL21base_of_encoded_valuehP15_Unwind_Context+0x1e>
 8004f52:	b10b      	cbz	r3, 8004f58 <_ZL21base_of_encoded_valuehP15_Unwind_Context+0x1a>
 8004f54:	2b10      	cmp	r3, #16
 8004f56:	d107      	bne.n	8004f68 <_ZL21base_of_encoded_valuehP15_Unwind_Context+0x2a>
 8004f58:	2000      	movs	r0, #0
 8004f5a:	bd08      	pop	{r3, pc}
 8004f5c:	2b40      	cmp	r3, #64	; 0x40
 8004f5e:	d00d      	beq.n	8004f7c <_ZL21base_of_encoded_valuehP15_Unwind_Context+0x3e>
 8004f60:	2b50      	cmp	r3, #80	; 0x50
 8004f62:	d0f9      	beq.n	8004f58 <_ZL21base_of_encoded_valuehP15_Unwind_Context+0x1a>
 8004f64:	2b30      	cmp	r3, #48	; 0x30
 8004f66:	d005      	beq.n	8004f74 <_ZL21base_of_encoded_valuehP15_Unwind_Context+0x36>
 8004f68:	f000 fb4a 	bl	8005600 <abort>
 8004f6c:	e8bd 4008 	ldmia.w	sp!, {r3, lr}
 8004f70:	f7fc bb4a 	b.w	8001608 <_Unwind_GetTextRelBase>
 8004f74:	e8bd 4008 	ldmia.w	sp!, {r3, lr}
 8004f78:	f7fc bb4a 	b.w	8001610 <_Unwind_GetDataRelBase>
 8004f7c:	e8bd 4008 	ldmia.w	sp!, {r3, lr}
 8004f80:	f7fc bb32 	b.w	80015e8 <_Unwind_GetRegionStart>

08004f84 <_ZL18read_encoded_valueP15_Unwind_ContexthPKhPj>:
 8004f84:	b570      	push	{r4, r5, r6, lr}
 8004f86:	460c      	mov	r4, r1
 8004f88:	4601      	mov	r1, r0
 8004f8a:	4620      	mov	r0, r4
 8004f8c:	4615      	mov	r5, r2
 8004f8e:	461e      	mov	r6, r3
 8004f90:	f7ff ffd5 	bl	8004f3e <_ZL21base_of_encoded_valuehP15_Unwind_Context>
 8004f94:	4633      	mov	r3, r6
 8004f96:	462a      	mov	r2, r5
 8004f98:	4601      	mov	r1, r0
 8004f9a:	4620      	mov	r0, r4
 8004f9c:	e8bd 4070 	ldmia.w	sp!, {r4, r5, r6, lr}
 8004fa0:	f7ff bf89 	b.w	8004eb6 <_ZL28read_encoded_value_with_basehjPKhPj>

08004fa4 <_ZL17parse_lsda_headerP15_Unwind_ContextPKhP16lsda_header_info>:
 8004fa4:	b573      	push	{r0, r1, r4, r5, r6, lr}
 8004fa6:	460e      	mov	r6, r1
 8004fa8:	4614      	mov	r4, r2
 8004faa:	4605      	mov	r5, r0
 8004fac:	b318      	cbz	r0, 8004ff6 <_ZL17parse_lsda_headerP15_Unwind_ContextPKhP16lsda_header_info+0x52>
 8004fae:	f7fc fb1b 	bl	80015e8 <_Unwind_GetRegionStart>
 8004fb2:	6020      	str	r0, [r4, #0]
 8004fb4:	7831      	ldrb	r1, [r6, #0]
 8004fb6:	1c72      	adds	r2, r6, #1
 8004fb8:	29ff      	cmp	r1, #255	; 0xff
 8004fba:	d01d      	beq.n	8004ff8 <_ZL17parse_lsda_headerP15_Unwind_ContextPKhP16lsda_header_info+0x54>
 8004fbc:	1d23      	adds	r3, r4, #4
 8004fbe:	4628      	mov	r0, r5
 8004fc0:	f7ff ffe0 	bl	8004f84 <_ZL18read_encoded_valueP15_Unwind_ContexthPKhPj>
 8004fc4:	4602      	mov	r2, r0
 8004fc6:	7813      	ldrb	r3, [r2, #0]
 8004fc8:	1c50      	adds	r0, r2, #1
 8004fca:	2bff      	cmp	r3, #255	; 0xff
 8004fcc:	7523      	strb	r3, [r4, #20]
 8004fce:	d015      	beq.n	8004ffc <_ZL17parse_lsda_headerP15_Unwind_ContextPKhP16lsda_header_info+0x58>
 8004fd0:	2310      	movs	r3, #16
 8004fd2:	a901      	add	r1, sp, #4
 8004fd4:	7523      	strb	r3, [r4, #20]
 8004fd6:	f7ff ff45 	bl	8004e64 <_ZL12read_uleb128PKhPm>
 8004fda:	9b01      	ldr	r3, [sp, #4]
 8004fdc:	4403      	add	r3, r0
 8004fde:	60e3      	str	r3, [r4, #12]
 8004fe0:	7803      	ldrb	r3, [r0, #0]
 8004fe2:	a901      	add	r1, sp, #4
 8004fe4:	7563      	strb	r3, [r4, #21]
 8004fe6:	3001      	adds	r0, #1
 8004fe8:	f7ff ff3c 	bl	8004e64 <_ZL12read_uleb128PKhPm>
 8004fec:	9b01      	ldr	r3, [sp, #4]
 8004fee:	4403      	add	r3, r0
 8004ff0:	6123      	str	r3, [r4, #16]
 8004ff2:	b002      	add	sp, #8
 8004ff4:	bd70      	pop	{r4, r5, r6, pc}
 8004ff6:	e7dc      	b.n	8004fb2 <_ZL17parse_lsda_headerP15_Unwind_ContextPKhP16lsda_header_info+0xe>
 8004ff8:	6060      	str	r0, [r4, #4]
 8004ffa:	e7e4      	b.n	8004fc6 <_ZL17parse_lsda_headerP15_Unwind_ContextPKhP16lsda_header_info+0x22>
 8004ffc:	2300      	movs	r3, #0
 8004ffe:	e7ee      	b.n	8004fde <_ZL17parse_lsda_headerP15_Unwind_ContextPKhP16lsda_header_info+0x3a>

08005000 <_Unwind_GetGR>:
 8005000:	b51f      	push	{r0, r1, r2, r3, r4, lr}
 8005002:	ab03      	add	r3, sp, #12
 8005004:	9300      	str	r3, [sp, #0]
 8005006:	2300      	movs	r3, #0
 8005008:	460a      	mov	r2, r1
 800500a:	4619      	mov	r1, r3
 800500c:	f7fb fd50 	bl	8000ab0 <_Unwind_VRS_Get>
 8005010:	9803      	ldr	r0, [sp, #12]
 8005012:	b005      	add	sp, #20
 8005014:	f85d fb04 	ldr.w	pc, [sp], #4

08005018 <__gxx_personality_v0>:
 8005018:	2300      	movs	r3, #0
 800501a:	e92d 4ff0 	stmdb	sp!, {r4, r5, r6, r7, r8, r9, sl, fp, lr}
 800501e:	b091      	sub	sp, #68	; 0x44
 8005020:	9304      	str	r3, [sp, #16]
 8005022:	f000 0303 	and.w	r3, r0, #3
 8005026:	2b01      	cmp	r3, #1
 8005028:	4607      	mov	r7, r0
 800502a:	460c      	mov	r4, r1
 800502c:	4616      	mov	r6, r2
 800502e:	d011      	beq.n	8005054 <__gxx_personality_v0+0x3c>
 8005030:	d303      	bcc.n	800503a <__gxx_personality_v0+0x22>
 8005032:	2b02      	cmp	r3, #2
 8005034:	d003      	beq.n	800503e <__gxx_personality_v0+0x26>
 8005036:	f000 fae3 	bl	8005600 <abort>
 800503a:	0702      	lsls	r2, r0, #28
 800503c:	d51a      	bpl.n	8005074 <__gxx_personality_v0+0x5c>
 800503e:	4631      	mov	r1, r6
 8005040:	4620      	mov	r0, r4
 8005042:	f7fc fabb 	bl	80015bc <__gnu_unwind_frame>
 8005046:	b118      	cbz	r0, 8005050 <__gxx_personality_v0+0x38>
 8005048:	2009      	movs	r0, #9
 800504a:	b011      	add	sp, #68	; 0x44
 800504c:	e8bd 8ff0 	ldmia.w	sp!, {r4, r5, r6, r7, r8, r9, sl, fp, pc}
 8005050:	2008      	movs	r0, #8
 8005052:	e7fa      	b.n	800504a <__gxx_personality_v0+0x32>
 8005054:	f000 0508 	and.w	r5, r0, #8
 8005058:	f005 08ff 	and.w	r8, r5, #255	; 0xff
 800505c:	bb85      	cbnz	r5, 80050c0 <__gxx_personality_v0+0xa8>
 800505e:	f8d1 9020 	ldr.w	r9, [r1, #32]
 8005062:	4610      	mov	r0, r2
 8005064:	210d      	movs	r1, #13
 8005066:	f7ff ffcb 	bl	8005000 <_Unwind_GetGR>
 800506a:	4581      	cmp	r9, r0
 800506c:	f040 8140 	bne.w	80052f0 <__gxx_personality_v0+0x2d8>
 8005070:	2506      	movs	r5, #6
 8005072:	e000      	b.n	8005076 <__gxx_personality_v0+0x5e>
 8005074:	2501      	movs	r5, #1
 8005076:	ab10      	add	r3, sp, #64	; 0x40
 8005078:	f843 4d2c 	str.w	r4, [r3, #-44]!
 800507c:	9300      	str	r3, [sp, #0]
 800507e:	2300      	movs	r3, #0
 8005080:	f007 0708 	and.w	r7, r7, #8
 8005084:	433d      	orrs	r5, r7
 8005086:	220c      	movs	r2, #12
 8005088:	4619      	mov	r1, r3
 800508a:	4630      	mov	r0, r6
 800508c:	f7fb fd36 	bl	8000afc <_Unwind_VRS_Set>
 8005090:	2d06      	cmp	r5, #6
 8005092:	f040 8139 	bne.w	8005308 <__gxx_personality_v0+0x2f0>
 8005096:	f8d4 8030 	ldr.w	r8, [r4, #48]	; 0x30
 800509a:	6aa7      	ldr	r7, [r4, #40]	; 0x28
 800509c:	f1b8 0f00 	cmp.w	r8, #0
 80050a0:	bf0c      	ite	eq
 80050a2:	f04f 0a01 	moveq.w	sl, #1
 80050a6:	f04f 0a03 	movne.w	sl, #3
 80050aa:	6ae1      	ldr	r1, [r4, #44]	; 0x2c
 80050ac:	f015 0508 	ands.w	r5, r5, #8
 80050b0:	f000 80ce 	beq.w	8005250 <__gxx_personality_v0+0x238>
 80050b4:	f1ba 0f01 	cmp.w	sl, #1
 80050b8:	f040 80c6 	bne.w	8005248 <__gxx_personality_v0+0x230>
 80050bc:	f000 fa84 	bl	80055c8 <_ZSt9terminatev>
 80050c0:	2502      	movs	r5, #2
 80050c2:	e7d8      	b.n	8005076 <__gxx_personality_v0+0x5e>
 80050c4:	9a07      	ldr	r2, [sp, #28]
 80050c6:	4413      	add	r3, r2
 80050c8:	429f      	cmp	r7, r3
 80050ca:	f080 8137 	bcs.w	800533c <__gxx_personality_v0+0x324>
 80050ce:	f8dd 8020 	ldr.w	r8, [sp, #32]
 80050d2:	f1b8 0f00 	cmp.w	r8, #0
 80050d6:	d001      	beq.n	80050dc <__gxx_personality_v0+0xc4>
 80050d8:	9b0b      	ldr	r3, [sp, #44]	; 0x2c
 80050da:	4498      	add	r8, r3
 80050dc:	9f09      	ldr	r7, [sp, #36]	; 0x24
 80050de:	b117      	cbz	r7, 80050e6 <__gxx_personality_v0+0xce>
 80050e0:	1e78      	subs	r0, r7, #1
 80050e2:	9f0e      	ldr	r7, [sp, #56]	; 0x38
 80050e4:	4407      	add	r7, r0
 80050e6:	f1b8 0f00 	cmp.w	r8, #0
 80050ea:	d0a8      	beq.n	800503e <__gxx_personality_v0+0x26>
 80050ec:	2f00      	cmp	r7, #0
 80050ee:	f000 80a1 	beq.w	8005234 <__gxx_personality_v0+0x21c>
 80050f2:	f015 0308 	ands.w	r3, r5, #8
 80050f6:	9302      	str	r3, [sp, #8]
 80050f8:	d036      	beq.n	8005168 <__gxx_personality_v0+0x150>
 80050fa:	2347      	movs	r3, #71	; 0x47
 80050fc:	7023      	strb	r3, [r4, #0]
 80050fe:	234e      	movs	r3, #78	; 0x4e
 8005100:	7063      	strb	r3, [r4, #1]
 8005102:	2355      	movs	r3, #85	; 0x55
 8005104:	70a3      	strb	r3, [r4, #2]
 8005106:	2343      	movs	r3, #67	; 0x43
 8005108:	70e3      	strb	r3, [r4, #3]
 800510a:	2346      	movs	r3, #70	; 0x46
 800510c:	7123      	strb	r3, [r4, #4]
 800510e:	234f      	movs	r3, #79	; 0x4f
 8005110:	7163      	strb	r3, [r4, #5]
 8005112:	2352      	movs	r3, #82	; 0x52
 8005114:	71a3      	strb	r3, [r4, #6]
 8005116:	2300      	movs	r3, #0
 8005118:	71e3      	strb	r3, [r4, #7]
 800511a:	f04f 0a00 	mov.w	sl, #0
 800511e:	f06f 0b03 	mvn.w	fp, #3
 8005122:	a907      	add	r1, sp, #28
 8005124:	4638      	mov	r0, r7
 8005126:	f7ff feae 	bl	8004e86 <_ZL12read_sleb128PKhPl>
 800512a:	a908      	add	r1, sp, #32
 800512c:	9003      	str	r0, [sp, #12]
 800512e:	f7ff feaa 	bl	8004e86 <_ZL12read_sleb128PKhPl>
 8005132:	9a07      	ldr	r2, [sp, #28]
 8005134:	2a00      	cmp	r2, #0
 8005136:	d076      	beq.n	8005226 <__gxx_personality_v0+0x20e>
 8005138:	dd3d      	ble.n	80051b6 <__gxx_personality_v0+0x19e>
 800513a:	f89d 003c 	ldrb.w	r0, [sp, #60]	; 0x3c
 800513e:	28ff      	cmp	r0, #255	; 0xff
 8005140:	d035      	beq.n	80051ae <__gxx_personality_v0+0x196>
 8005142:	f000 0307 	and.w	r3, r0, #7
 8005146:	2b04      	cmp	r3, #4
 8005148:	f63f af75 	bhi.w	8005036 <__gxx_personality_v0+0x1e>
 800514c:	a101      	add	r1, pc, #4	; (adr r1, 8005154 <__gxx_personality_v0+0x13c>)
 800514e:	f851 f023 	ldr.w	pc, [r1, r3, lsl #2]
 8005152:	bf00      	nop
 8005154:	080051b3 	.word	0x080051b3
 8005158:	08005037 	.word	0x08005037
 800515c:	0800517b 	.word	0x0800517b
 8005160:	080051b3 	.word	0x080051b3
 8005164:	080051ab 	.word	0x080051ab
 8005168:	79e3      	ldrb	r3, [r4, #7]
 800516a:	2b01      	cmp	r3, #1
 800516c:	bf0c      	ite	eq
 800516e:	f854 3c20 	ldreq.w	r3, [r4, #-32]
 8005172:	f104 0358 	addne.w	r3, r4, #88	; 0x58
 8005176:	9304      	str	r3, [sp, #16]
 8005178:	e7cf      	b.n	800511a <__gxx_personality_v0+0x102>
 800517a:	2702      	movs	r7, #2
 800517c:	990d      	ldr	r1, [sp, #52]	; 0x34
 800517e:	ab09      	add	r3, sp, #36	; 0x24
 8005180:	fb07 1212 	mls	r2, r7, r2, r1
 8005184:	990c      	ldr	r1, [sp, #48]	; 0x30
 8005186:	f7ff fe96 	bl	8004eb6 <_ZL28read_encoded_value_with_basehjPKhPj>
 800518a:	9909      	ldr	r1, [sp, #36]	; 0x24
 800518c:	b369      	cbz	r1, 80051ea <__gxx_personality_v0+0x1d2>
 800518e:	b12c      	cbz	r4, 800519c <__gxx_personality_v0+0x184>
 8005190:	ab04      	add	r3, sp, #16
 8005192:	2200      	movs	r2, #0
 8005194:	4620      	mov	r0, r4
 8005196:	f7ff fdd1 	bl	8004d3c <__cxa_type_match>
 800519a:	bb30      	cbnz	r0, 80051ea <__gxx_personality_v0+0x1d2>
 800519c:	9f08      	ldr	r7, [sp, #32]
 800519e:	2f00      	cmp	r7, #0
 80051a0:	d044      	beq.n	800522c <__gxx_personality_v0+0x214>
 80051a2:	9b03      	ldr	r3, [sp, #12]
 80051a4:	443b      	add	r3, r7
 80051a6:	461f      	mov	r7, r3
 80051a8:	e7bb      	b.n	8005122 <__gxx_personality_v0+0x10a>
 80051aa:	2708      	movs	r7, #8
 80051ac:	e7e6      	b.n	800517c <__gxx_personality_v0+0x164>
 80051ae:	2700      	movs	r7, #0
 80051b0:	e7e4      	b.n	800517c <__gxx_personality_v0+0x164>
 80051b2:	2704      	movs	r7, #4
 80051b4:	e7e2      	b.n	800517c <__gxx_personality_v0+0x164>
 80051b6:	9f0d      	ldr	r7, [sp, #52]	; 0x34
 80051b8:	3201      	adds	r2, #1
 80051ba:	b36c      	cbz	r4, 8005218 <__gxx_personality_v0+0x200>
 80051bc:	9b02      	ldr	r3, [sp, #8]
 80051be:	bb5b      	cbnz	r3, 8005218 <__gxx_personality_v0+0x200>
 80051c0:	fb0b 7202 	mla	r2, fp, r2, r7
 80051c4:	9b04      	ldr	r3, [sp, #16]
 80051c6:	1f17      	subs	r7, r2, #4
 80051c8:	9306      	str	r3, [sp, #24]
 80051ca:	f857 1f04 	ldr.w	r1, [r7, #4]!
 80051ce:	b141      	cbz	r1, 80051e2 <__gxx_personality_v0+0x1ca>
 80051d0:	ab06      	add	r3, sp, #24
 80051d2:	2200      	movs	r2, #0
 80051d4:	4439      	add	r1, r7
 80051d6:	4620      	mov	r0, r4
 80051d8:	f7ff fdb0 	bl	8004d3c <__cxa_type_match>
 80051dc:	2800      	cmp	r0, #0
 80051de:	d0f4      	beq.n	80051ca <__gxx_personality_v0+0x1b2>
 80051e0:	2101      	movs	r1, #1
 80051e2:	f081 0101 	eor.w	r1, r1, #1
 80051e6:	2900      	cmp	r1, #0
 80051e8:	d0d8      	beq.n	800519c <__gxx_personality_v0+0x184>
 80051ea:	f04f 0a03 	mov.w	sl, #3
 80051ee:	9f07      	ldr	r7, [sp, #28]
 80051f0:	07eb      	lsls	r3, r5, #31
 80051f2:	d527      	bpl.n	8005244 <__gxx_personality_v0+0x22c>
 80051f4:	f1ba 0f02 	cmp.w	sl, #2
 80051f8:	f43f af21 	beq.w	800503e <__gxx_personality_v0+0x26>
 80051fc:	210d      	movs	r1, #13
 80051fe:	4630      	mov	r0, r6
 8005200:	9d04      	ldr	r5, [sp, #16]
 8005202:	f7ff fefd 	bl	8005000 <_Unwind_GetGR>
 8005206:	6265      	str	r5, [r4, #36]	; 0x24
 8005208:	6220      	str	r0, [r4, #32]
 800520a:	62a7      	str	r7, [r4, #40]	; 0x28
 800520c:	f8c4 902c 	str.w	r9, [r4, #44]	; 0x2c
 8005210:	f8c4 8030 	str.w	r8, [r4, #48]	; 0x30
 8005214:	2006      	movs	r0, #6
 8005216:	e718      	b.n	800504a <__gxx_personality_v0+0x32>
 8005218:	fb0b f202 	mul.w	r2, fp, r2
 800521c:	58b9      	ldr	r1, [r7, r2]
 800521e:	fab1 f181 	clz	r1, r1
 8005222:	0949      	lsrs	r1, r1, #5
 8005224:	e7df      	b.n	80051e6 <__gxx_personality_v0+0x1ce>
 8005226:	f04f 0a01 	mov.w	sl, #1
 800522a:	e7b7      	b.n	800519c <__gxx_personality_v0+0x184>
 800522c:	f1ba 0f00 	cmp.w	sl, #0
 8005230:	f43f af05 	beq.w	800503e <__gxx_personality_v0+0x26>
 8005234:	f04f 0a02 	mov.w	sl, #2
 8005238:	e7da      	b.n	80051f0 <__gxx_personality_v0+0x1d8>
 800523a:	2700      	movs	r7, #0
 800523c:	f04f 0a01 	mov.w	sl, #1
 8005240:	46b8      	mov	r8, r7
 8005242:	e7d5      	b.n	80051f0 <__gxx_personality_v0+0x1d8>
 8005244:	4649      	mov	r1, r9
 8005246:	e731      	b.n	80050ac <__gxx_personality_v0+0x94>
 8005248:	2f00      	cmp	r7, #0
 800524a:	da23      	bge.n	8005294 <__gxx_personality_v0+0x27c>
 800524c:	f000 f9ce 	bl	80055ec <_ZSt10unexpectedv>
 8005250:	f1ba 0f01 	cmp.w	sl, #1
 8005254:	d102      	bne.n	800525c <__gxx_personality_v0+0x244>
 8005256:	4620      	mov	r0, r4
 8005258:	f000 f93f 	bl	80054da <__cxa_call_terminate>
 800525c:	2f00      	cmp	r7, #0
 800525e:	da19      	bge.n	8005294 <__gxx_personality_v0+0x27c>
 8005260:	aa0a      	add	r2, sp, #40	; 0x28
 8005262:	4630      	mov	r0, r6
 8005264:	f7ff fe9e 	bl	8004fa4 <_ZL17parse_lsda_headerP15_Unwind_ContextPKhP16lsda_header_info>
 8005268:	4631      	mov	r1, r6
 800526a:	f89d 003c 	ldrb.w	r0, [sp, #60]	; 0x3c
 800526e:	f7ff fe66 	bl	8004f3e <_ZL21base_of_encoded_valuehP15_Unwind_Context>
 8005272:	f06f 0303 	mvn.w	r3, #3
 8005276:	fb07 3203 	mla	r2, r7, r3, r3
 800527a:	9b0d      	ldr	r3, [sp, #52]	; 0x34
 800527c:	900c      	str	r0, [sp, #48]	; 0x30
 800527e:	4413      	add	r3, r2
 8005280:	f853 2025 	ldr.w	r2, [r3, r5, lsl #2]
 8005284:	b10a      	cbz	r2, 800528a <__gxx_personality_v0+0x272>
 8005286:	3501      	adds	r5, #1
 8005288:	e7fa      	b.n	8005280 <__gxx_personality_v0+0x268>
 800528a:	2204      	movs	r2, #4
 800528c:	62a5      	str	r5, [r4, #40]	; 0x28
 800528e:	62e0      	str	r0, [r4, #44]	; 0x2c
 8005290:	6322      	str	r2, [r4, #48]	; 0x30
 8005292:	6363      	str	r3, [r4, #52]	; 0x34
 8005294:	ab10      	add	r3, sp, #64	; 0x40
 8005296:	f843 4d1c 	str.w	r4, [r3, #-28]!
 800529a:	9300      	str	r3, [sp, #0]
 800529c:	2300      	movs	r3, #0
 800529e:	4630      	mov	r0, r6
 80052a0:	461a      	mov	r2, r3
 80052a2:	4619      	mov	r1, r3
 80052a4:	f7fb fc2a 	bl	8000afc <_Unwind_VRS_Set>
 80052a8:	ab10      	add	r3, sp, #64	; 0x40
 80052aa:	f843 7d20 	str.w	r7, [r3, #-32]!
 80052ae:	9300      	str	r3, [sp, #0]
 80052b0:	2300      	movs	r3, #0
 80052b2:	2201      	movs	r2, #1
 80052b4:	4619      	mov	r1, r3
 80052b6:	4630      	mov	r0, r6
 80052b8:	f7fb fc20 	bl	8000afc <_Unwind_VRS_Set>
 80052bc:	210f      	movs	r1, #15
 80052be:	4630      	mov	r0, r6
 80052c0:	f7ff fe9e 	bl	8005000 <_Unwind_GetGR>
 80052c4:	f000 0001 	and.w	r0, r0, #1
 80052c8:	ab10      	add	r3, sp, #64	; 0x40
 80052ca:	ea40 0008 	orr.w	r0, r0, r8
 80052ce:	f843 0d24 	str.w	r0, [r3, #-36]!
 80052d2:	9300      	str	r3, [sp, #0]
 80052d4:	2300      	movs	r3, #0
 80052d6:	220f      	movs	r2, #15
 80052d8:	4619      	mov	r1, r3
 80052da:	4630      	mov	r0, r6
 80052dc:	f7fb fc0e 	bl	8000afc <_Unwind_VRS_Set>
 80052e0:	f1ba 0f02 	cmp.w	sl, #2
 80052e4:	d102      	bne.n	80052ec <__gxx_personality_v0+0x2d4>
 80052e6:	4620      	mov	r0, r4
 80052e8:	f7ff fd86 	bl	8004df8 <__cxa_begin_cleanup>
 80052ec:	2007      	movs	r0, #7
 80052ee:	e6ac      	b.n	800504a <__gxx_personality_v0+0x32>
 80052f0:	aa10      	add	r2, sp, #64	; 0x40
 80052f2:	f842 4d2c 	str.w	r4, [r2, #-44]!
 80052f6:	9200      	str	r2, [sp, #0]
 80052f8:	4643      	mov	r3, r8
 80052fa:	220c      	movs	r2, #12
 80052fc:	4641      	mov	r1, r8
 80052fe:	4630      	mov	r0, r6
 8005300:	f045 0502 	orr.w	r5, r5, #2
 8005304:	f7fb fbfa 	bl	8000afc <_Unwind_VRS_Set>
 8005308:	4630      	mov	r0, r6
 800530a:	f7fc f973 	bl	80015f4 <_Unwind_GetLanguageSpecificData>
 800530e:	4681      	mov	r9, r0
 8005310:	2800      	cmp	r0, #0
 8005312:	f43f ae94 	beq.w	800503e <__gxx_personality_v0+0x26>
 8005316:	aa0a      	add	r2, sp, #40	; 0x28
 8005318:	4601      	mov	r1, r0
 800531a:	4630      	mov	r0, r6
 800531c:	f7ff fe42 	bl	8004fa4 <_ZL17parse_lsda_headerP15_Unwind_ContextPKhP16lsda_header_info>
 8005320:	4631      	mov	r1, r6
 8005322:	4680      	mov	r8, r0
 8005324:	f89d 003c 	ldrb.w	r0, [sp, #60]	; 0x3c
 8005328:	f7ff fe09 	bl	8004f3e <_ZL21base_of_encoded_valuehP15_Unwind_Context>
 800532c:	210f      	movs	r1, #15
 800532e:	900c      	str	r0, [sp, #48]	; 0x30
 8005330:	4630      	mov	r0, r6
 8005332:	f7ff fe65 	bl	8005000 <_Unwind_GetGR>
 8005336:	f020 0001 	bic.w	r0, r0, #1
 800533a:	1e47      	subs	r7, r0, #1
 800533c:	9b0e      	ldr	r3, [sp, #56]	; 0x38
 800533e:	4598      	cmp	r8, r3
 8005340:	f4bf af7b 	bcs.w	800523a <__gxx_personality_v0+0x222>
 8005344:	4642      	mov	r2, r8
 8005346:	ab06      	add	r3, sp, #24
 8005348:	f89d 103d 	ldrb.w	r1, [sp, #61]	; 0x3d
 800534c:	2000      	movs	r0, #0
 800534e:	f7ff fe19 	bl	8004f84 <_ZL18read_encoded_valueP15_Unwind_ContexthPKhPj>
 8005352:	ab07      	add	r3, sp, #28
 8005354:	4602      	mov	r2, r0
 8005356:	f89d 103d 	ldrb.w	r1, [sp, #61]	; 0x3d
 800535a:	2000      	movs	r0, #0
 800535c:	f7ff fe12 	bl	8004f84 <_ZL18read_encoded_valueP15_Unwind_ContexthPKhPj>
 8005360:	ab08      	add	r3, sp, #32
 8005362:	4602      	mov	r2, r0
 8005364:	f89d 103d 	ldrb.w	r1, [sp, #61]	; 0x3d
 8005368:	2000      	movs	r0, #0
 800536a:	f7ff fe0b 	bl	8004f84 <_ZL18read_encoded_valueP15_Unwind_ContexthPKhPj>
 800536e:	a909      	add	r1, sp, #36	; 0x24
 8005370:	f7ff fd78 	bl	8004e64 <_ZL12read_uleb128PKhPm>
 8005374:	9a06      	ldr	r2, [sp, #24]
 8005376:	9b0a      	ldr	r3, [sp, #40]	; 0x28
 8005378:	4680      	mov	r8, r0
 800537a:	4413      	add	r3, r2
 800537c:	429f      	cmp	r7, r3
 800537e:	f4bf aea1 	bcs.w	80050c4 <__gxx_personality_v0+0xac>
 8005382:	f8dd 8038 	ldr.w	r8, [sp, #56]	; 0x38
 8005386:	e7d9      	b.n	800533c <__gxx_personality_v0+0x324>

08005388 <_ZdlPvj>:
 8005388:	f7ff bcad 	b.w	8004ce6 <_ZdlPv>

0800538c <_ZNK10__cxxabiv117__class_type_info11__do_upcastEPKS0_PPv>:
 800538c:	b57f      	push	{r0, r1, r2, r3, r4, r5, r6, lr}
 800538e:	2310      	movs	r3, #16
 8005390:	2400      	movs	r4, #0
 8005392:	9302      	str	r3, [sp, #8]
 8005394:	6803      	ldr	r3, [r0, #0]
 8005396:	4615      	mov	r5, r2
 8005398:	699e      	ldr	r6, [r3, #24]
 800539a:	9400      	str	r4, [sp, #0]
 800539c:	466b      	mov	r3, sp
 800539e:	f88d 4004 	strb.w	r4, [sp, #4]
 80053a2:	9403      	str	r4, [sp, #12]
 80053a4:	6812      	ldr	r2, [r2, #0]
 80053a6:	47b0      	blx	r6
 80053a8:	f89d 3004 	ldrb.w	r3, [sp, #4]
 80053ac:	f003 0306 	and.w	r3, r3, #6
 80053b0:	2b06      	cmp	r3, #6
 80053b2:	bf09      	itett	eq
 80053b4:	2001      	moveq	r0, #1
 80053b6:	4620      	movne	r0, r4
 80053b8:	9b00      	ldreq	r3, [sp, #0]
 80053ba:	602b      	streq	r3, [r5, #0]
 80053bc:	b004      	add	sp, #16
 80053be:	bd70      	pop	{r4, r5, r6, pc}

080053c0 <_ZNK10__cxxabiv117__class_type_info20__do_find_public_srcEiPKvPKS0_S2_>:
 80053c0:	9800      	ldr	r0, [sp, #0]
 80053c2:	4290      	cmp	r0, r2
 80053c4:	bf0c      	ite	eq
 80053c6:	2006      	moveq	r0, #6
 80053c8:	2001      	movne	r0, #1
 80053ca:	4770      	bx	lr

080053cc <_ZN10__cxxabiv117__class_type_infoD1Ev>:
 80053cc:	b510      	push	{r4, lr}
 80053ce:	4604      	mov	r4, r0
 80053d0:	4b02      	ldr	r3, [pc, #8]	; (80053dc <_ZN10__cxxabiv117__class_type_infoD1Ev+0x10>)
 80053d2:	6003      	str	r3, [r0, #0]
 80053d4:	f000 f84b 	bl	800546e <_ZNSt9type_infoD1Ev>
 80053d8:	4620      	mov	r0, r4
 80053da:	bd10      	pop	{r4, pc}
 80053dc:	080059d8 	.word	0x080059d8

080053e0 <_ZN10__cxxabiv117__class_type_infoD0Ev>:
 80053e0:	b510      	push	{r4, lr}
 80053e2:	4604      	mov	r4, r0
 80053e4:	f7ff fff2 	bl	80053cc <_ZN10__cxxabiv117__class_type_infoD1Ev>
 80053e8:	4620      	mov	r0, r4
 80053ea:	2108      	movs	r1, #8
 80053ec:	f7ff ffcc 	bl	8005388 <_ZdlPvj>
 80053f0:	4620      	mov	r0, r4
 80053f2:	bd10      	pop	{r4, pc}

080053f4 <_ZNK10__cxxabiv117__class_type_info11__do_upcastEPKS0_PKvRNS0_15__upcast_resultE>:
 80053f4:	b538      	push	{r3, r4, r5, lr}
 80053f6:	4615      	mov	r5, r2
 80053f8:	461c      	mov	r4, r3
 80053fa:	f000 f83b 	bl	8005474 <_ZNKSt9type_infoeqERKS_>
 80053fe:	b120      	cbz	r0, 800540a <_ZNK10__cxxabiv117__class_type_info11__do_upcastEPKS0_PKvRNS0_15__upcast_resultE+0x16>
 8005400:	2308      	movs	r3, #8
 8005402:	60e3      	str	r3, [r4, #12]
 8005404:	2306      	movs	r3, #6
 8005406:	6025      	str	r5, [r4, #0]
 8005408:	7123      	strb	r3, [r4, #4]
 800540a:	bd38      	pop	{r3, r4, r5, pc}

0800540c <_ZNK10__cxxabiv117__class_type_info10__do_catchEPKSt9type_infoPPvj>:
 800540c:	e92d 41f0 	stmdb	sp!, {r4, r5, r6, r7, r8, lr}
 8005410:	4605      	mov	r5, r0
 8005412:	460c      	mov	r4, r1
 8005414:	4616      	mov	r6, r2
 8005416:	461f      	mov	r7, r3
 8005418:	f000 f82c 	bl	8005474 <_ZNKSt9type_infoeqERKS_>
 800541c:	b948      	cbnz	r0, 8005432 <_ZNK10__cxxabiv117__class_type_info10__do_catchEPKSt9type_infoPPvj+0x26>
 800541e:	2f03      	cmp	r7, #3
 8005420:	d807      	bhi.n	8005432 <_ZNK10__cxxabiv117__class_type_info10__do_catchEPKSt9type_infoPPvj+0x26>
 8005422:	6823      	ldr	r3, [r4, #0]
 8005424:	4632      	mov	r2, r6
 8005426:	4629      	mov	r1, r5
 8005428:	4620      	mov	r0, r4
 800542a:	e8bd 41f0 	ldmia.w	sp!, {r4, r5, r6, r7, r8, lr}
 800542e:	695b      	ldr	r3, [r3, #20]
 8005430:	4718      	bx	r3
 8005432:	e8bd 81f0 	ldmia.w	sp!, {r4, r5, r6, r7, r8, pc}

08005436 <_ZNK10__cxxabiv117__class_type_info12__do_dyncastEiNS0_10__sub_kindEPKS0_PKvS3_S5_RNS0_16__dyncast_resultE>:
 8005436:	e92d 41f0 	stmdb	sp!, {r4, r5, r6, r7, r8, lr}
 800543a:	9e06      	ldr	r6, [sp, #24]
 800543c:	4698      	mov	r8, r3
 800543e:	9b08      	ldr	r3, [sp, #32]
 8005440:	4607      	mov	r7, r0
 8005442:	429e      	cmp	r6, r3
 8005444:	4615      	mov	r5, r2
 8005446:	9c09      	ldr	r4, [sp, #36]	; 0x24
 8005448:	d103      	bne.n	8005452 <_ZNK10__cxxabiv117__class_type_info12__do_dyncastEiNS0_10__sub_kindEPKS0_PKvS3_S5_RNS0_16__dyncast_resultE+0x1c>
 800544a:	9907      	ldr	r1, [sp, #28]
 800544c:	f000 f812 	bl	8005474 <_ZNKSt9type_infoeqERKS_>
 8005450:	b958      	cbnz	r0, 800546a <_ZNK10__cxxabiv117__class_type_info12__do_dyncastEiNS0_10__sub_kindEPKS0_PKvS3_S5_RNS0_16__dyncast_resultE+0x34>
 8005452:	4641      	mov	r1, r8
 8005454:	4638      	mov	r0, r7
 8005456:	f000 f80d 	bl	8005474 <_ZNKSt9type_infoeqERKS_>
 800545a:	b118      	cbz	r0, 8005464 <_ZNK10__cxxabiv117__class_type_info12__do_dyncastEiNS0_10__sub_kindEPKS0_PKvS3_S5_RNS0_16__dyncast_resultE+0x2e>
 800545c:	2301      	movs	r3, #1
 800545e:	6026      	str	r6, [r4, #0]
 8005460:	7125      	strb	r5, [r4, #4]
 8005462:	71a3      	strb	r3, [r4, #6]
 8005464:	2000      	movs	r0, #0
 8005466:	e8bd 81f0 	ldmia.w	sp!, {r4, r5, r6, r7, r8, pc}
 800546a:	7165      	strb	r5, [r4, #5]
 800546c:	e7fa      	b.n	8005464 <_ZNK10__cxxabiv117__class_type_info12__do_dyncastEiNS0_10__sub_kindEPKS0_PKvS3_S5_RNS0_16__dyncast_resultE+0x2e>

0800546e <_ZNSt9type_infoD1Ev>:
 800546e:	4770      	bx	lr

08005470 <_ZNKSt9type_info14__is_pointer_pEv>:
 8005470:	2000      	movs	r0, #0
 8005472:	4770      	bx	lr

08005474 <_ZNKSt9type_infoeqERKS_>:
 8005474:	4281      	cmp	r1, r0
 8005476:	b508      	push	{r3, lr}
 8005478:	d00e      	beq.n	8005498 <_ZNKSt9type_infoeqERKS_+0x24>
 800547a:	6840      	ldr	r0, [r0, #4]
 800547c:	7803      	ldrb	r3, [r0, #0]
 800547e:	2b2a      	cmp	r3, #42	; 0x2a
 8005480:	d00c      	beq.n	800549c <_ZNKSt9type_infoeqERKS_+0x28>
 8005482:	6849      	ldr	r1, [r1, #4]
 8005484:	780b      	ldrb	r3, [r1, #0]
 8005486:	2b2a      	cmp	r3, #42	; 0x2a
 8005488:	bf08      	it	eq
 800548a:	3101      	addeq	r1, #1
 800548c:	f7fa fe60 	bl	8000150 <strcmp>
 8005490:	fab0 f080 	clz	r0, r0
 8005494:	0940      	lsrs	r0, r0, #5
 8005496:	bd08      	pop	{r3, pc}
 8005498:	2001      	movs	r0, #1
 800549a:	bd08      	pop	{r3, pc}
 800549c:	2000      	movs	r0, #0
 800549e:	bd08      	pop	{r3, pc}

080054a0 <_ZN10__cxxabiv1L24__is_gxx_exception_classEPc>:
 80054a0:	7803      	ldrb	r3, [r0, #0]
 80054a2:	2b47      	cmp	r3, #71	; 0x47
 80054a4:	d117      	bne.n	80054d6 <_ZN10__cxxabiv1L24__is_gxx_exception_classEPc+0x36>
 80054a6:	7843      	ldrb	r3, [r0, #1]
 80054a8:	2b4e      	cmp	r3, #78	; 0x4e
 80054aa:	d114      	bne.n	80054d6 <_ZN10__cxxabiv1L24__is_gxx_exception_classEPc+0x36>
 80054ac:	7883      	ldrb	r3, [r0, #2]
 80054ae:	2b55      	cmp	r3, #85	; 0x55
 80054b0:	d111      	bne.n	80054d6 <_ZN10__cxxabiv1L24__is_gxx_exception_classEPc+0x36>
 80054b2:	78c3      	ldrb	r3, [r0, #3]
 80054b4:	2b43      	cmp	r3, #67	; 0x43
 80054b6:	d10e      	bne.n	80054d6 <_ZN10__cxxabiv1L24__is_gxx_exception_classEPc+0x36>
 80054b8:	7903      	ldrb	r3, [r0, #4]
 80054ba:	2b43      	cmp	r3, #67	; 0x43
 80054bc:	d10b      	bne.n	80054d6 <_ZN10__cxxabiv1L24__is_gxx_exception_classEPc+0x36>
 80054be:	7943      	ldrb	r3, [r0, #5]
 80054c0:	2b2b      	cmp	r3, #43	; 0x2b
 80054c2:	d108      	bne.n	80054d6 <_ZN10__cxxabiv1L24__is_gxx_exception_classEPc+0x36>
 80054c4:	7983      	ldrb	r3, [r0, #6]
 80054c6:	2b2b      	cmp	r3, #43	; 0x2b
 80054c8:	d105      	bne.n	80054d6 <_ZN10__cxxabiv1L24__is_gxx_exception_classEPc+0x36>
 80054ca:	79c0      	ldrb	r0, [r0, #7]
 80054cc:	2801      	cmp	r0, #1
 80054ce:	bf8c      	ite	hi
 80054d0:	2000      	movhi	r0, #0
 80054d2:	2001      	movls	r0, #1
 80054d4:	4770      	bx	lr
 80054d6:	2000      	movs	r0, #0
 80054d8:	4770      	bx	lr

080054da <__cxa_call_terminate>:
 80054da:	b510      	push	{r4, lr}
 80054dc:	4604      	mov	r4, r0
 80054de:	b148      	cbz	r0, 80054f4 <__cxa_call_terminate+0x1a>
 80054e0:	f000 f83b 	bl	800555a <__cxa_begin_catch>
 80054e4:	4620      	mov	r0, r4
 80054e6:	f7ff ffdb 	bl	80054a0 <_ZN10__cxxabiv1L24__is_gxx_exception_classEPc>
 80054ea:	b118      	cbz	r0, 80054f4 <__cxa_call_terminate+0x1a>
 80054ec:	f854 0c14 	ldr.w	r0, [r4, #-20]
 80054f0:	f000 f85d 	bl	80055ae <_ZN10__cxxabiv111__terminateEPFvvE>
 80054f4:	f000 f868 	bl	80055c8 <_ZSt9terminatev>

080054f8 <__cxa_call_unexpected>:
 80054f8:	b538      	push	{r3, r4, r5, lr}
 80054fa:	4602      	mov	r2, r0
 80054fc:	f7ff ffd0 	bl	80054a0 <_ZN10__cxxabiv1L24__is_gxx_exception_classEPc>
 8005500:	b140      	cbz	r0, 8005514 <__cxa_call_unexpected+0x1c>
 8005502:	2500      	movs	r5, #0
 8005504:	f852 4c18 	ldr.w	r4, [r2, #-24]
 8005508:	4610      	mov	r0, r2
 800550a:	f000 f826 	bl	800555a <__cxa_begin_catch>
 800550e:	b125      	cbz	r5, 800551a <__cxa_call_unexpected+0x22>
 8005510:	f000 f86c 	bl	80055ec <_ZSt10unexpectedv>
 8005514:	4604      	mov	r4, r0
 8005516:	2501      	movs	r5, #1
 8005518:	e7f6      	b.n	8005508 <__cxa_call_unexpected+0x10>
 800551a:	4620      	mov	r0, r4
 800551c:	f000 f859 	bl	80055d2 <_ZN10__cxxabiv112__unexpectedEPFvvE>

08005520 <_ZN10__cxxabiv1L24__is_gxx_exception_classEPc>:
 8005520:	7803      	ldrb	r3, [r0, #0]
 8005522:	2b47      	cmp	r3, #71	; 0x47
 8005524:	d117      	bne.n	8005556 <_ZN10__cxxabiv1L24__is_gxx_exception_classEPc+0x36>
 8005526:	7843      	ldrb	r3, [r0, #1]
 8005528:	2b4e      	cmp	r3, #78	; 0x4e
 800552a:	d114      	bne.n	8005556 <_ZN10__cxxabiv1L24__is_gxx_exception_classEPc+0x36>
 800552c:	7883      	ldrb	r3, [r0, #2]
 800552e:	2b55      	cmp	r3, #85	; 0x55
 8005530:	d111      	bne.n	8005556 <_ZN10__cxxabiv1L24__is_gxx_exception_classEPc+0x36>
 8005532:	78c3      	ldrb	r3, [r0, #3]
 8005534:	2b43      	cmp	r3, #67	; 0x43
 8005536:	d10e      	bne.n	8005556 <_ZN10__cxxabiv1L24__is_gxx_exception_classEPc+0x36>
 8005538:	7903      	ldrb	r3, [r0, #4]
 800553a:	2b43      	cmp	r3, #67	; 0x43
 800553c:	d10b      	bne.n	8005556 <_ZN10__cxxabiv1L24__is_gxx_exception_classEPc+0x36>
 800553e:	7943      	ldrb	r3, [r0, #5]
 8005540:	2b2b      	cmp	r3, #43	; 0x2b
 8005542:	d108      	bne.n	8005556 <_ZN10__cxxabiv1L24__is_gxx_exception_classEPc+0x36>
 8005544:	7983      	ldrb	r3, [r0, #6]
 8005546:	2b2b      	cmp	r3, #43	; 0x2b
 8005548:	d105      	bne.n	8005556 <_ZN10__cxxabiv1L24__is_gxx_exception_classEPc+0x36>
 800554a:	79c0      	ldrb	r0, [r0, #7]
 800554c:	2801      	cmp	r0, #1
 800554e:	bf8c      	ite	hi
 8005550:	2000      	movhi	r0, #0
 8005552:	2001      	movls	r0, #1
 8005554:	4770      	bx	lr
 8005556:	2000      	movs	r0, #0
 8005558:	4770      	bx	lr

0800555a <__cxa_begin_catch>:
 800555a:	b538      	push	{r3, r4, r5, lr}
 800555c:	4605      	mov	r5, r0
 800555e:	f000 f84b 	bl	80055f8 <__cxa_get_globals>
 8005562:	4601      	mov	r1, r0
 8005564:	6802      	ldr	r2, [r0, #0]
 8005566:	4628      	mov	r0, r5
 8005568:	f1a5 0420 	sub.w	r4, r5, #32
 800556c:	f7ff ffd8 	bl	8005520 <_ZN10__cxxabiv1L24__is_gxx_exception_classEPc>
 8005570:	b930      	cbnz	r0, 8005580 <__cxa_begin_catch+0x26>
 8005572:	b10a      	cbz	r2, 8005578 <__cxa_begin_catch+0x1e>
 8005574:	f000 f828 	bl	80055c8 <_ZSt9terminatev>
 8005578:	600c      	str	r4, [r1, #0]
 800557a:	4614      	mov	r4, r2
 800557c:	4620      	mov	r0, r4
 800557e:	bd38      	pop	{r3, r4, r5, pc}
 8005580:	f855 3c0c 	ldr.w	r3, [r5, #-12]
 8005584:	4628      	mov	r0, r5
 8005586:	2b00      	cmp	r3, #0
 8005588:	bfb4      	ite	lt
 800558a:	f1c3 0301 	rsblt	r3, r3, #1
 800558e:	3301      	addge	r3, #1
 8005590:	f845 3c0c 	str.w	r3, [r5, #-12]
 8005594:	684b      	ldr	r3, [r1, #4]
 8005596:	42a2      	cmp	r2, r4
 8005598:	f103 33ff 	add.w	r3, r3, #4294967295
 800559c:	604b      	str	r3, [r1, #4]
 800559e:	bf1c      	itt	ne
 80055a0:	f845 2c10 	strne.w	r2, [r5, #-16]
 80055a4:	600c      	strne	r4, [r1, #0]
 80055a6:	6a6c      	ldr	r4, [r5, #36]	; 0x24
 80055a8:	f7fb fa7a 	bl	8000aa0 <_Unwind_Complete>
 80055ac:	e7e6      	b.n	800557c <__cxa_begin_catch+0x22>

080055ae <_ZN10__cxxabiv111__terminateEPFvvE>:
 80055ae:	b508      	push	{r3, lr}
 80055b0:	4780      	blx	r0
 80055b2:	f000 f825 	bl	8005600 <abort>
	...

080055b8 <_ZSt13get_terminatev>:
 80055b8:	4b02      	ldr	r3, [pc, #8]	; (80055c4 <_ZSt13get_terminatev+0xc>)
 80055ba:	6818      	ldr	r0, [r3, #0]
 80055bc:	f3bf 8f5b 	dmb	ish
 80055c0:	4770      	bx	lr
 80055c2:	bf00      	nop
 80055c4:	20000014 	.word	0x20000014

080055c8 <_ZSt9terminatev>:
 80055c8:	b508      	push	{r3, lr}
 80055ca:	f7ff fff5 	bl	80055b8 <_ZSt13get_terminatev>
 80055ce:	f7ff ffee 	bl	80055ae <_ZN10__cxxabiv111__terminateEPFvvE>

080055d2 <_ZN10__cxxabiv112__unexpectedEPFvvE>:
 80055d2:	b508      	push	{r3, lr}
 80055d4:	4780      	blx	r0
 80055d6:	f7ff fff7 	bl	80055c8 <_ZSt9terminatev>
	...

080055dc <_ZSt14get_unexpectedv>:
 80055dc:	4b02      	ldr	r3, [pc, #8]	; (80055e8 <_ZSt14get_unexpectedv+0xc>)
 80055de:	6818      	ldr	r0, [r3, #0]
 80055e0:	f3bf 8f5b 	dmb	ish
 80055e4:	4770      	bx	lr
 80055e6:	bf00      	nop
 80055e8:	20000018 	.word	0x20000018

080055ec <_ZSt10unexpectedv>:
 80055ec:	b508      	push	{r3, lr}
 80055ee:	f7ff fff5 	bl	80055dc <_ZSt14get_unexpectedv>
 80055f2:	f7ff ffee 	bl	80055d2 <_ZN10__cxxabiv112__unexpectedEPFvvE>
	...

080055f8 <__cxa_get_globals>:
 80055f8:	4800      	ldr	r0, [pc, #0]	; (80055fc <__cxa_get_globals+0x4>)
 80055fa:	4770      	bx	lr
 80055fc:	200010cc 	.word	0x200010cc

08005600 <abort>:
 8005600:	b508      	push	{r3, lr}
 8005602:	2006      	movs	r0, #6
 8005604:	f000 f8cc 	bl	80057a0 <raise>
 8005608:	2001      	movs	r0, #1
 800560a:	f7fc ffcb 	bl	80025a4 <_exit>
	...

08005610 <__cxa_atexit>:
 8005610:	b510      	push	{r4, lr}
 8005612:	4c05      	ldr	r4, [pc, #20]	; (8005628 <__cxa_atexit+0x18>)
 8005614:	4613      	mov	r3, r2
 8005616:	b12c      	cbz	r4, 8005624 <__cxa_atexit+0x14>
 8005618:	460a      	mov	r2, r1
 800561a:	4601      	mov	r1, r0
 800561c:	2002      	movs	r0, #2
 800561e:	f3af 8000 	nop.w
 8005622:	bd10      	pop	{r4, pc}
 8005624:	4620      	mov	r0, r4
 8005626:	bd10      	pop	{r4, pc}
 8005628:	00000000 	.word	0x00000000

0800562c <__errno>:
 800562c:	4b01      	ldr	r3, [pc, #4]	; (8005634 <__errno+0x8>)
 800562e:	6818      	ldr	r0, [r3, #0]
 8005630:	4770      	bx	lr
 8005632:	bf00      	nop
 8005634:	2000001c 	.word	0x2000001c

08005638 <__libc_init_array>:
 8005638:	b570      	push	{r4, r5, r6, lr}
 800563a:	2500      	movs	r5, #0
 800563c:	4e0c      	ldr	r6, [pc, #48]	; (8005670 <__libc_init_array+0x38>)
 800563e:	4c0d      	ldr	r4, [pc, #52]	; (8005674 <__libc_init_array+0x3c>)
 8005640:	1ba4      	subs	r4, r4, r6
 8005642:	10a4      	asrs	r4, r4, #2
 8005644:	42a5      	cmp	r5, r4
 8005646:	d109      	bne.n	800565c <__libc_init_array+0x24>
 8005648:	f000 f8c8 	bl	80057dc <_init>
 800564c:	2500      	movs	r5, #0
 800564e:	4e0a      	ldr	r6, [pc, #40]	; (8005678 <__libc_init_array+0x40>)
 8005650:	4c0a      	ldr	r4, [pc, #40]	; (800567c <__libc_init_array+0x44>)
 8005652:	1ba4      	subs	r4, r4, r6
 8005654:	10a4      	asrs	r4, r4, #2
 8005656:	42a5      	cmp	r5, r4
 8005658:	d105      	bne.n	8005666 <__libc_init_array+0x2e>
 800565a:	bd70      	pop	{r4, r5, r6, pc}
 800565c:	f856 3025 	ldr.w	r3, [r6, r5, lsl #2]
 8005660:	4798      	blx	r3
 8005662:	3501      	adds	r5, #1
 8005664:	e7ee      	b.n	8005644 <__libc_init_array+0xc>
 8005666:	f856 3025 	ldr.w	r3, [r6, r5, lsl #2]
 800566a:	4798      	blx	r3
 800566c:	3501      	adds	r5, #1
 800566e:	e7f2      	b.n	8005656 <__libc_init_array+0x1e>
 8005670:	08005d38 	.word	0x08005d38
 8005674:	08005d38 	.word	0x08005d38
 8005678:	08005d38 	.word	0x08005d38
 800567c:	08005d44 	.word	0x08005d44

08005680 <free>:
 8005680:	4b02      	ldr	r3, [pc, #8]	; (800568c <free+0xc>)
 8005682:	4601      	mov	r1, r0
 8005684:	6818      	ldr	r0, [r3, #0]
 8005686:	f000 b817 	b.w	80056b8 <_free_r>
 800568a:	bf00      	nop
 800568c:	2000001c 	.word	0x2000001c

08005690 <memcpy>:
 8005690:	b510      	push	{r4, lr}
 8005692:	1e43      	subs	r3, r0, #1
 8005694:	440a      	add	r2, r1
 8005696:	4291      	cmp	r1, r2
 8005698:	d100      	bne.n	800569c <memcpy+0xc>
 800569a:	bd10      	pop	{r4, pc}
 800569c:	f811 4b01 	ldrb.w	r4, [r1], #1
 80056a0:	f803 4f01 	strb.w	r4, [r3, #1]!
 80056a4:	e7f7      	b.n	8005696 <memcpy+0x6>

080056a6 <memset>:
 80056a6:	4603      	mov	r3, r0
 80056a8:	4402      	add	r2, r0
 80056aa:	4293      	cmp	r3, r2
 80056ac:	d100      	bne.n	80056b0 <memset+0xa>
 80056ae:	4770      	bx	lr
 80056b0:	f803 1b01 	strb.w	r1, [r3], #1
 80056b4:	e7f9      	b.n	80056aa <memset+0x4>
	...

080056b8 <_free_r>:
 80056b8:	b538      	push	{r3, r4, r5, lr}
 80056ba:	4605      	mov	r5, r0
 80056bc:	2900      	cmp	r1, #0
 80056be:	d043      	beq.n	8005748 <_free_r+0x90>
 80056c0:	f851 3c04 	ldr.w	r3, [r1, #-4]
 80056c4:	1f0c      	subs	r4, r1, #4
 80056c6:	2b00      	cmp	r3, #0
 80056c8:	bfb8      	it	lt
 80056ca:	18e4      	addlt	r4, r4, r3
 80056cc:	f000 f884 	bl	80057d8 <__malloc_lock>
 80056d0:	4a1e      	ldr	r2, [pc, #120]	; (800574c <_free_r+0x94>)
 80056d2:	6813      	ldr	r3, [r2, #0]
 80056d4:	4610      	mov	r0, r2
 80056d6:	b933      	cbnz	r3, 80056e6 <_free_r+0x2e>
 80056d8:	6063      	str	r3, [r4, #4]
 80056da:	6014      	str	r4, [r2, #0]
 80056dc:	4628      	mov	r0, r5
 80056de:	e8bd 4038 	ldmia.w	sp!, {r3, r4, r5, lr}
 80056e2:	f000 b87a 	b.w	80057da <__malloc_unlock>
 80056e6:	42a3      	cmp	r3, r4
 80056e8:	d90b      	bls.n	8005702 <_free_r+0x4a>
 80056ea:	6821      	ldr	r1, [r4, #0]
 80056ec:	1862      	adds	r2, r4, r1
 80056ee:	4293      	cmp	r3, r2
 80056f0:	bf01      	itttt	eq
 80056f2:	681a      	ldreq	r2, [r3, #0]
 80056f4:	685b      	ldreq	r3, [r3, #4]
 80056f6:	1852      	addeq	r2, r2, r1
 80056f8:	6022      	streq	r2, [r4, #0]
 80056fa:	6063      	str	r3, [r4, #4]
 80056fc:	6004      	str	r4, [r0, #0]
 80056fe:	e7ed      	b.n	80056dc <_free_r+0x24>
 8005700:	4613      	mov	r3, r2
 8005702:	685a      	ldr	r2, [r3, #4]
 8005704:	b10a      	cbz	r2, 800570a <_free_r+0x52>
 8005706:	42a2      	cmp	r2, r4
 8005708:	d9fa      	bls.n	8005700 <_free_r+0x48>
 800570a:	6819      	ldr	r1, [r3, #0]
 800570c:	1858      	adds	r0, r3, r1
 800570e:	42a0      	cmp	r0, r4
 8005710:	d10b      	bne.n	800572a <_free_r+0x72>
 8005712:	6820      	ldr	r0, [r4, #0]
 8005714:	4401      	add	r1, r0
 8005716:	1858      	adds	r0, r3, r1
 8005718:	4282      	cmp	r2, r0
 800571a:	6019      	str	r1, [r3, #0]
 800571c:	d1de      	bne.n	80056dc <_free_r+0x24>
 800571e:	6810      	ldr	r0, [r2, #0]
 8005720:	6852      	ldr	r2, [r2, #4]
 8005722:	4401      	add	r1, r0
 8005724:	6019      	str	r1, [r3, #0]
 8005726:	605a      	str	r2, [r3, #4]
 8005728:	e7d8      	b.n	80056dc <_free_r+0x24>
 800572a:	d902      	bls.n	8005732 <_free_r+0x7a>
 800572c:	230c      	movs	r3, #12
 800572e:	602b      	str	r3, [r5, #0]
 8005730:	e7d4      	b.n	80056dc <_free_r+0x24>
 8005732:	6820      	ldr	r0, [r4, #0]
 8005734:	1821      	adds	r1, r4, r0
 8005736:	428a      	cmp	r2, r1
 8005738:	bf01      	itttt	eq
 800573a:	6811      	ldreq	r1, [r2, #0]
 800573c:	6852      	ldreq	r2, [r2, #4]
 800573e:	1809      	addeq	r1, r1, r0
 8005740:	6021      	streq	r1, [r4, #0]
 8005742:	6062      	str	r2, [r4, #4]
 8005744:	605c      	str	r4, [r3, #4]
 8005746:	e7c9      	b.n	80056dc <_free_r+0x24>
 8005748:	bd38      	pop	{r3, r4, r5, pc}
 800574a:	bf00      	nop
 800574c:	200010d8 	.word	0x200010d8

08005750 <_raise_r>:
 8005750:	291f      	cmp	r1, #31
 8005752:	b538      	push	{r3, r4, r5, lr}
 8005754:	4604      	mov	r4, r0
 8005756:	460d      	mov	r5, r1
 8005758:	d904      	bls.n	8005764 <_raise_r+0x14>
 800575a:	2316      	movs	r3, #22
 800575c:	6003      	str	r3, [r0, #0]
 800575e:	f04f 30ff 	mov.w	r0, #4294967295
 8005762:	bd38      	pop	{r3, r4, r5, pc}
 8005764:	6c42      	ldr	r2, [r0, #68]	; 0x44
 8005766:	b112      	cbz	r2, 800576e <_raise_r+0x1e>
 8005768:	f852 3021 	ldr.w	r3, [r2, r1, lsl #2]
 800576c:	b94b      	cbnz	r3, 8005782 <_raise_r+0x32>
 800576e:	4620      	mov	r0, r4
 8005770:	f000 f830 	bl	80057d4 <_getpid_r>
 8005774:	462a      	mov	r2, r5
 8005776:	4601      	mov	r1, r0
 8005778:	4620      	mov	r0, r4
 800577a:	e8bd 4038 	ldmia.w	sp!, {r3, r4, r5, lr}
 800577e:	f000 b817 	b.w	80057b0 <_kill_r>
 8005782:	2b01      	cmp	r3, #1
 8005784:	d00a      	beq.n	800579c <_raise_r+0x4c>
 8005786:	1c59      	adds	r1, r3, #1
 8005788:	d103      	bne.n	8005792 <_raise_r+0x42>
 800578a:	2316      	movs	r3, #22
 800578c:	6003      	str	r3, [r0, #0]
 800578e:	2001      	movs	r0, #1
 8005790:	bd38      	pop	{r3, r4, r5, pc}
 8005792:	2400      	movs	r4, #0
 8005794:	4628      	mov	r0, r5
 8005796:	f842 4025 	str.w	r4, [r2, r5, lsl #2]
 800579a:	4798      	blx	r3
 800579c:	2000      	movs	r0, #0
 800579e:	bd38      	pop	{r3, r4, r5, pc}

080057a0 <raise>:
 80057a0:	4b02      	ldr	r3, [pc, #8]	; (80057ac <raise+0xc>)
 80057a2:	4601      	mov	r1, r0
 80057a4:	6818      	ldr	r0, [r3, #0]
 80057a6:	f7ff bfd3 	b.w	8005750 <_raise_r>
 80057aa:	bf00      	nop
 80057ac:	2000001c 	.word	0x2000001c

080057b0 <_kill_r>:
 80057b0:	b538      	push	{r3, r4, r5, lr}
 80057b2:	2300      	movs	r3, #0
 80057b4:	4c06      	ldr	r4, [pc, #24]	; (80057d0 <_kill_r+0x20>)
 80057b6:	4605      	mov	r5, r0
 80057b8:	4608      	mov	r0, r1
 80057ba:	4611      	mov	r1, r2
 80057bc:	6023      	str	r3, [r4, #0]
 80057be:	f7fc fee9 	bl	8002594 <_kill>
 80057c2:	1c43      	adds	r3, r0, #1
 80057c4:	d102      	bne.n	80057cc <_kill_r+0x1c>
 80057c6:	6823      	ldr	r3, [r4, #0]
 80057c8:	b103      	cbz	r3, 80057cc <_kill_r+0x1c>
 80057ca:	602b      	str	r3, [r5, #0]
 80057cc:	bd38      	pop	{r3, r4, r5, pc}
 80057ce:	bf00      	nop
 80057d0:	20001224 	.word	0x20001224

080057d4 <_getpid_r>:
 80057d4:	f7fc bedc 	b.w	8002590 <_getpid>

080057d8 <__malloc_lock>:
 80057d8:	4770      	bx	lr

080057da <__malloc_unlock>:
 80057da:	4770      	bx	lr

080057dc <_init>:
 80057dc:	b5f8      	push	{r3, r4, r5, r6, r7, lr}
 80057de:	bf00      	nop
 80057e0:	bcf8      	pop	{r3, r4, r5, r6, r7}
 80057e2:	bc08      	pop	{r3}
 80057e4:	469e      	mov	lr, r3
 80057e6:	4770      	bx	lr

080057e8 <_fini>:
 80057e8:	b5f8      	push	{r3, r4, r5, r6, r7, lr}
 80057ea:	bf00      	nop
 80057ec:	bcf8      	pop	{r3, r4, r5, r6, r7}
 80057ee:	bc08      	pop	{r3}
 80057f0:	469e      	mov	lr, r3
 80057f2:	4770      	bx	lr
